

HI-TECH Software PIC LITE Macro Assembler V9.70 build 5239 
                                                                                               Tue Mar 21 12:42:05 2023

HI-TECH Software Omniscient Code Generator (Lite mode) build 5239
     1  0000                     opt subtitle "HI-TECH Software Omniscient Code Generator (Lite mode) build 5239"
     2                           
     3                           opt pagewidth 120
     4                           
     5                           	opt lm
     6                           
     7                           	processor	16F887
     8                           clrc	macro
     9                           	bcf	3,0
    10  0000                     	endm
    11                           clrz	macro
    12                           	bcf	3,2
    13  0000                     	endm
    14                           setc	macro
    15                           	bsf	3,0
    16  0000                     	endm
    17                           setz	macro
    18                           	bsf	3,2
    19  0000                     	endm
    20                           skipc	macro
    21                           	btfss	3,0
    22  0000                     	endm
    23                           skipz	macro
    24                           	btfss	3,2
    25  0000                     	endm
    26                           skipnc	macro
    27                           	btfsc	3,0
    28  0000                     	endm
    29                           skipnz	macro
    30                           	btfsc	3,2
    31  0000                     	endm
    32  0000                     indf	equ	0
    33  0000                     indf0	equ	0
    34  0002                     pc	equ	2
    35  0002                     pcl	equ	2
    36  0003                     status	equ	3
    37  0004                     fsr	equ	4
    38  0004                     fsr0	equ	4
    39  0001                     c	equ	1
    40  0000                     z	equ	0
    41  000A                     pclath	equ	10
    42                           ;COMMON:	_main->_display
    43                           ;BANK0:	_display->___awdiv
    44                           ;COMMON:	_display->___awmod
    45                           ;BANK0:	_main->_display
    46                           ;BANK0:	_display->___awdiv
    47                           ;COMMON:	_display->___awmod
    48                           	FNCALL	_main,_display
    49                           	FNCALL	_main,_addition
    50                           	FNCALL	_addition,___awdiv
    51                           	FNCALL	_addition,___awmod
    52                           	FNCALL	_addition,_time_delay
    53                           	FNCALL	_display,___awdiv
    54                           	FNCALL	_display,___awmod
    55                           	FNCALL	_display,_time_delay
    56                           	FNROOT	_main
    57                           	global	_number
    58                           psect	idataBANK0,class=CODE,space=0,delta=2
    59                           global __pidataBANK0
    60  01C7                     __pidataBANK0:
    61                           	file	"C:\Users\gowth\Documents\PIC Programs\Keypad\4 segment addition\addition.c"
    62                           	line	17
    63                           
    64                           ;initializer for _number
    65  01C7  343F               	retlw	03Fh
    66  01C8  3406               	retlw	06h
    67  01C9  345B               	retlw	05Bh
    68  01CA  344F               	retlw	04Fh
    69  01CB  3466               	retlw	066h
    70  01CC  346D               	retlw	06Dh
    71  01CD  347D               	retlw	07Dh
    72  01CE  3407               	retlw	07h
    73  01CF  347F               	retlw	07Fh
    74  01D0  3467               	retlw	067h
    75                           	global	_count
    76                           	global	_i
    77                           	global	_j
    78                           	global	_var
    79                           	global	_sum
    80                           	global	_a
    81                           psect	nvBANK0,class=BANK0,space=1
    82                           global __pnvBANK0
    83  0020                     __pnvBANK0:
    84  0020                     _a:
    85  0020                            ds      2
    86                           
    87                           	global	_b
    88  0022                     _b:
    89  0022                            ds      2
    90                           
    91                           	global	_k
    92  0024                     _k:
    93  0024                            ds      2
    94                           
    95                           	global	_p
    96  0026                     _p:
    97  0026                            ds      2
    98                           
    99                           	global	_q
   100  0028                     _q:
   101  0028                            ds      2
   102                           
   103                           	global	_z
   104  002A                     _z:
   105  002A                            ds      2
   106                           
   107                           	global	_ADCON0
   108  001F                     _ADCON0  equ     31
   109                           	global	_ADRESH
   110  001E                     _ADRESH  equ     30
   111                           	global	_CCP1CON
   112  0017                     _CCP1CON  equ     23
   113                           	global	_CCP2CON
   114  001D                     _CCP2CON  equ     29
   115                           	global	_CCPR1H
   116  0016                     _CCPR1H  equ     22
   117                           	global	_CCPR1L
   118  0015                     _CCPR1L  equ     21
   119                           	global	_CCPR2H
   120  001C                     _CCPR2H  equ     28
   121                           	global	_CCPR2L
   122  001B                     _CCPR2L  equ     27
   123                           	global	_FSR
   124  0004                     _FSR  equ     4
   125                           	global	_INDF
   126  0000                     _INDF  equ     0
   127                           	global	_INTCON
   128  000B                     _INTCON  equ     11
   129                           	global	_PCL
   130  0002                     _PCL  equ     2
   131                           	global	_PCLATH
   132  000A                     _PCLATH  equ     10
   133                           	global	_PIR1
   134  000C                     _PIR1  equ     12
   135                           	global	_PIR2
   136  000D                     _PIR2  equ     13
   137                           	global	_PORTA
   138  0005                     _PORTA  equ     5
   139                           	global	_PORTB
   140  0006                     _PORTB  equ     6
   141                           	global	_PORTC
   142  0007                     _PORTC  equ     7
   143                           	global	_PORTD
   144  0008                     _PORTD  equ     8
   145                           	global	_PORTE
   146  0009                     _PORTE  equ     9
   147                           	global	_RCREG
   148  001A                     _RCREG  equ     26
   149                           	global	_RCSTA
   150  0018                     _RCSTA  equ     24
   151                           	global	_SSPBUF
   152  0013                     _SSPBUF  equ     19
   153                           	global	_SSPCON
   154  0014                     _SSPCON  equ     20
   155                           	global	_STATUS
   156  0003                     _STATUS  equ     3
   157                           	global	_T1CON
   158  0010                     _T1CON  equ     16
   159                           	global	_T2CON
   160  0012                     _T2CON  equ     18
   161                           	global	_TMR0
   162  0001                     _TMR0  equ     1
   163                           	global	_TMR1H
   164  000F                     _TMR1H  equ     15
   165                           	global	_TMR1L
   166  000E                     _TMR1L  equ     14
   167                           	global	_TMR2
   168  0011                     _TMR2  equ     17
   169                           	global	_TXREG
   170  0019                     _TXREG  equ     25
   171                           	global	_ADCS0
   172  00FE                     _ADCS0  equ     254
   173                           	global	_ADCS1
   174  00FF                     _ADCS1  equ     255
   175                           	global	_ADDEN
   176  00C3                     _ADDEN  equ     195
   177                           	global	_ADIF
   178  0066                     _ADIF  equ     102
   179                           	global	_ADON
   180  00F8                     _ADON  equ     248
   181                           	global	_BCLIF
   182  006B                     _BCLIF  equ     107
   183                           	global	_C1IF
   184  006D                     _C1IF  equ     109
   185                           	global	_C2IF
   186  006E                     _C2IF  equ     110
   187                           	global	_CARRY
   188  0018                     _CARRY  equ     24
   189                           	global	_CCP1IF
   190  0062                     _CCP1IF  equ     98
   191                           	global	_CCP1M0
   192  00B8                     _CCP1M0  equ     184
   193                           	global	_CCP1M1
   194  00B9                     _CCP1M1  equ     185
   195                           	global	_CCP1M2
   196  00BA                     _CCP1M2  equ     186
   197                           	global	_CCP1M3
   198  00BB                     _CCP1M3  equ     187
   199                           	global	_CCP2IF
   200  0068                     _CCP2IF  equ     104
   201                           	global	_CCP2M0
   202  00E8                     _CCP2M0  equ     232
   203                           	global	_CCP2M1
   204  00E9                     _CCP2M1  equ     233
   205                           	global	_CCP2M2
   206  00EA                     _CCP2M2  equ     234
   207                           	global	_CCP2M3
   208  00EB                     _CCP2M3  equ     235
   209                           	global	_CCP2X
   210  00ED                     _CCP2X  equ     237
   211                           	global	_CCP2Y
   212  00EC                     _CCP2Y  equ     236
   213                           	global	_CHS0
   214  00FA                     _CHS0  equ     250
   215                           	global	_CHS1
   216  00FB                     _CHS1  equ     251
   217                           	global	_CHS2
   218  00FC                     _CHS2  equ     252
   219                           	global	_CHS3
   220  00FD                     _CHS3  equ     253
   221                           	global	_CKP
   222  00A4                     _CKP  equ     164
   223                           	global	_CREN
   224  00C4                     _CREN  equ     196
   225                           	global	_DC
   226  0019                     _DC  equ     25
   227                           	global	_DC1B0
   228  00BC                     _DC1B0  equ     188
   229                           	global	_DC1B1
   230  00BD                     _DC1B1  equ     189
   231                           	global	_EEIF
   232  006C                     _EEIF  equ     108
   233                           	global	_FERR
   234  00C2                     _FERR  equ     194
   235                           	global	_GIE
   236  005F                     _GIE  equ     95
   237                           	global	_GODONE
   238  00F9                     _GODONE  equ     249
   239                           	global	_INTE
   240  005C                     _INTE  equ     92
   241                           	global	_INTF
   242  0059                     _INTF  equ     89
   243                           	global	_IRP
   244  001F                     _IRP  equ     31
   245                           	global	_OERR
   246  00C1                     _OERR  equ     193
   247                           	global	_OSFIF
   248  006F                     _OSFIF  equ     111
   249                           	global	_P1M0
   250  00BE                     _P1M0  equ     190
   251                           	global	_P1M1
   252  00BF                     _P1M1  equ     191
   253                           	global	_PD
   254  001B                     _PD  equ     27
   255                           	global	_PEIE
   256  005E                     _PEIE  equ     94
   257                           	global	_RA0
   258  0028                     _RA0  equ     40
   259                           	global	_RA1
   260  0029                     _RA1  equ     41
   261                           	global	_RA2
   262  002A                     _RA2  equ     42
   263                           	global	_RA3
   264  002B                     _RA3  equ     43
   265                           	global	_RA4
   266  002C                     _RA4  equ     44
   267                           	global	_RA5
   268  002D                     _RA5  equ     45
   269                           	global	_RA6
   270  002E                     _RA6  equ     46
   271                           	global	_RA7
   272  002F                     _RA7  equ     47
   273                           	global	_RABIE
   274  005B                     _RABIE  equ     91
   275                           	global	_RABIF
   276  0058                     _RABIF  equ     88
   277                           	global	_RB0
   278  0030                     _RB0  equ     48
   279                           	global	_RB1
   280  0031                     _RB1  equ     49
   281                           	global	_RB2
   282  0032                     _RB2  equ     50
   283                           	global	_RB3
   284  0033                     _RB3  equ     51
   285                           	global	_RB4
   286  0034                     _RB4  equ     52
   287                           	global	_RB5
   288  0035                     _RB5  equ     53
   289                           	global	_RB6
   290  0036                     _RB6  equ     54
   291                           	global	_RB7
   292  0037                     _RB7  equ     55
   293                           	global	_RBIE
   294  005B                     _RBIE  equ     91
   295                           	global	_RBIF
   296  0058                     _RBIF  equ     88
   297                           	global	_RC0
   298  0038                     _RC0  equ     56
   299                           	global	_RC1
   300  0039                     _RC1  equ     57
   301                           	global	_RC2
   302  003A                     _RC2  equ     58
   303                           	global	_RC3
   304  003B                     _RC3  equ     59
   305                           	global	_RC4
   306  003C                     _RC4  equ     60
   307                           	global	_RC5
   308  003D                     _RC5  equ     61
   309                           	global	_RC6
   310  003E                     _RC6  equ     62
   311                           	global	_RC7
   312  003F                     _RC7  equ     63
   313                           	global	_RCIF
   314  0065                     _RCIF  equ     101
   315                           	global	_RD0
   316  0040                     _RD0  equ     64
   317                           	global	_RD1
   318  0041                     _RD1  equ     65
   319                           	global	_RD2
   320  0042                     _RD2  equ     66
   321                           	global	_RD3
   322  0043                     _RD3  equ     67
   323                           	global	_RD4
   324  0044                     _RD4  equ     68
   325                           	global	_RD5
   326  0045                     _RD5  equ     69
   327                           	global	_RD6
   328  0046                     _RD6  equ     70
   329                           	global	_RD7
   330  0047                     _RD7  equ     71
   331                           	global	_RE0
   332  0048                     _RE0  equ     72
   333                           	global	_RE1
   334  0049                     _RE1  equ     73
   335                           	global	_RE2
   336  004A                     _RE2  equ     74
   337                           	global	_RE3
   338  004B                     _RE3  equ     75
   339                           	global	_RP0
   340  001D                     _RP0  equ     29
   341                           	global	_RP1
   342  001E                     _RP1  equ     30
   343                           	global	_RX9
   344  00C6                     _RX9  equ     198
   345                           	global	_RX9D
   346  00C0                     _RX9D  equ     192
   347                           	global	_SPEN
   348  00C7                     _SPEN  equ     199
   349                           	global	_SREN
   350  00C5                     _SREN  equ     197
   351                           	global	_SSPEN
   352  00A5                     _SSPEN  equ     165
   353                           	global	_SSPIF
   354  0063                     _SSPIF  equ     99
   355                           	global	_SSPM0
   356  00A0                     _SSPM0  equ     160
   357                           	global	_SSPM1
   358  00A1                     _SSPM1  equ     161
   359                           	global	_SSPM2
   360  00A2                     _SSPM2  equ     162
   361                           	global	_SSPM3
   362  00A3                     _SSPM3  equ     163
   363                           	global	_SSPOV
   364  00A6                     _SSPOV  equ     166
   365                           	global	_T0IE
   366  005D                     _T0IE  equ     93
   367                           	global	_T0IF
   368  005A                     _T0IF  equ     90
   369                           	global	_T1CKPS0
   370  0084                     _T1CKPS0  equ     132
   371                           	global	_T1CKPS1
   372  0085                     _T1CKPS1  equ     133
   373                           	global	_T1GINV
   374  0087                     _T1GINV  equ     135
   375                           	global	_T1OSCEN
   376  0083                     _T1OSCEN  equ     131
   377                           	global	_T1SYNC
   378  0082                     _T1SYNC  equ     130
   379                           	global	_T2CKPS0
   380  0090                     _T2CKPS0  equ     144
   381                           	global	_T2CKPS1
   382  0091                     _T2CKPS1  equ     145
   383                           	global	_TMR1CS
   384  0081                     _TMR1CS  equ     129
   385                           	global	_TMR1GE
   386  0086                     _TMR1GE  equ     134
   387                           	global	_TMR1IF
   388  0060                     _TMR1IF  equ     96
   389                           	global	_TMR1ON
   390  0080                     _TMR1ON  equ     128
   391                           	global	_TMR2IF
   392  0061                     _TMR2IF  equ     97
   393                           	global	_TMR2ON
   394  0092                     _TMR2ON  equ     146
   395                           	global	_TO
   396  001C                     _TO  equ     28
   397                           	global	_TOUTPS0
   398  0093                     _TOUTPS0  equ     147
   399                           	global	_TOUTPS1
   400  0094                     _TOUTPS1  equ     148
   401                           	global	_TOUTPS2
   402  0095                     _TOUTPS2  equ     149
   403                           	global	_TOUTPS3
   404  0096                     _TOUTPS3  equ     150
   405                           	global	_TXIF
   406  0064                     _TXIF  equ     100
   407                           	global	_ULPWUIF
   408  006A                     _ULPWUIF  equ     106
   409                           	global	_WCOL
   410  00A7                     _WCOL  equ     167
   411                           	global	_ZERO
   412  001A                     _ZERO  equ     26
   413                           	global	_ADCON1
   414  009F                     _ADCON1  equ     159
   415                           	global	_ADRESL
   416  009E                     _ADRESL  equ     158
   417                           	global	_ECCPAS
   418  009C                     _ECCPAS  equ     156
   419                           	global	_IOCB
   420  0096                     _IOCB  equ     150
   421                           	global	_OPTION
   422  0081                     _OPTION  equ     129
   423                           	global	_OSCCON
   424  008F                     _OSCCON  equ     143
   425                           	global	_OSCTUNE
   426  0090                     _OSCTUNE  equ     144
   427                           	global	_PCON
   428  008E                     _PCON  equ     142
   429                           	global	_PIE1
   430  008C                     _PIE1  equ     140
   431                           	global	_PIE2
   432  008D                     _PIE2  equ     141
   433                           	global	_PR2
   434  0092                     _PR2  equ     146
   435                           	global	_PSTRCON
   436  009D                     _PSTRCON  equ     157
   437                           	global	_PWM1CON
   438  009B                     _PWM1CON  equ     155
   439                           	global	_SPBRG
   440  0099                     _SPBRG  equ     153
   441                           	global	_SPBRGH
   442  009A                     _SPBRGH  equ     154
   443                           	global	_SSPADD
   444  0093                     _SSPADD  equ     147
   445                           	global	_SSPCON2
   446  0091                     _SSPCON2  equ     145
   447                           	global	_SSPMSK
   448  0093                     _SSPMSK  equ     147
   449                           	global	_SSPSTAT
   450  0094                     _SSPSTAT  equ     148
   451                           	global	_TRISA
   452  0085                     _TRISA  equ     133
   453                           	global	_TRISB
   454  0086                     _TRISB  equ     134
   455                           	global	_TRISC
   456  0087                     _TRISC  equ     135
   457                           	global	_TRISD
   458  0088                     _TRISD  equ     136
   459                           	global	_TRISE
   460  0089                     _TRISE  equ     137
   461                           	global	_TXSTA
   462  0098                     _TXSTA  equ     152
   463                           	global	_VRCON
   464  0097                     _VRCON  equ     151
   465                           	global	_WPUB
   466  0095                     _WPUB  equ     149
   467                           	global	_ACKDT
   468  048D                     _ACKDT  equ     1165
   469                           	global	_ACKEN
   470  048C                     _ACKEN  equ     1164
   471                           	global	_ACKSTAT
   472  048E                     _ACKSTAT  equ     1166
   473                           	global	_ADFM
   474  04FF                     _ADFM  equ     1279
   475                           	global	_ADIE
   476  0466                     _ADIE  equ     1126
   477                           	global	_BCLIE
   478  046B                     _BCLIE  equ     1131
   479                           	global	_BF
   480  04A0                     _BF  equ     1184
   481                           	global	_BOR
   482  0470                     _BOR  equ     1136
   483                           	global	_BRG0
   484  04C8                     _BRG0  equ     1224
   485                           	global	_BRG1
   486  04C9                     _BRG1  equ     1225
   487                           	global	_BRG10
   488  04D2                     _BRG10  equ     1234
   489                           	global	_BRG11
   490  04D3                     _BRG11  equ     1235
   491                           	global	_BRG12
   492  04D4                     _BRG12  equ     1236
   493                           	global	_BRG13
   494  04D5                     _BRG13  equ     1237
   495                           	global	_BRG14
   496  04D6                     _BRG14  equ     1238
   497                           	global	_BRG15
   498  04D7                     _BRG15  equ     1239
   499                           	global	_BRG2
   500  04CA                     _BRG2  equ     1226
   501                           	global	_BRG3
   502  04CB                     _BRG3  equ     1227
   503                           	global	_BRG4
   504  04CC                     _BRG4  equ     1228
   505                           	global	_BRG5
   506  04CD                     _BRG5  equ     1229
   507                           	global	_BRG6
   508  04CE                     _BRG6  equ     1230
   509                           	global	_BRG7
   510  04CF                     _BRG7  equ     1231
   511                           	global	_BRG8
   512  04D0                     _BRG8  equ     1232
   513                           	global	_BRG9
   514  04D1                     _BRG9  equ     1233
   515                           	global	_BRGH
   516  04C2                     _BRGH  equ     1218
   517                           	global	_C1IE
   518  046D                     _C1IE  equ     1133
   519                           	global	_C2IE
   520  046E                     _C2IE  equ     1134
   521                           	global	_CCP1IE
   522  0462                     _CCP1IE  equ     1122
   523                           	global	_CCP2IE
   524  0468                     _CCP2IE  equ     1128
   525                           	global	_CKE
   526  04A6                     _CKE  equ     1190
   527                           	global	_CSRC
   528  04C7                     _CSRC  equ     1223
   529                           	global	_DA
   530  04A5                     _DA  equ     1189
   531                           	global	_ECCPAS0
   532  04E4                     _ECCPAS0  equ     1252
   533                           	global	_ECCPAS1
   534  04E5                     _ECCPAS1  equ     1253
   535                           	global	_ECCPAS2
   536  04E6                     _ECCPAS2  equ     1254
   537                           	global	_ECCPASE
   538  04E7                     _ECCPASE  equ     1255
   539                           	global	_EEIE
   540  046C                     _EEIE  equ     1132
   541                           	global	_GCEN
   542  048F                     _GCEN  equ     1167
   543                           	global	_HTS
   544  047A                     _HTS  equ     1146
   545                           	global	_INTEDG
   546  040E                     _INTEDG  equ     1038
   547                           	global	_IOCB0
   548  04B0                     _IOCB0  equ     1200
   549                           	global	_IOCB1
   550  04B1                     _IOCB1  equ     1201
   551                           	global	_IOCB2
   552  04B2                     _IOCB2  equ     1202
   553                           	global	_IOCB3
   554  04B3                     _IOCB3  equ     1203
   555                           	global	_IOCB4
   556  04B4                     _IOCB4  equ     1204
   557                           	global	_IOCB5
   558  04B5                     _IOCB5  equ     1205
   559                           	global	_IOCB6
   560  04B6                     _IOCB6  equ     1206
   561                           	global	_IOCB7
   562  04B7                     _IOCB7  equ     1207
   563                           	global	_IRCF0
   564  047C                     _IRCF0  equ     1148
   565                           	global	_IRCF1
   566  047D                     _IRCF1  equ     1149
   567                           	global	_IRCF2
   568  047E                     _IRCF2  equ     1150
   569                           	global	_LTS
   570  0479                     _LTS  equ     1145
   571                           	global	_OSFIE
   572  046F                     _OSFIE  equ     1135
   573                           	global	_OSTS
   574  047B                     _OSTS  equ     1147
   575                           	global	_PDC0
   576  04D8                     _PDC0  equ     1240
   577                           	global	_PDC1
   578  04D9                     _PDC1  equ     1241
   579                           	global	_PDC2
   580  04DA                     _PDC2  equ     1242
   581                           	global	_PDC3
   582  04DB                     _PDC3  equ     1243
   583                           	global	_PDC4
   584  04DC                     _PDC4  equ     1244
   585                           	global	_PDC5
   586  04DD                     _PDC5  equ     1245
   587                           	global	_PDC6
   588  04DE                     _PDC6  equ     1246
   589                           	global	_PEN
   590  048A                     _PEN  equ     1162
   591                           	global	_POR
   592  0471                     _POR  equ     1137
   593                           	global	_PRSEN
   594  04DF                     _PRSEN  equ     1247
   595                           	global	_PS0
   596  0408                     _PS0  equ     1032
   597                           	global	_PS1
   598  0409                     _PS1  equ     1033
   599                           	global	_PS2
   600  040A                     _PS2  equ     1034
   601                           	global	_PSA
   602  040B                     _PSA  equ     1035
   603                           	global	_PSSAC0
   604  04E2                     _PSSAC0  equ     1250
   605                           	global	_PSSAC1
   606  04E3                     _PSSAC1  equ     1251
   607                           	global	_PSSBD0
   608  04E0                     _PSSBD0  equ     1248
   609                           	global	_PSSBD1
   610  04E1                     _PSSBD1  equ     1249
   611                           	global	_RABPU
   612  040F                     _RABPU  equ     1039
   613                           	global	_RBPU
   614  040F                     _RBPU  equ     1039
   615                           	global	_RCEN
   616  048B                     _RCEN  equ     1163
   617                           	global	_RCIE
   618  0465                     _RCIE  equ     1125
   619                           	global	_RSEN
   620  0489                     _RSEN  equ     1161
   621                           	global	_RW
   622  04A2                     _RW  equ     1186
   623                           	global	_SBOREN
   624  0474                     _SBOREN  equ     1140
   625                           	global	_SCS
   626  0478                     _SCS  equ     1144
   627                           	global	_SEN
   628  0488                     _SEN  equ     1160
   629                           	global	_SENDB
   630  04C3                     _SENDB  equ     1219
   631                           	global	_SMP
   632  04A7                     _SMP  equ     1191
   633                           	global	_SSPIE
   634  0463                     _SSPIE  equ     1123
   635                           	global	_START
   636  04A3                     _START  equ     1187
   637                           	global	_STOP
   638  04A4                     _STOP  equ     1188
   639                           	global	_STRA
   640  04E8                     _STRA  equ     1256
   641                           	global	_STRB
   642  04E9                     _STRB  equ     1257
   643                           	global	_STRC
   644  04EA                     _STRC  equ     1258
   645                           	global	_STRD
   646  04EB                     _STRD  equ     1259
   647                           	global	_STRSYNC
   648  04EC                     _STRSYNC  equ     1260
   649                           	global	_SYNC
   650  04C4                     _SYNC  equ     1220
   651                           	global	_T0CS
   652  040D                     _T0CS  equ     1037
   653                           	global	_T0SE
   654  040C                     _T0SE  equ     1036
   655                           	global	_TMR1IE
   656  0460                     _TMR1IE  equ     1120
   657                           	global	_TMR2IE
   658  0461                     _TMR2IE  equ     1121
   659                           	global	_TRISA0
   660  0428                     _TRISA0  equ     1064
   661                           	global	_TRISA1
   662  0429                     _TRISA1  equ     1065
   663                           	global	_TRISA2
   664  042A                     _TRISA2  equ     1066
   665                           	global	_TRISA3
   666  042B                     _TRISA3  equ     1067
   667                           	global	_TRISA4
   668  042C                     _TRISA4  equ     1068
   669                           	global	_TRISA5
   670  042D                     _TRISA5  equ     1069
   671                           	global	_TRISA6
   672  042E                     _TRISA6  equ     1070
   673                           	global	_TRISA7
   674  042F                     _TRISA7  equ     1071
   675                           	global	_TRISB0
   676  0430                     _TRISB0  equ     1072
   677                           	global	_TRISB1
   678  0431                     _TRISB1  equ     1073
   679                           	global	_TRISB2
   680  0432                     _TRISB2  equ     1074
   681                           	global	_TRISB3
   682  0433                     _TRISB3  equ     1075
   683                           	global	_TRISB4
   684  0434                     _TRISB4  equ     1076
   685                           	global	_TRISB5
   686  0435                     _TRISB5  equ     1077
   687                           	global	_TRISB6
   688  0436                     _TRISB6  equ     1078
   689                           	global	_TRISB7
   690  0437                     _TRISB7  equ     1079
   691                           	global	_TRISC0
   692  0438                     _TRISC0  equ     1080
   693                           	global	_TRISC1
   694  0439                     _TRISC1  equ     1081
   695                           	global	_TRISC2
   696  043A                     _TRISC2  equ     1082
   697                           	global	_TRISC3
   698  043B                     _TRISC3  equ     1083
   699                           	global	_TRISC4
   700  043C                     _TRISC4  equ     1084
   701                           	global	_TRISC5
   702  043D                     _TRISC5  equ     1085
   703                           	global	_TRISC6
   704  043E                     _TRISC6  equ     1086
   705                           	global	_TRISC7
   706  043F                     _TRISC7  equ     1087
   707                           	global	_TRISD0
   708  0440                     _TRISD0  equ     1088
   709                           	global	_TRISD1
   710  0441                     _TRISD1  equ     1089
   711                           	global	_TRISD2
   712  0442                     _TRISD2  equ     1090
   713                           	global	_TRISD3
   714  0443                     _TRISD3  equ     1091
   715                           	global	_TRISD4
   716  0444                     _TRISD4  equ     1092
   717                           	global	_TRISD5
   718  0445                     _TRISD5  equ     1093
   719                           	global	_TRISD6
   720  0446                     _TRISD6  equ     1094
   721                           	global	_TRISD7
   722  0447                     _TRISD7  equ     1095
   723                           	global	_TRISE0
   724  0448                     _TRISE0  equ     1096
   725                           	global	_TRISE1
   726  0449                     _TRISE1  equ     1097
   727                           	global	_TRISE2
   728  044A                     _TRISE2  equ     1098
   729                           	global	_TRISE3
   730  044B                     _TRISE3  equ     1099
   731                           	global	_TRMT
   732  04C1                     _TRMT  equ     1217
   733+                          	global	_TUN0
   734+ 0480                     _TUN0  equ     1152
   735                           	global	_TUN1
   736  0481                     _TUN1  equ     1153
   737                           	global	_TUN2
   738  0482                     _TUN2  equ     1154
   739                           	global	_TUN3
   740  0483                     _TUN3  equ     1155
   741                           	global	_TUN4
   742  0484                     _TUN4  equ     1156
   743                           	global	_TX9
   744  04C6                     _TX9  equ     1222
   745                           	global	_TX9D
   746  04C0                     _TX9D  equ     1216
   747                           	global	_TXEN
   748  04C5                     _TXEN  equ     1221
   749                           	global	_TXIE
   750  0464                     _TXIE  equ     1124
   751                           	global	_UA
   752  04A1                     _UA  equ     1185
   753                           	global	_ULPWUE
   754  0475                     _ULPWUE  equ     1141
   755                           	global	_ULPWUIE
   756  046A                     _ULPWUIE  equ     1130
   757                           	global	_VCFG0
   758  04FC                     _VCFG0  equ     1276
   759                           	global	_VCFG1
   760  04FD                     _VCFG1  equ     1277
   761                           	global	_VR0
   762  04B8                     _VR0  equ     1208
   763                           	global	_VR1
   764  04B9                     _VR1  equ     1209
   765                           	global	_VR2
   766  04BA                     _VR2  equ     1210
   767                           	global	_VR3
   768  04BB                     _VR3  equ     1211
   769                           	global	_VREN
   770  04BF                     _VREN  equ     1215
   771                           	global	_VROE
   772  04BE                     _VROE  equ     1214
   773                           	global	_VRR
   774  04BD                     _VRR  equ     1213
   775                           	global	_VRSS
   776  04BC                     _VRSS  equ     1212
   777                           	global	_WPUB0
   778  04A8                     _WPUB0  equ     1192
   779                           	global	_WPUB1
   780  04A9                     _WPUB1  equ     1193
   781                           	global	_WPUB2
   782  04AA                     _WPUB2  equ     1194
   783                           	global	_WPUB3
   784  04AB                     _WPUB3  equ     1195
   785                           	global	_WPUB4
   786  04AC                     _WPUB4  equ     1196
   787                           	global	_WPUB5
   788  04AD                     _WPUB5  equ     1197
   789                           	global	_WPUB6
   790  04AE                     _WPUB6  equ     1198
   791                           	global	_WPUB7
   792  04AF                     _WPUB7  equ     1199
   793                           	global	_CM1CON0
   794  0107                     _CM1CON0  equ     263
   795                           	global	_CM2CON0
   796  0108                     _CM2CON0  equ     264
   797                           	global	_CM2CON1
   798  0109                     _CM2CON1  equ     265
   799                           	global	_EEADR
   800  010D                     _EEADR  equ     269
   801                           	global	_EEADRH
   802  010F                     _EEADRH  equ     271
   803                           	global	_EEADRL
   804  010D                     _EEADRL  equ     269
   805                           	global	_EEDAT
   806  010C                     _EEDAT  equ     268
   807                           	global	_EEDATA
   808  010C                     _EEDATA  equ     268
   809                           	global	_EEDATH
   810  010E                     _EEDATH  equ     270
   811                           	global	_WDTCON
   812  0105                     _WDTCON  equ     261
   813                           	global	_C1CH0
   814  0838                     _C1CH0  equ     2104
   815                           	global	_C1CH1
   816  0839                     _C1CH1  equ     2105
   817                           	global	_C1OE
   818  083D                     _C1OE  equ     2109
   819                           	global	_C1ON
   820  083F                     _C1ON  equ     2111
   821                           	global	_C1OUT
   822  083E                     _C1OUT  equ     2110
   823                           	global	_C1POL
   824  083C                     _C1POL  equ     2108
   825                           	global	_C1R
   826  083A                     _C1R  equ     2106
   827                           	global	_C1RSEL
   828  084D                     _C1RSEL  equ     2125
   829                           	global	_C2CH0
   830  0840                     _C2CH0  equ     2112
   831                           	global	_C2CH1
   832  0841                     _C2CH1  equ     2113
   833                           	global	_C2OE
   834  0845                     _C2OE  equ     2117
   835                           	global	_C2ON
   836  0847                     _C2ON  equ     2119
   837                           	global	_C2OUT
   838  0846                     _C2OUT  equ     2118
   839                           	global	_C2POL
   840  0844                     _C2POL  equ     2116
   841                           	global	_C2R
   842  0842                     _C2R  equ     2114
   843                           	global	_C2RSEL
   844  084C                     _C2RSEL  equ     2124
   845                           	global	_C2SYNC
   846  0848                     _C2SYNC  equ     2120
   847                           	global	_MC1OUT
   848  084F                     _MC1OUT  equ     2127
   849                           	global	_MC2OUT
   850  084E                     _MC2OUT  equ     2126
   851                           	global	_SWDTEN
   852  0828                     _SWDTEN  equ     2088
   853                           	global	_T1GSS
   854  0849                     _T1GSS  equ     2121
   855                           	global	_WDTPS0
   856  0829                     _WDTPS0  equ     2089
   857                           	global	_WDTPS1
   858  082A                     _WDTPS1  equ     2090
   859                           	global	_WDTPS2
   860  082B                     _WDTPS2  equ     2091
   861                           	global	_WDTPS3
   862  082C                     _WDTPS3  equ     2092
   863                           	global	_ANSEL
   864  0188                     _ANSEL  equ     392
   865                           	global	_ANSELH
   866  0189                     _ANSELH  equ     393
   867                           	global	_BAUDCTL
   868  0187                     _BAUDCTL  equ     391
   869                           	global	_EECON1
   870  018C                     _EECON1  equ     396
   871                           	global	_EECON2
   872  018D                     _EECON2  equ     397
   873                           	global	_SRCON
   874  0185                     _SRCON  equ     389
   875                           	global	_ABDEN
   876  0C38                     _ABDEN  equ     3128
   877                           	global	_ABDOVF
   878  0C3F                     _ABDOVF  equ     3135
   879                           	global	_ANS0
   880  0C40                     _ANS0  equ     3136
   881                           	global	_ANS1
   882  0C41                     _ANS1  equ     3137
   883                           	global	_ANS10
   884  0C4A                     _ANS10  equ     3146
   885                           	global	_ANS11
   886  0C4B                     _ANS11  equ     3147
   887                           	global	_ANS12
   888  0C4C                     _ANS12  equ     3148
   889                           	global	_ANS13
   890  0C4D                     _ANS13  equ     3149
   891                           	global	_ANS2
   892  0C42                     _ANS2  equ     3138
   893                           	global	_ANS3
   894  0C43                     _ANS3  equ     3139
   895                           	global	_ANS4
   896  0C44                     _ANS4  equ     3140
   897                           	global	_ANS5
   898  0C45                     _ANS5  equ     3141
   899                           	global	_ANS6
   900  0C46                     _ANS6  equ     3142
   901                           	global	_ANS7
   902  0C47                     _ANS7  equ     3143
   903                           	global	_ANS8
   904  0C48                     _ANS8  equ     3144
   905                           	global	_ANS9
   906  0C49                     _ANS9  equ     3145
   907                           	global	_BRG16
   908  0C3B                     _BRG16  equ     3131
   909                           	global	_C1SEN
   910  0C2D                     _C1SEN  equ     3117
   911                           	global	_C2REN
   912  0C2C                     _C2REN  equ     3116
   913                           	global	_EEPGD
   914  0C67                     _EEPGD  equ     3175
   915                           	global	_FVREN
   916  0C28                     _FVREN  equ     3112
   917                           	global	_PULSR
   918  0C2A                     _PULSR  equ     3114
   919                           	global	_PULSS
   920  0C2B                     _PULSS  equ     3115
   921                           	global	_RCIDL
   922  0C3E                     _RCIDL  equ     3134
   923                           	global	_RD
   924  0C60                     _RD  equ     3168
   925                           	global	_SCKP
   926  0C3C                     _SCKP  equ     3132
   927                           	global	_SR0
   928  0C2E                     _SR0  equ     3118
   929                           	global	_SR1
   930  0C2F                     _SR1  equ     3119
   931                           	global	_WR
   932  0C61                     _WR  equ     3169
   933                           	global	_WREN
   934  0C62                     _WREN  equ     3170
   935                           	global	_WRERR
   936  0C63                     _WRERR  equ     3171
   937                           	global	_WUE
   938  0C39                     _WUE  equ     3129
   939                           	file	"4 segment addition.as"
   940                           	line	#
   941                           psect cinit,class=CODE,delta=2
   942                           global start_initialization
   943  01F3                     start_initialization:
   944                           
   945                           psect	bssCOMMON,class=COMMON,space=1
   946                           global __pbssCOMMON
   947  0079                     __pbssCOMMON:
   948  0079                     _sum:
   949  0079                            ds      2
   950                           
   951                           psect	bssBANK0,class=BANK0,space=1
   952                           global __pbssBANK0
   953  0036                     __pbssBANK0:
   954  0036                     _count:
   955  0036                            ds      2
   956                           
   957  0038                     _i:
   958  0038                            ds      2
   959                           
   960  003A                     _j:
   961  003A                            ds      2
   962                           
   963  003C                     _var:
   964  003C                            ds      2
   965                           
   966                           psect	dataBANK0,class=BANK0,space=1
   967                           global __pdataBANK0
   968  002C                     __pdataBANK0:
   969                           	file	"C:\Users\gowth\Documents\PIC Programs\Keypad\4 segment addition\addition.c"
   970                           	line	17
   971  002C                     _number:
   972  002C                            ds      10
   973                           
   974                           ; Clear objects allocated to COMMON
   975                           psect cinit,class=CODE,delta=2
   976  01F3  01F9               	clrf	((__pbssCOMMON)+0)&07Fh
   977  01F4  01FA               	clrf	((__pbssCOMMON)+1)&07Fh
   978                           ; Clear objects allocated to BANK0
   979                           psect cinit,class=CODE,delta=2
   980  01F5  01B6               	clrf	((__pbssBANK0)+0)&07Fh
   981  01F6  01B7               	clrf	((__pbssBANK0)+1)&07Fh
   982  01F7  01B8               	clrf	((__pbssBANK0)+2)&07Fh
   983  01F8  01B9               	clrf	((__pbssBANK0)+3)&07Fh
   984  01F9  01BA               	clrf	((__pbssBANK0)+4)&07Fh
   985  01FA  01BB               	clrf	((__pbssBANK0)+5)&07Fh
   986  01FB  01BC               	clrf	((__pbssBANK0)+6)&07Fh
   987  01FC  01BD               	clrf	((__pbssBANK0)+7)&07Fh
   988                           global btemp
   989                           psect inittext,class=CODE,delta=2
   990                           global init_fetch,btemp
   991                           ;	Called with low address in FSR and high address in W
   992  01E2                     init_fetch:
   993  01E2  087E               	movf btemp,w
   994  01E3  008A               	movwf pclath
   995  01E4  087F               	movf btemp+1,w
   996  01E5  0082               	movwf pc
   997                           global init_ram
   998                           ;Called with:
   999                           ;	high address of idata address in btemp 
  1000                           ;	low address of idata address in btemp+1 
  1001                           ;	low address of data in FSR
  1002                           ;	high address + 1 of data in btemp-1
  1003  01E6                     init_ram:
  1004  01E6  21E2  120A  118A   	fcall init_fetch
  1005  01E9  0080               	movwf indf,f
  1006  01EA  0A84               	incf fsr,f
  1007  01EB  0804               	movf fsr,w
  1008  01EC  067D               	xorwf btemp-1,w
  1009  01ED  1903               	btfsc status,2
  1010  01EE  3400               	retlw 0
  1011  01EF  0AFF               	incf btemp+1,f
  1012  01F0  1903               	btfsc status,2
  1013  01F1  0AFE               	incf btemp,f
  1014  01F2  29E6               	goto init_ram
  1015                           ; Initialize objects allocated to BANK0
  1016                           psect cinit,class=CODE,delta=2
  1017                           global init_ram, __pidataBANK0
  1018  01FD  1383               	bcf	status, 7	;select IRP bank0
  1019  01FE  3036               	movlw low(__pdataBANK0+10)
  1020  01FF  00FD               	movwf btemp-1,f
  1021  0200  3001               	movlw high(__pidataBANK0)
  1022  0201  00FE               	movwf btemp,f
  1023  0202  30C7               	movlw low(__pidataBANK0)
  1024  0203  00FF               	movwf btemp+1,f
  1025  0204  302C               	movlw low(__pdataBANK0)
  1026  0205  0084               	movwf fsr,f
  1027  0206  120A  118A  21E6   	fcall init_ram
              120A  118A         
  1028                           psect cinit,class=CODE,delta=2
  1029                           global end_of_initialization
  1030                           
  1031                           ;End of C runtime variable initationation code
  1032                           
  1033  020B                     end_of_initialization:
  1034  020B  0183               clrf status
  1035  020C  120A  118A  2BE2   ljmp _main	;jump to C main() function
  1036                           psect	cstackCOMMON,class=COMMON,space=1
  1037                           global __pcstackCOMMON
  1038  0070                     __pcstackCOMMON:
  1039                           	global	??_time_delay
  1040  0070                     ??_time_delay: ;@ 0x0
  1041                           	global	??___awdiv
  1042  0070                     ??___awdiv: ;@ 0x0
  1043                           	global	??___awmod
  1044  0070                     ??___awmod: ;@ 0x0
  1045                           	global	?_time_delay
  1046  0070                     ?_time_delay: ;@ 0x0
  1047                           	global	time_delay@x
  1048  0070                     time_delay@x:	; 2 bytes @ 0x0
  1049  0070                     	ds	1
  1050                           	global	___awmod@sign
  1051  0071                     ___awmod@sign:	; 1 bytes @ 0x1
  1052                           	global	___awdiv@counter
  1053  0071                     ___awdiv@counter:	; 1 bytes @ 0x1
  1054  0071                     	ds	1
  1055                           	global	___awmod@counter
  1056  0072                     ___awmod@counter:	; 1 bytes @ 0x2
  1057                           	global	___awdiv@sign
  1058  0072                     ___awdiv@sign:	; 1 bytes @ 0x2
  1059  0072                     	ds	1
  1060                           	global	??_main
  1061  0073                     ??_main: ;@ 0x3
  1062                           	global	?___awmod
  1063  0073                     ?___awmod: ;@ 0x3
  1064                           	global	___awmod@dividend
  1065  0073                     ___awmod@dividend:	; 2 bytes @ 0x3
  1066                           	global	___awdiv@quotient
  1067  0073                     ___awdiv@quotient:	; 2 bytes @ 0x3
  1068  0073                     	ds	2
  1069                           	global	___awmod@divisor
  1070  0075                     ___awmod@divisor:	; 2 bytes @ 0x5
  1071  0075                     	ds	2
  1072                           	global	??_addition
  1073  0077                     ??_addition: ;@ 0x7
  1074                           	global	??_display
  1075  0077                     ??_display: ;@ 0x7
  1076  0077                     	ds	1
  1077                           	global	?_addition
  1078  0078                     ?_addition: ;@ 0x8
  1079  0078                     	ds	1
  1080                           	global	?_main
  1081  0079                     ?_main: ;@ 0x9
  1082                           psect	cstackBANK0,class=BANK0,space=1
  1083                           global __pcstackBANK0
  1084  003E                     __pcstackBANK0:
  1085                           	global	?___awdiv
  1086  003E                     ?___awdiv: ;@ 0x0
  1087                           	global	___awdiv@dividend
  1088  003E                     ___awdiv@dividend:	; 2 bytes @ 0x0
  1089  003E                     	ds	2
  1090                           	global	___awdiv@divisor
  1091  0040                     ___awdiv@divisor:	; 2 bytes @ 0x2
  1092  0040                     	ds	2
  1093                           	global	?_display
  1094  0042                     ?_display: ;@ 0x4
  1095                           	global	display@var
  1096  0042                     display@var:	; 2 bytes @ 0x4
  1097  0042                     	ds	2
  1098                           ;Data sizes: Strings 0, constant 0, data 10, bss 10, persistent 12 stack 0
  1099                           ;Auto spaces:   Size  Autos    Used
  1100                           ; COMMON          14      9      11
  1101                           ; BANK0           80      6      36
  1102                           ; BANK1           80      0       0
  1103                           ; BANK3           96      0       0
  1104                           ; BANK2           96      0       0
  1105                           
  1106                           
  1107                           ;Pointer list with targets:
  1108                           
  1109                           ;?___awdiv	int  size(1); Largest target is 0
  1110                           ;?___awmod	int  size(1); Largest target is 0
  1111                           
  1112                           
  1113                           ;Main: autosize = 0, tempsize = 0, incstack = 0, save=0
  1114                           
  1115                           
  1116                           ;Call graph:                      Base Space Used Autos Args Refs Density
  1117                           ;_main                                                0    0 1272   0.00
  1118                           ;            _display
  1119                           ;           _addition
  1120                           ;  _addition                                          1    0  588   0.00
  1121                           ;                                    7 COMMO    1
  1122                           ;            ___awdiv
  1123                           ;            ___awmod
  1124                           ;         _time_delay
  1125                           ;  _display                                           2    2  684   0.00
  1126                           ;                                    7 COMMO    2
  1127                           ;                                    4 BANK0    2
  1128                           ;            ___awdiv
  1129                           ;            ___awmod
  1130                           ;         _time_delay
  1131                           ;    _time_delay                                      0    2   16   0.00
  1132                           ;                                    0 COMMO    2
  1133                           ;    ___awdiv                                         5    4  354   0.00
  1134                           ;                                    0 COMMO    5
  1135                           ;                                    0 BANK0    4
  1136                           ;    ___awmod                                         3    4  218   0.00
  1137                           ;                                    0 COMMO    7
  1138                           ; Estimated maximum call depth 2
  1139                           ; Address spaces:
  1140                           
  1141                           ;Name               Size   Autos  Total    Cost      Usage
  1142                           ;BITCOMMON            E      0       0       0        0.0%
  1143                           ;CODE                 0      0       0       0        0.0%
  1144                           ;NULL                 0      0       0       0        0.0%
  1145                           ;COMMON               E      9       B       1       78.6%
  1146                           ;SFR0                 0      0       0       1        0.0%
  1147                           ;BITSFR0              0      0       0       1        0.0%
  1148                           ;BITSFR1              0      0       0       2        0.0%
  1149                           ;SFR1                 0      0       0       2        0.0%
  1150                           ;ABS                  0      0      2F       2        0.0%
  1151                           ;STACK                0      0       0       3        0.0%
  1152                           ;BITBANK0            50      0       0       4        0.0%
  1153                           ;SFR3                 0      0       0       4        0.0%
  1154                           ;BITSFR3              0      0       0       4        0.0%
  1155                           ;BANK0               50      6      24       5       45.0%
  1156                           ;BITSFR2              0      0       0       5        0.0%
  1157                           ;SFR2                 0      0       0       5        0.0%
  1158                           ;BITBANK1            50      0       0       6        0.0%
  1159                           ;BANK1               50      0       0       7        0.0%
  1160                           ;BITBANK3            60      0       0       8        0.0%
  1161                           ;BANK3               60      0       0       9        0.0%
  1162                           ;BITBANK2            60      0       0      10        0.0%
  1163                           ;BANK2               60      0       0      11        0.0%
  1164                           ;DATA                 0      0      2F      12        0.0%
  1165                           ;EEDATA             100      0       0    1000        0.0%
  1166                           
  1167                           	global	_main
  1168                           psect	maintext,local,class=CODE,delta=2
  1169                           global __pmaintext
  1170  03E2                     __pmaintext:
  1171                           
  1172                           ; *************** function _main *****************
  1173                           ; Defined at:
  1174                           ;		line 229 in file "C:\Users\gowth\Documents\PIC Programs\Keypad\4 segment addition\add
                                 ition.c"
  1175                           ; Parameters:    Size  Location     Type
  1176                           ;		None
  1177                           ; Auto vars:     Size  Location     Type
  1178                           ;		None
  1179                           ; Return value:  Size  Location     Type
  1180                           ;		None               void
  1181                           ; Registers used:
  1182                           ;		wreg, fsr0l, fsr0h, status,2, status,0, pclath, cstack
  1183                           ; Tracked objects:
  1184                           ;		On entry : 17F/0
  1185                           ;		On exit  : 0/0
  1186                           ;		Unchanged: 0/0
  1187                           ; Data sizes:     COMMON   BANK0   BANK1   BANK3   BANK2
  1188                           ;      Locals:         0       0       0       0       0
  1189                           ;      Temp:     0
  1190                           ;      Total:    0
  1191                           ; This function calls:
  1192                           ;		_display
  1193                           ;		_addition
  1194                           ; This function is called by:
  1195                           ;		Startup code after reset
  1196                           ; This function uses a non-reentrant model
  1197                           ; 
  1198                           psect	maintext
  1199                           	file	"C:\Users\gowth\Documents\PIC Programs\Keypad\4 segment addition\addition.c"
  1200                           	line	229
  1201                           	global	__size_of_main
  1202  0169                     	__size_of_main	equ	__end_of_main-_main
  1203                           ;addition.c: 228: void main()
  1204                           ;addition.c: 229: {
  1205                           	
  1206  03E2                     _main:	
  1207                           	opt stack 8
  1208                           ; Regs used in _main: [wreg-fsr0h+status,2+status,0+pclath+cstack]
  1209                           	line	231
  1210                           	
  1211  03E2                     l30001057:	
  1212                           ;addition.c: 231: TRISB=0X07;
  1213  03E2  3007               	movlw	(07h)
  1214  03E3  1683               	bsf	status, 5	;RP0=1, select bank1
  1215  03E4  1303               	bcf	status, 6	;RP1=0, select bank1
  1216  03E5  0086               	movwf	(134)^080h	;volatile
  1217                           	
  1218  03E6                     l30001058:	
  1219                           	line	232
  1220                           ;addition.c: 232: TRISC=0X00;
  1221  03E6  1003               	clrc
  1222  03E7  3000               	movlw	0
  1223  03E8  1803               	btfsc	status,0
  1224  03E9  3001               	movlw	1
  1225  03EA  0087               	movwf	(135)^080h	;volatile
  1226                           	
  1227  03EB                     l30001059:	
  1228                           	line	233
  1229                           ;addition.c: 233: TRISD=0X00;
  1230  03EB  1003               	clrc
  1231  03EC  3000               	movlw	0
  1232  03ED  1803               	btfsc	status,0
  1233  03EE  3001               	movlw	1
  1234  03EF  0088               	movwf	(136)^080h	;volatile
  1235                           	
  1236  03F0                     l30001060:	
  1237                           	line	234
  1238                           ;addition.c: 234: TRISE=0X00;
  1239  03F0  1003               	clrc
  1240  03F1  3000               	movlw	0
  1241  03F2  1803               	btfsc	status,0
  1242  03F3  3001               	movlw	1
  1243  03F4  0089               	movwf	(137)^080h	;volatile
  1244                           	
  1245  03F5                     l30001061:	
  1246                           	line	236
  1247                           ;addition.c: 236: PORTB=0X00;
  1248  03F5  1003               	clrc
  1249  03F6  3000               	movlw	0
  1250  03F7  1803               	btfsc	status,0
  1251  03F8  3001               	movlw	1
  1252  03F9  1283               	bcf	status, 5	;RP0=0, select bank0
  1253  03FA  1303               	bcf	status, 6	;RP1=0, select bank0
  1254  03FB  0086               	movwf	(6)	;volatile
  1255                           	
  1256  03FC                     l30001062:	
  1257                           	line	237
  1258                           ;addition.c: 237: PORTC=0X00;
  1259  03FC  1003               	clrc
  1260  03FD  3000               	movlw	0
  1261  03FE  1803               	btfsc	status,0
  1262  03FF  3001               	movlw	1
  1263  0400  0087               	movwf	(7)	;volatile
  1264                           	
  1265  0401                     l30001063:	
  1266                           	line	238
  1267                           ;addition.c: 238: PORTD=0X00;
  1268  0401  1003               	clrc
  1269  0402  3000               	movlw	0
  1270  0403  1803               	btfsc	status,0
  1271  0404  3001               	movlw	1
  1272  0405  0088               	movwf	(8)	;volatile
  1273                           	
  1274  0406                     l30001064:	
  1275                           	line	239
  1276                           ;addition.c: 239: PORTE=0X00;
  1277  0406  1003               	clrc
  1278  0407  3000               	movlw	0
  1279  0408  1803               	btfsc	status,0
  1280  0409  3001               	movlw	1
  1281  040A  0089               	movwf	(9)	;volatile
  1282                           	
  1283  040B                     l30001065:	
  1284                           	line	241
  1285                           ;addition.c: 241: ANSEL=0;
  1286  040B  1003               	clrc
  1287  040C  3000               	movlw	0
  1288  040D  1803               	btfsc	status,0
  1289  040E  3001               	movlw	1
  1290  040F  1683               	bsf	status, 5	;RP0=1, select bank3
  1291  0410  1703               	bsf	status, 6	;RP1=1, select bank3
  1292  0411  0088               	movwf	(392)^0180h
  1293                           	
  1294  0412                     l30001066:	
  1295                           	line	242
  1296                           ;addition.c: 242: ANSELH=0;
  1297  0412  1003               	clrc
  1298  0413  3000               	movlw	0
  1299  0414  1803               	btfsc	status,0
  1300  0415  3001               	movlw	1
  1301  0416  0089               	movwf	(393)^0180h
  1302                           	
  1303  0417                     l30001067:	
  1304                           	line	247
  1305                           ;addition.c: 245: {
  1306                           ;addition.c: 247: display(var);
  1307  0417  1283               	bcf	status, 5	;RP0=0, select bank0
  1308  0418  1303               	bcf	status, 6	;RP1=0, select bank0
  1309  0419  083D               	movf	(_var+1),w
  1310  041A  01C3               	clrf	(?_display+1)
  1311  041B  07C3               	addwf	(?_display+1)
  1312  041C  083C               	movf	(_var),w
  1313  041D  01C2               	clrf	(?_display)
  1314  041E  07C2               	addwf	(?_display)
  1315                           
  1316  041F  120A  118A  254B   	fcall	_display
              120A  118A         
  1317                           	
  1318  0424                     l30001068:	
  1319                           	line	250
  1320                           ;addition.c: 250: RB3=1,RB4=0,RB5=0,RB6=0;
  1321  0424  1283               	bcf	status, 5	;RP0=0, select bank0
  1322  0425  1303               	bcf	status, 6	;RP1=0, select bank0
  1323  0426  1586               	bsf	(51/8),(51)&7
  1324                           	
  1325  0427                     l30001069:	
  1326  0427  1206               	bcf	(52/8),(52)&7
  1327                           	
  1328  0428                     l30001070:	
  1329  0428  1286               	bcf	(53/8),(53)&7
  1330                           	
  1331  0429                     l30001071:	
  1332  0429  1306               	bcf	(54/8),(54)&7
  1333                           	
  1334  042A                     l30001072:	
  1335                           	line	251
  1336                           ;addition.c: 251: if(RB0==1)
  1337  042A  1C06               	btfss	(48/8),(48)&7
  1338  042B  2C2D               	goto	u1241
  1339  042C  2C2E               	goto	u1240
  1340  042D                     u1241:
  1341  042D  2C44               	goto	l33
  1342  042E                     u1240:
  1343                           	
  1344  042E                     l30001073:	
  1345                           	line	253
  1346                           ;addition.c: 252: {
  1347                           ;addition.c: 253: var=1;
  1348  042E  3001               	movlw	low(01h)
  1349  042F  00BC               	movwf	(_var)
  1350  0430  3000               	movlw	high(01h)
  1351  0431  00BD               	movwf	((_var))+1
  1352                           	
  1353  0432                     l30001074:	
  1354                           	line	254
  1355                           ;addition.c: 254: sum=sum+var;
  1356  0432  0879               	movf	(_sum),w
  1357  0433  3E01               	addlw	low(01h)
  1358  0434  00F9               	movwf	(_sum)
  1359  0435  087A               	movf	(_sum+1),w
  1360  0436  1803               	skipnc
  1361  0437  3E01               	addlw	1
  1362  0438  3E00               	addlw	high(01h)
  1363  0439  00FA               	movwf	1+(_sum)
  1364                           	
  1365  043A                     l30001075:	
  1366                           	line	255
  1367                           ;addition.c: 255: count++;
  1368  043A  3001               	movlw	low(01h)
  1369  043B  07B6               	addwf	(_count),f
  1370  043C  1803               	skipnc
  1371  043D  0AB7               	incf	(_count+1),f
  1372  043E  3000               	movlw	high(01h)
  1373  043F  07B7               	addwf	(_count+1),f
  1374                           	
  1375  0440                     l34:	
  1376                           	line	256
  1377  0440  1806               	btfsc	(48/8),(48)&7
  1378  0441  2C43               	goto	u1251
  1379  0442  2C44               	goto	u1250
  1380  0443                     u1251:
  1381  0443  2C40               	goto	l34
  1382  0444                     u1250:
  1383                           	
  1384  0444                     l33:	
  1385                           	line	258
  1386                           ;addition.c: 257: }
  1387                           ;addition.c: 258: if(RB1==1)
  1388  0444  1C86               	btfss	(49/8),(49)&7
  1389  0445  2C47               	goto	u1261
  1390  0446  2C48               	goto	u1260
  1391  0447                     u1261:
  1392  0447  2C5E               	goto	l37
  1393  0448                     u1260:
  1394                           	
  1395  0448                     l30001076:	
  1396                           	line	260
  1397                           ;addition.c: 259: {
  1398                           ;addition.c: 260: var=2;
  1399  0448  3002               	movlw	low(02h)
  1400  0449  00BC               	movwf	(_var)
  1401  044A  3000               	movlw	high(02h)
  1402  044B  00BD               	movwf	((_var))+1
  1403                           	
  1404  044C                     l30001077:	
  1405                           	line	261
  1406                           ;addition.c: 261: sum=sum+var;
  1407  044C  0879               	movf	(_sum),w
  1408  044D  3E02               	addlw	low(02h)
  1409  044E  00F9               	movwf	(_sum)
  1410  044F  087A               	movf	(_sum+1),w
  1411  0450  1803               	skipnc
  1412  0451  3E01               	addlw	1
  1413  0452  3E00               	addlw	high(02h)
  1414  0453  00FA               	movwf	1+(_sum)
  1415                           	
  1416  0454                     l30001078:	
  1417                           	line	262
  1418                           ;addition.c: 262: count++;
  1419  0454  3001               	movlw	low(01h)
  1420  0455  07B6               	addwf	(_count),f
  1421  0456  1803               	skipnc
  1422  0457  0AB7               	incf	(_count+1),f
  1423  0458  3000               	movlw	high(01h)
  1424  0459  07B7               	addwf	(_count+1),f
  1425                           	
  1426  045A                     l38:	
  1427                           	line	263
  1428  045A  1886               	btfsc	(49/8),(49)&7
  1429  045B  2C5D               	goto	u1271
  1430  045C  2C5E               	goto	u1270
  1431  045D                     u1271:
  1432  045D  2C5A               	goto	l38
  1433  045E                     u1270:
  1434                           	
  1435  045E                     l37:	
  1436                           	line	265
  1437                           ;addition.c: 264: }
  1438                           ;addition.c: 265: if(RB2==1)
  1439  045E  1D06               	btfss	(50/8),(50)&7
  1440  045F  2C61               	goto	u1281
  1441  0460  2C62               	goto	u1280
  1442  0461                     u1281:
  1443  0461  2C78               	goto	l41
  1444  0462                     u1280:
  1445                           	
  1446  0462                     l30001079:	
  1447                           	line	267
  1448                           ;addition.c: 266: {
  1449                           ;addition.c: 267: var=3;
  1450  0462  3003               	movlw	low(03h)
  1451  0463  00BC               	movwf	(_var)
  1452  0464  3000               	movlw	high(03h)
  1453  0465  00BD               	movwf	((_var))+1
  1454                           	
  1455  0466                     l30001080:	
  1456                           	line	268
  1457                           ;addition.c: 268: sum=sum+var;
  1458  0466  0879               	movf	(_sum),w
  1459  0467  3E03               	addlw	low(03h)
  1460  0468  00F9               	movwf	(_sum)
  1461  0469  087A               	movf	(_sum+1),w
  1462  046A  1803               	skipnc
  1463  046B  3E01               	addlw	1
  1464  046C  3E00               	addlw	high(03h)
  1465  046D  00FA               	movwf	1+(_sum)
  1466                           	
  1467  046E                     l30001081:	
  1468                           	line	269
  1469                           ;addition.c: 269: count++;
  1470  046E  3001               	movlw	low(01h)
  1471  046F  07B6               	addwf	(_count),f
  1472  0470  1803               	skipnc
  1473  0471  0AB7               	incf	(_count+1),f
  1474  0472  3000               	movlw	high(01h)
  1475  0473  07B7               	addwf	(_count+1),f
  1476                           	
  1477  0474                     l42:	
  1478                           	line	270
  1479  0474  1906               	btfsc	(50/8),(50)&7
  1480  0475  2C77               	goto	u1291
  1481  0476  2C78               	goto	u1290
  1482  0477                     u1291:
  1483  0477  2C74               	goto	l42
  1484  0478                     u1290:
  1485                           	
  1486  0478                     l41:	
  1487                           	line	275
  1488                           ;addition.c: 271: }
  1489                           ;addition.c: 275: RB3=0,RB4=1,RB5=0,RB6=0;
  1490  0478  1186               	bcf	(51/8),(51)&7
  1491  0479  1606               	bsf	(52/8),(52)&7
  1492  047A  1286               	bcf	(53/8),(53)&7
  1493  047B  1306               	bcf	(54/8),(54)&7
  1494                           	line	276
  1495                           ;addition.c: 276: if(RB0==1)
  1496  047C  1C06               	btfss	(48/8),(48)&7
  1497  047D  2C7F               	goto	u1301
  1498  047E  2C80               	goto	u1300
  1499  047F                     u1301:
  1500  047F  2C96               	goto	l45
  1501  0480                     u1300:
  1502                           	
  1503  0480                     l30001082:	
  1504                           	line	278
  1505                           ;addition.c: 277: {
  1506                           ;addition.c: 278: var=4;
  1507  0480  3004               	movlw	low(04h)
  1508  0481  00BC               	movwf	(_var)
  1509  0482  3000               	movlw	high(04h)
  1510  0483  00BD               	movwf	((_var))+1
  1511                           	
  1512  0484                     l30001083:	
  1513                           	line	279
  1514                           ;addition.c: 279: sum=sum+var;
  1515  0484  0879               	movf	(_sum),w
  1516  0485  3E04               	addlw	low(04h)
  1517  0486  00F9               	movwf	(_sum)
  1518  0487  087A               	movf	(_sum+1),w
  1519  0488  1803               	skipnc
  1520  0489  3E01               	addlw	1
  1521  048A  3E00               	addlw	high(04h)
  1522  048B  00FA               	movwf	1+(_sum)
  1523                           	
  1524  048C                     l30001084:	
  1525                           	line	280
  1526                           ;addition.c: 280: count++;
  1527  048C  3001               	movlw	low(01h)
  1528  048D  07B6               	addwf	(_count),f
  1529  048E  1803               	skipnc
  1530  048F  0AB7               	incf	(_count+1),f
  1531  0490  3000               	movlw	high(01h)
  1532  0491  07B7               	addwf	(_count+1),f
  1533                           	
  1534  0492                     l46:	
  1535                           	line	281
  1536  0492  1806               	btfsc	(48/8),(48)&7
  1537  0493  2C95               	goto	u1311
  1538  0494  2C96               	goto	u1310
  1539  0495                     u1311:
  1540  0495  2C92               	goto	l46
  1541  0496                     u1310:
  1542                           	
  1543  0496                     l45:	
  1544                           	line	283
  1545                           ;addition.c: 282: }
  1546                           ;addition.c: 283: if(RB1==1)
  1547  0496  1C86               	btfss	(49/8),(49)&7
  1548  0497  2C99               	goto	u1321
  1549  0498  2C9A               	goto	u1320
  1550  0499                     u1321:
  1551  0499  2CB0               	goto	l49
  1552  049A                     u1320:
  1553                           	
  1554  049A                     l30001085:	
  1555                           	line	285
  1556                           ;addition.c: 284: {
  1557                           ;addition.c: 285: var=5;
  1558  049A  3005               	movlw	low(05h)
  1559  049B  00BC               	movwf	(_var)
  1560  049C  3000               	movlw	high(05h)
  1561  049D  00BD               	movwf	((_var))+1
  1562                           	
  1563  049E                     l30001086:	
  1564                           	line	286
  1565                           ;addition.c: 286: sum=sum+var;
  1566  049E  0879               	movf	(_sum),w
  1567  049F  3E05               	addlw	low(05h)
  1568  04A0  00F9               	movwf	(_sum)
  1569  04A1  087A               	movf	(_sum+1),w
  1570  04A2  1803               	skipnc
  1571  04A3  3E01               	addlw	1
  1572  04A4  3E00               	addlw	high(05h)
  1573  04A5  00FA               	movwf	1+(_sum)
  1574                           	
  1575  04A6                     l30001087:	
  1576                           	line	287
  1577                           ;addition.c: 287: count++;
  1578  04A6  3001               	movlw	low(01h)
  1579  04A7  07B6               	addwf	(_count),f
  1580  04A8  1803               	skipnc
  1581  04A9  0AB7               	incf	(_count+1),f
  1582  04AA  3000               	movlw	high(01h)
  1583  04AB  07B7               	addwf	(_count+1),f
  1584                           	
  1585  04AC                     l50:	
  1586                           	line	288
  1587  04AC  1886               	btfsc	(49/8),(49)&7
  1588  04AD  2CAF               	goto	u1331
  1589  04AE  2CB0               	goto	u1330
  1590  04AF                     u1331:
  1591  04AF  2CAC               	goto	l50
  1592  04B0                     u1330:
  1593                           	
  1594  04B0                     l49:	
  1595                           	line	290
  1596                           ;addition.c: 289: }
  1597                           ;addition.c: 290: if(RB2==1)
  1598  04B0  1D06               	btfss	(50/8),(50)&7
  1599  04B1  2CB3               	goto	u1341
  1600  04B2  2CB4               	goto	u1340
  1601  04B3                     u1341:
  1602  04B3  2CCA               	goto	l53
  1603  04B4                     u1340:
  1604                           	
  1605  04B4                     l30001088:	
  1606                           	line	292
  1607                           ;addition.c: 291: {
  1608                           ;addition.c: 292: var=6;
  1609  04B4  3006               	movlw	low(06h)
  1610  04B5  00BC               	movwf	(_var)
  1611  04B6  3000               	movlw	high(06h)
  1612  04B7  00BD               	movwf	((_var))+1
  1613                           	
  1614  04B8                     l30001089:	
  1615                           	line	293
  1616                           ;addition.c: 293: sum=sum+var;
  1617  04B8  0879               	movf	(_sum),w
  1618  04B9  3E06               	addlw	low(06h)
  1619  04BA  00F9               	movwf	(_sum)
  1620  04BB  087A               	movf	(_sum+1),w
  1621  04BC  1803               	skipnc
  1622  04BD  3E01               	addlw	1
  1623  04BE  3E00               	addlw	high(06h)
  1624  04BF  00FA               	movwf	1+(_sum)
  1625                           	
  1626  04C0                     l30001090:	
  1627                           	line	294
  1628                           ;addition.c: 294: count++;
  1629  04C0  3001               	movlw	low(01h)
  1630  04C1  07B6               	addwf	(_count),f
  1631  04C2  1803               	skipnc
  1632  04C3  0AB7               	incf	(_count+1),f
  1633  04C4  3000               	movlw	high(01h)
  1634  04C5  07B7               	addwf	(_count+1),f
  1635                           	
  1636  04C6                     l54:	
  1637                           	line	295
  1638  04C6  1906               	btfsc	(50/8),(50)&7
  1639  04C7  2CC9               	goto	u1351
  1640  04C8  2CCA               	goto	u1350
  1641  04C9                     u1351:
  1642  04C9  2CC6               	goto	l54
  1643  04CA                     u1350:
  1644                           	
  1645  04CA                     l53:	
  1646                           	line	300
  1647                           ;addition.c: 296: }
  1648                           ;addition.c: 300: RB3=0,RB4=0,RB5=1,RB6=0;
  1649  04CA  1186               	bcf	(51/8),(51)&7
  1650  04CB  1206               	bcf	(52/8),(52)&7
  1651  04CC  1686               	bsf	(53/8),(53)&7
  1652  04CD  1306               	bcf	(54/8),(54)&7
  1653                           	line	301
  1654                           ;addition.c: 301: if(RB0==1)
  1655  04CE  1C06               	btfss	(48/8),(48)&7
  1656  04CF  2CD1               	goto	u1361
  1657  04D0  2CD2               	goto	u1360
  1658  04D1                     u1361:
  1659  04D1  2CE8               	goto	l57
  1660  04D2                     u1360:
  1661                           	
  1662  04D2                     l30001091:	
  1663                           	line	303
  1664                           ;addition.c: 302: {
  1665                           ;addition.c: 303: var=7;
  1666  04D2  3007               	movlw	low(07h)
  1667  04D3  00BC               	movwf	(_var)
  1668  04D4  3000               	movlw	high(07h)
  1669  04D5  00BD               	movwf	((_var))+1
  1670                           	
  1671  04D6                     l30001092:	
  1672                           	line	304
  1673                           ;addition.c: 304: sum=sum+var;
  1674  04D6  0879               	movf	(_sum),w
  1675  04D7  3E07               	addlw	low(07h)
  1676  04D8  00F9               	movwf	(_sum)
  1677  04D9  087A               	movf	(_sum+1),w
  1678  04DA  1803               	skipnc
  1679  04DB  3E01               	addlw	1
  1680  04DC  3E00               	addlw	high(07h)
  1681  04DD  00FA               	movwf	1+(_sum)
  1682                           	
  1683  04DE                     l30001093:	
  1684                           	line	305
  1685                           ;addition.c: 305: count++;
  1686  04DE  3001               	movlw	low(01h)
  1687  04DF  07B6               	addwf	(_count),f
  1688  04E0  1803               	skipnc
  1689  04E1  0AB7               	incf	(_count+1),f
  1690  04E2  3000               	movlw	high(01h)
  1691  04E3  07B7               	addwf	(_count+1),f
  1692                           	
  1693  04E4                     l58:	
  1694                           	line	306
  1695  04E4  1806               	btfsc	(48/8),(48)&7
  1696  04E5  2CE7               	goto	u1371
  1697  04E6  2CE8               	goto	u1370
  1698  04E7                     u1371:
  1699  04E7  2CE4               	goto	l58
  1700  04E8                     u1370:
  1701                           	
  1702  04E8                     l57:	
  1703                           	line	308
  1704                           ;addition.c: 307: }
  1705                           ;addition.c: 308: if(RB1==1)
  1706  04E8  1C86               	btfss	(49/8),(49)&7
  1707  04E9  2CEB               	goto	u1381
  1708  04EA  2CEC               	goto	u1380
  1709  04EB                     u1381:
  1710  04EB  2D02               	goto	l61
  1711  04EC                     u1380:
  1712                           	
  1713  04EC                     l30001094:	
  1714                           	line	310
  1715                           ;addition.c: 309: {
  1716                           ;addition.c: 310: var=8;
  1717  04EC  3008               	movlw	low(08h)
  1718  04ED  00BC               	movwf	(_var)
  1719  04EE  3000               	movlw	high(08h)
  1720  04EF  00BD               	movwf	((_var))+1
  1721                           	
  1722  04F0                     l30001095:	
  1723                           	line	311
  1724                           ;addition.c: 311: sum=sum+var;
  1725  04F0  0879               	movf	(_sum),w
  1726  04F1  3E08               	addlw	low(08h)
  1727  04F2  00F9               	movwf	(_sum)
  1728  04F3  087A               	movf	(_sum+1),w
  1729  04F4  1803               	skipnc
  1730  04F5  3E01               	addlw	1
  1731  04F6  3E00               	addlw	high(08h)
  1732  04F7  00FA               	movwf	1+(_sum)
  1733                           	
  1734  04F8                     l30001096:	
  1735                           	line	312
  1736                           ;addition.c: 312: count++;
  1737  04F8  3001               	movlw	low(01h)
  1738  04F9  07B6               	addwf	(_count),f
  1739  04FA  1803               	skipnc
  1740  04FB  0AB7               	incf	(_count+1),f
  1741  04FC  3000               	movlw	high(01h)
  1742  04FD  07B7               	addwf	(_count+1),f
  1743                           	
  1744  04FE                     l62:	
  1745                           	line	313
  1746  04FE  1886               	btfsc	(49/8),(49)&7
  1747  04FF  2D01               	goto	u1391
  1748  0500  2D02               	goto	u1390
  1749  0501                     u1391:
  1750  0501  2CFE               	goto	l62
  1751  0502                     u1390:
  1752                           	
  1753  0502                     l61:	
  1754                           	line	315
  1755                           ;addition.c: 314: }
  1756                           ;addition.c: 315: if(RB2==1)
  1757  0502  1D06               	btfss	(50/8),(50)&7
  1758  0503  2D05               	goto	u1401
  1759  0504  2D06               	goto	u1400
  1760  0505                     u1401:
  1761  0505  2D1C               	goto	l65
  1762  0506                     u1400:
  1763                           	
  1764  0506                     l30001097:	
  1765                           	line	317
  1766                           ;addition.c: 316: {
  1767                           ;addition.c: 317: var=9;
  1768  0506  3009               	movlw	low(09h)
  1769  0507  00BC               	movwf	(_var)
  1770  0508  3000               	movlw	high(09h)
  1771  0509  00BD               	movwf	((_var))+1
  1772                           	
  1773  050A                     l30001098:	
  1774                           	line	318
  1775                           ;addition.c: 318: sum=sum+var;
  1776  050A  0879               	movf	(_sum),w
  1777  050B  3E09               	addlw	low(09h)
  1778  050C  00F9               	movwf	(_sum)
  1779  050D  087A               	movf	(_sum+1),w
  1780  050E  1803               	skipnc
  1781  050F  3E01               	addlw	1
  1782  0510  3E00               	addlw	high(09h)
  1783  0511  00FA               	movwf	1+(_sum)
  1784                           	
  1785  0512                     l30001099:	
  1786                           	line	319
  1787                           ;addition.c: 319: count++;
  1788  0512  3001               	movlw	low(01h)
  1789  0513  07B6               	addwf	(_count),f
  1790  0514  1803               	skipnc
  1791  0515  0AB7               	incf	(_count+1),f
  1792  0516  3000               	movlw	high(01h)
  1793  0517  07B7               	addwf	(_count+1),f
  1794                           	
  1795  0518                     l66:	
  1796                           	line	320
  1797  0518  1906               	btfsc	(50/8),(50)&7
  1798  0519  2D1B               	goto	u1411
  1799  051A  2D1C               	goto	u1410
  1800  051B                     u1411:
  1801  051B  2D18               	goto	l66
  1802  051C                     u1410:
  1803                           	
  1804  051C                     l65:	
  1805                           	line	325
  1806                           ;addition.c: 321: }
  1807                           ;addition.c: 325: RB3=0,RB4=0,RB5=0,RB6=1;
  1808  051C  1186               	bcf	(51/8),(51)&7
  1809  051D  1206               	bcf	(52/8),(52)&7
  1810  051E  1286               	bcf	(53/8),(53)&7
  1811  051F  1706               	bsf	(54/8),(54)&7
  1812                           	line	327
  1813                           ;addition.c: 327: if(RB1==1)
  1814  0520  1C86               	btfss	(49/8),(49)&7
  1815  0521  2D23               	goto	u1421
  1816  0522  2D24               	goto	u1420
  1817  0523                     u1421:
  1818  0523  2D32               	goto	l69
  1819  0524                     u1420:
  1820                           	
  1821  0524                     l30001100:	
  1822                           	line	329
  1823                           ;addition.c: 328: {
  1824                           ;addition.c: 329: var=0;
  1825  0524  3000               	movlw	low(0)
  1826  0525  00BC               	movwf	(_var)
  1827  0526  3000               	movlw	high(0)
  1828  0527  00BD               	movwf	((_var))+1
  1829                           	
  1830  0528                     l30001101:	
  1831                           	line	330
  1832                           ;addition.c: 330: sum=sum+var;
  1833                           	
  1834  0528                     l30001102:	
  1835                           	line	331
  1836                           ;addition.c: 331: count++;
  1837  0528  3001               	movlw	low(01h)
  1838  0529  07B6               	addwf	(_count),f
  1839  052A  1803               	skipnc
  1840  052B  0AB7               	incf	(_count+1),f
  1841  052C  3000               	movlw	high(01h)
  1842  052D  07B7               	addwf	(_count+1),f
  1843                           	
  1844  052E                     l70:	
  1845                           	line	332
  1846  052E  1886               	btfsc	(49/8),(49)&7
  1847  052F  2D31               	goto	u1431
  1848  0530  2D32               	goto	u1430
  1849  0531                     u1431:
  1850  0531  2D2E               	goto	l70
  1851  0532                     u1430:
  1852                           	
  1853  0532                     l69:	
  1854                           	line	335
  1855                           ;addition.c: 333: }
  1856                           ;addition.c: 335: if(RB0==1)
  1857  0532  1C06               	btfss	(48/8),(48)&7
  1858  0533  2D35               	goto	u1441
  1859  0534  2D36               	goto	u1440
  1860  0535                     u1441:
  1861  0535  2C17               	goto	l30001067
  1862  0536                     u1440:
  1863                           	
  1864  0536                     l30001103:	
  1865                           	line	337
  1866                           ;addition.c: 336: {
  1867                           ;addition.c: 337: addition();
  1868  0536  120A  118A  22E1   	fcall	_addition
              120A  118A         
  1869                           	
  1870  053B                     l30001104:	
  1871                           	line	338
  1872                           ;addition.c: 338: count++;
  1873  053B  3001               	movlw	low(01h)
  1874  053C  1283               	bcf	status, 5	;RP0=0, select bank0
  1875  053D  1303               	bcf	status, 6	;RP1=0, select bank0
  1876  053E  07B6               	addwf	(_count),f
  1877  053F  1803               	skipnc
  1878  0540  0AB7               	incf	(_count+1),f
  1879  0541  3000               	movlw	high(01h)
  1880  0542  07B7               	addwf	(_count+1),f
  1881                           	
  1882  0543                     l74:	
  1883                           	line	339
  1884  0543  1806               	btfsc	(48/8),(48)&7
  1885  0544  2D46               	goto	u1451
  1886  0545  2D47               	goto	u1450
  1887  0546                     u1451:
  1888  0546  2D43               	goto	l74
  1889  0547                     u1450:
  1890  0547  2C17               	goto	l30001067
  1891                           	global	start
  1892  0548  120A  118A  2800   	ljmp	start
  1893                           	opt stack 0
  1894                           GLOBAL	__end_of_main
  1895  054B                     	__end_of_main:
  1896                           ; =============== function _main ends ============
  1897                           
  1898                           psect	maintext
  1899                           	line	344
  1900                           	signat	_main,88
  1901                           	global	_addition
  1902                           psect	text40,local,class=CODE,delta=2
  1903                           global __ptext40
  1904  02E1                     __ptext40:
  1905                           
  1906                           ; *************** function _addition *****************
  1907                           ; Defined at:
  1908                           ;		line 27 in file "C:\Users\gowth\Documents\PIC Programs\Keypad\4 segment addition\addi
                                 tion.c"
  1909                           ; Parameters:    Size  Location     Type
  1910                           ;		None
  1911                           ; Auto vars:     Size  Location     Type
  1912                           ;		None
  1913                           ; Return value:  Size  Location     Type
  1914                           ;		None               void
  1915                           ; Registers used:
  1916                           ;		wreg, fsr0l, fsr0h, status,2, status,0, pclath, cstack
  1917                           ; Tracked objects:
  1918                           ;		On entry : 0/0
  1919                           ;		On exit  : 0/0
  1920                           ;		Unchanged: 0/0
  1921                           ; Data sizes:     COMMON   BANK0   BANK1   BANK3   BANK2
  1922                           ;      Locals:         1       0       0       0       0
  1923                           ;      Temp:     1
  1924                           ;      Total:    1
  1925                           ; This function calls:
  1926                           ;		___awdiv
  1927                           ;		___awmod
  1928                           ;		_time_delay
  1929                           ; This function is called by:
  1930                           ;		_main
  1931                           ; This function uses a non-reentrant model
  1932                           ; 
  1933                           psect	text40
  1934                           	file	"C:\Users\gowth\Documents\PIC Programs\Keypad\4 segment addition\addition.c"
  1935                           	line	27
  1936                           	global	__size_of_addition
  1937  0101                     	__size_of_addition	equ	__end_of_addition-_addition
  1938                           ;addition.c: 26: void addition()
  1939                           ;addition.c: 27: {
  1940                           	
  1941  02E1                     _addition:	
  1942                           	opt stack 7
  1943                           ; Regs used in _addition: [wreg-fsr0h+status,2+status,0+pclath+cstack]
  1944                           	line	29
  1945                           	
  1946  02E1                     l30001033:	
  1947                           ;addition.c: 29: a=sum/1000;
  1948  02E1  087A               	movf	(_sum+1),w
  1949  02E2  1283               	bcf	status, 5	;RP0=0, select bank0
  1950  02E3  1303               	bcf	status, 6	;RP1=0, select bank0
  1951  02E4  01BF               	clrf	(?___awdiv+1)
  1952  02E5  07BF               	addwf	(?___awdiv+1)
  1953  02E6  0879               	movf	(_sum),w
  1954  02E7  01BE               	clrf	(?___awdiv)
  1955  02E8  07BE               	addwf	(?___awdiv)
  1956                           
  1957  02E9  30E8               	movlw	low(03E8h)
  1958  02EA  00C0               	movwf	0+(?___awdiv)+02h
  1959  02EB  3003               	movlw	high(03E8h)
  1960  02EC  00C1               	movwf	(0+(?___awdiv)+02h)+1
  1961  02ED  120A  118A  226F   	fcall	___awdiv
              120A  118A         
  1962  02F2  1383               	bcf	status, 7	;select IRP bank0
  1963  02F3  1283               	bcf	status, 5	;RP0=0, select bank0
  1964  02F4  1303               	bcf	status, 6	;RP1=0, select bank0
  1965  02F5  083F               	movf	(1+(?___awdiv)),w
  1966  02F6  01A1               	clrf	(_a+1)
  1967  02F7  07A1               	addwf	(_a+1)
  1968  02F8  083E               	movf	(0+(?___awdiv)),w
  1969  02F9  01A0               	clrf	(_a)
  1970  02FA  07A0               	addwf	(_a)
  1971                           
  1972                           	line	31
  1973                           ;addition.c: 31: z=sum%1000;
  1974  02FB  087A               	movf	(_sum+1),w
  1975  02FC  01F4               	clrf	(?___awmod+1)
  1976  02FD  07F4               	addwf	(?___awmod+1)
  1977  02FE  0879               	movf	(_sum),w
  1978  02FF  01F3               	clrf	(?___awmod)
  1979  0300  07F3               	addwf	(?___awmod)
  1980                           
  1981  0301  30E8               	movlw	low(03E8h)
  1982  0302  00F5               	movwf	0+(?___awmod)+02h
  1983  0303  3003               	movlw	high(03E8h)
  1984  0304  00F6               	movwf	(0+(?___awmod)+02h)+1
  1985  0305  120A  118A  220F   	fcall	___awmod
              120A  118A         
  1986  030A  0874               	movf	(1+(?___awmod)),w
  1987  030B  1283               	bcf	status, 5	;RP0=0, select bank0
  1988  030C  1303               	bcf	status, 6	;RP1=0, select bank0
  1989  030D  01AB               	clrf	(_z+1)
  1990  030E  07AB               	addwf	(_z+1)
  1991  030F  0873               	movf	(0+(?___awmod)),w
  1992  0310  01AA               	clrf	(_z)
  1993  0311  07AA               	addwf	(_z)
  1994                           
  1995                           	line	32
  1996                           ;addition.c: 32: b=z/100;
  1997  0312  082B               	movf	(_z+1),w
  1998  0313  01BF               	clrf	(?___awdiv+1)
  1999  0314  07BF               	addwf	(?___awdiv+1)
  2000  0315  082A               	movf	(_z),w
  2001  0316  01BE               	clrf	(?___awdiv)
  2002  0317  07BE               	addwf	(?___awdiv)
  2003                           
  2004  0318  3064               	movlw	low(064h)
  2005  0319  00C0               	movwf	0+(?___awdiv)+02h
  2006  031A  3000               	movlw	high(064h)
  2007  031B  00C1               	movwf	(0+(?___awdiv)+02h)+1
  2008  031C  120A  118A  226F   	fcall	___awdiv
              120A  118A         
  2009  0321  1383               	bcf	status, 7	;select IRP bank0
  2010  0322  1283               	bcf	status, 5	;RP0=0, select bank0
  2011  0323  1303               	bcf	status, 6	;RP1=0, select bank0
  2012  0324  083F               	movf	(1+(?___awdiv)),w
  2013  0325  01A3               	clrf	(_b+1)
  2014  0326  07A3               	addwf	(_b+1)
  2015  0327  083E               	movf	(0+(?___awdiv)),w
  2016  0328  01A2               	clrf	(_b)
  2017  0329  07A2               	addwf	(_b)
  2018                           
  2019                           	line	34
  2020                           ;addition.c: 34: k=sum%100;
  2021  032A  087A               	movf	(_sum+1),w
  2022  032B  01F4               	clrf	(?___awmod+1)
  2023  032C  07F4               	addwf	(?___awmod+1)
  2024  032D  0879               	movf	(_sum),w
  2025  032E  01F3               	clrf	(?___awmod)
  2026  032F  07F3               	addwf	(?___awmod)
  2027                           
  2028  0330  3064               	movlw	low(064h)
  2029  0331  00F5               	movwf	0+(?___awmod)+02h
  2030  0332  3000               	movlw	high(064h)
  2031  0333  00F6               	movwf	(0+(?___awmod)+02h)+1
  2032  0334  120A  118A  220F   	fcall	___awmod
              120A  118A         
  2033  0339  0874               	movf	(1+(?___awmod)),w
  2034  033A  1283               	bcf	status, 5	;RP0=0, select bank0
  2035  033B  1303               	bcf	status, 6	;RP1=0, select bank0
  2036  033C  01A5               	clrf	(_k+1)
  2037  033D  07A5               	addwf	(_k+1)
  2038  033E  0873               	movf	(0+(?___awmod)),w
  2039  033F  01A4               	clrf	(_k)
  2040  0340  07A4               	addwf	(_k)
  2041                           
  2042                           	line	35
  2043                           ;addition.c: 35: p=k/10;
  2044  0341  0825               	movf	(_k+1),w
  2045  0342  01BF               	clrf	(?___awdiv+1)
  2046  0343  07BF               	addwf	(?___awdiv+1)
  2047  0344  0824               	movf	(_k),w
  2048  0345  01BE               	clrf	(?___awdiv)
  2049  0346  07BE               	addwf	(?___awdiv)
  2050                           
  2051  0347  300A               	movlw	low(0Ah)
  2052  0348  00C0               	movwf	0+(?___awdiv)+02h
  2053  0349  3000               	movlw	high(0Ah)
  2054  034A  00C1               	movwf	(0+(?___awdiv)+02h)+1
  2055  034B  120A  118A  226F   	fcall	___awdiv
              120A  118A         
  2056  0350  1383               	bcf	status, 7	;select IRP bank0
  2057  0351  1283               	bcf	status, 5	;RP0=0, select bank0
  2058  0352  1303               	bcf	status, 6	;RP1=0, select bank0
  2059  0353  083F               	movf	(1+(?___awdiv)),w
  2060  0354  01A7               	clrf	(_p+1)
  2061  0355  07A7               	addwf	(_p+1)
  2062  0356  083E               	movf	(0+(?___awdiv)),w
  2063  0357  01A6               	clrf	(_p)
  2064  0358  07A6               	addwf	(_p)
  2065                           
  2066                           	line	37
  2067                           ;addition.c: 37: q=sum%10;
  2068  0359  087A               	movf	(_sum+1),w
  2069  035A  01F4               	clrf	(?___awmod+1)
  2070  035B  07F4               	addwf	(?___awmod+1)
  2071  035C  0879               	movf	(_sum),w
  2072  035D  01F3               	clrf	(?___awmod)
  2073  035E  07F3               	addwf	(?___awmod)
  2074                           
  2075  035F  300A               	movlw	low(0Ah)
  2076  0360  00F5               	movwf	0+(?___awmod)+02h
  2077  0361  3000               	movlw	high(0Ah)
  2078  0362  00F6               	movwf	(0+(?___awmod)+02h)+1
  2079  0363  120A  118A  220F   	fcall	___awmod
              120A  118A         
  2080  0368  0874               	movf	(1+(?___awmod)),w
  2081  0369  1283               	bcf	status, 5	;RP0=0, select bank0
  2082  036A  1303               	bcf	status, 6	;RP1=0, select bank0
  2083  036B  01A9               	clrf	(_q+1)
  2084  036C  07A9               	addwf	(_q+1)
  2085  036D  0873               	movf	(0+(?___awmod)),w
  2086  036E  01A8               	clrf	(_q)
  2087  036F  07A8               	addwf	(_q)
  2088                           
  2089                           	
  2090  0370                     l30001034:	
  2091                           	line	41
  2092                           ;addition.c: 40: {
  2093                           ;addition.c: 41: for(j=0;j<2;j++)
  2094  0370  3000               	movlw	low(0)
  2095  0371  1283               	bcf	status, 5	;RP0=0, select bank0
  2096  0372  1303               	bcf	status, 6	;RP1=0, select bank0
  2097  0373  00BA               	movwf	(_j)
  2098  0374  3000               	movlw	high(0)
  2099  0375  00BB               	movwf	((_j))+1
  2100                           	
  2101  0376                     l30001035:	
  2102  0376  083B               	movf	(_j+1),w
  2103  0377  3A80               	xorlw	80h
  2104  0378  00F7               	movwf	(??_addition+0+0)
  2105  0379  3080               	movlw	(high(02h))^80h
  2106  037A  0277               	subwf	(??_addition+0+0),w
  2107  037B  1D03               	skipz
  2108  037C  2B7F               	goto	u1235
  2109  037D  3002               	movlw	low(02h)
  2110  037E  023A               	subwf	(_j),w
  2111  037F                     u1235:
  2112                           
  2113  037F  1C03               	skipc
  2114  0380  2B82               	goto	u1231
  2115  0381  2B83               	goto	u1230
  2116  0382                     u1231:
  2117  0382  2B84               	goto	l9
  2118  0383                     u1230:
  2119  0383  2B70               	goto	l30001034
  2120                           	
  2121  0384                     l9:	
  2122                           	line	43
  2123                           ;addition.c: 42: {
  2124                           ;addition.c: 43: RD1=1;
  2125  0384  1283               	bcf	status, 5	;RP0=0, select bank0
  2126  0385  1303               	bcf	status, 6	;RP1=0, select bank0
  2127  0386  1488               	bsf	(65/8),(65)&7
  2128                           	line	44
  2129                           ;addition.c: 44: RD2=1;
  2130  0387  1508               	bsf	(66/8),(66)&7
  2131                           	line	45
  2132                           ;addition.c: 45: RD3=1;
  2133  0388  1588               	bsf	(67/8),(67)&7
  2134                           	line	46
  2135                           ;addition.c: 46: RD0=0;
  2136  0389  1008               	bcf	(64/8),(64)&7
  2137                           	
  2138  038A                     l30001037:	
  2139                           	line	47
  2140                           ;addition.c: 47: PORTC=number[a];
  2141  038A  0820               	movf	(_a),w
  2142  038B  3E2C               	addlw	(_number)&0ffh
  2143  038C  0084               	movwf	fsr0
  2144  038D  1383               	bcf	status, 7	;select IRP bank0
  2145  038E  0800               	movf	indf,w
  2146  038F  0087               	movwf	(7)	;volatile
  2147                           	
  2148  0390                     l30001038:	
  2149                           	line	48
  2150                           ;addition.c: 48: time_delay(1000);
  2151  0390  30E8               	movlw	low(03E8h)
  2152  0391  00F0               	movwf	(?_time_delay)
  2153  0392  3003               	movlw	high(03E8h)
  2154  0393  00F1               	movwf	((?_time_delay))+1
  2155  0394  120A  118A  21D1   	fcall	_time_delay
              120A  118A         
  2156                           	
  2157  0399                     l30001039:	
  2158                           	line	50
  2159                           ;addition.c: 50: RD0=1;
  2160  0399  1283               	bcf	status, 5	;RP0=0, select bank0
  2161  039A  1303               	bcf	status, 6	;RP1=0, select bank0
  2162  039B  1408               	bsf	(64/8),(64)&7
  2163                           	
  2164  039C                     l30001040:	
  2165                           	line	51
  2166                           ;addition.c: 51: RD2=1;
  2167  039C  1508               	bsf	(66/8),(66)&7
  2168                           	
  2169  039D                     l30001041:	
  2170                           	line	52
  2171                           ;addition.c: 52: RD3=1;
  2172  039D  1588               	bsf	(67/8),(67)&7
  2173                           	
  2174  039E                     l30001042:	
  2175                           	line	53
  2176                           ;addition.c: 53: RD1=0;
  2177  039E  1088               	bcf	(65/8),(65)&7
  2178                           	
  2179  039F                     l30001043:	
  2180                           	line	54
  2181                           ;addition.c: 54: PORTC = number[b];
  2182  039F  0822               	movf	(_b),w
  2183  03A0  3E2C               	addlw	(_number)&0ffh
  2184  03A1  0084               	movwf	fsr0
  2185  03A2  1383               	bcf	status, 7	;select IRP bank0
  2186  03A3  0800               	movf	indf,w
  2187  03A4  0087               	movwf	(7)	;volatile
  2188                           	line	55
  2189                           ;addition.c: 55: time_delay(1000);
  2190  03A5  30E8               	movlw	low(03E8h)
  2191  03A6  00F0               	movwf	(?_time_delay)
  2192  03A7  3003               	movlw	high(03E8h)
  2193  03A8  00F1               	movwf	((?_time_delay))+1
  2194  03A9  120A  118A  21D1   	fcall	_time_delay
              120A  118A         
  2195                           	
  2196  03AE                     l30001044:	
  2197                           	line	57
  2198                           ;addition.c: 57: RD0=1;
  2199  03AE  1283               	bcf	status, 5	;RP0=0, select bank0
  2200  03AF  1303               	bcf	status, 6	;RP1=0, select bank0
  2201  03B0  1408               	bsf	(64/8),(64)&7
  2202                           	
  2203  03B1                     l30001045:	
  2204                           	line	58
  2205                           ;addition.c: 58: RD1=1;
  2206  03B1  1488               	bsf	(65/8),(65)&7
  2207                           	
  2208  03B2                     l30001046:	
  2209                           	line	59
  2210                           ;addition.c: 59: RD3=1;
  2211  03B2  1588               	bsf	(67/8),(67)&7
  2212                           	
  2213  03B3                     l30001047:	
  2214                           	line	60
  2215                           ;addition.c: 60: RD2=0;
  2216  03B3  1108               	bcf	(66/8),(66)&7
  2217                           	
  2218  03B4                     l30001048:	
  2219                           	line	61
  2220                           ;addition.c: 61: PORTC = number[p];
  2221  03B4  0826               	movf	(_p),w
  2222  03B5  3E2C               	addlw	(_number)&0ffh
  2223  03B6  0084               	movwf	fsr0
  2224  03B7  1383               	bcf	status, 7	;select IRP bank0
  2225  03B8  0800               	movf	indf,w
  2226  03B9  0087               	movwf	(7)	;volatile
  2227                           	
  2228  03BA                     l30001049:	
  2229                           	line	62
  2230                           ;addition.c: 62: time_delay(1000);
  2231  03BA  30E8               	movlw	low(03E8h)
  2232  03BB  00F0               	movwf	(?_time_delay)
  2233  03BC  3003               	movlw	high(03E8h)
  2234  03BD  00F1               	movwf	((?_time_delay))+1
  2235  03BE  120A  118A  21D1   	fcall	_time_delay
              120A  118A         
  2236                           	
  2237  03C3                     l30001050:	
  2238                           	line	64
  2239                           ;addition.c: 64: RD0=1;
  2240  03C3  1283               	bcf	status, 5	;RP0=0, select bank0
  2241  03C4  1303               	bcf	status, 6	;RP1=0, select bank0
  2242  03C5  1408               	bsf	(64/8),(64)&7
  2243                           	
  2244  03C6                     l30001051:	
  2245                           	line	65
  2246                           ;addition.c: 65: RD1=1;
  2247  03C6  1488               	bsf	(65/8),(65)&7
  2248                           	
  2249  03C7                     l30001052:	
  2250                           	line	66
  2251                           ;addition.c: 66: RD2=1;
  2252  03C7  1508               	bsf	(66/8),(66)&7
  2253                           	
  2254  03C8                     l30001053:	
  2255                           	line	67
  2256                           ;addition.c: 67: RD3=0;
  2257  03C8  1188               	bcf	(67/8),(67)&7
  2258                           	line	68
  2259                           ;addition.c: 68: PORTC = number[q];
  2260  03C9  0828               	movf	(_q),w
  2261  03CA  3E2C               	addlw	(_number)&0ffh
  2262  03CB  0084               	movwf	fsr0
  2263  03CC  1383               	bcf	status, 7	;select IRP bank0
  2264  03CD  0800               	movf	indf,w
  2265  03CE  0087               	movwf	(7)	;volatile
  2266                           	
  2267  03CF                     l30001054:	
  2268                           	line	69
  2269                           ;addition.c: 69: time_delay(1000);
  2270  03CF  30E8               	movlw	low(03E8h)
  2271  03D0  00F0               	movwf	(?_time_delay)
  2272  03D1  3003               	movlw	high(03E8h)
  2273  03D2  00F1               	movwf	((?_time_delay))+1
  2274  03D3  120A  118A  21D1   	fcall	_time_delay
              120A  118A         
  2275                           	
  2276  03D8                     l30001055:	
  2277                           	line	41
  2278  03D8  3001               	movlw	low(01h)
  2279  03D9  1283               	bcf	status, 5	;RP0=0, select bank0
  2280  03DA  1303               	bcf	status, 6	;RP1=0, select bank0
  2281  03DB  07BA               	addwf	(_j),f
  2282  03DC  1803               	skipnc
  2283  03DD  0ABB               	incf	(_j+1),f
  2284  03DE  3000               	movlw	high(01h)
  2285  03DF  07BB               	addwf	(_j+1),f
  2286  03E0  2B76               	goto	l30001035
  2287  03E1  0008               	return
  2288                           	opt stack 0
  2289                           GLOBAL	__end_of_addition
  2290  03E2                     	__end_of_addition:
  2291                           ; =============== function _addition ends ============
  2292                           
  2293                           psect	text41,local,class=CODE,delta=2
  2294                           global __ptext41
  2295  054B                     __ptext41:
  2296                           	line	73
  2297                           	signat	_addition,88
  2298                           	global	_display
  2299                           
  2300                           ; *************** function _display *****************
  2301                           ; Defined at:
  2302                           ;		line 76 in file "C:\Users\gowth\Documents\PIC Programs\Keypad\4 segment addition\addi
                                 tion.c"
  2303                           ; Parameters:    Size  Location     Type
  2304                           ;  var             2    4[BANK0 ] int 
  2305                           ; Auto vars:     Size  Location     Type
  2306                           ;		None
  2307                           ; Return value:  Size  Location     Type
  2308                           ;		None               void
  2309                           ; Registers used:
  2310                           ;		wreg, fsr0l, fsr0h, status,2, status,0, pclath, cstack
  2311                           ; Tracked objects:
  2312                           ;		On entry : 0/0
  2313                           ;		On exit  : 0/0
  2314                           ;		Unchanged: 0/0
  2315                           ; Data sizes:     COMMON   BANK0   BANK1   BANK3   BANK2
  2316                           ;      Locals:         2       2       0       0       0
  2317                           ;      Temp:     2
  2318                           ;      Total:    4
  2319                           ; This function calls:
  2320                           ;		___awdiv
  2321                           ;		___awmod
  2322                           ;		_time_delay
  2323                           ; This function is called by:
  2324                           ;		_main
  2325                           ; This function uses a non-reentrant model
  2326                           ; 
  2327                           psect	text41
  2328                           	file	"C:\Users\gowth\Documents\PIC Programs\Keypad\4 segment addition\addition.c"
  2329                           	line	76
  2330                           	global	__size_of_display
  2331  02B5                     	__size_of_display	equ	__end_of_display-_display
  2332                           ;addition.c: 75: void display(int var)
  2333                           ;addition.c: 76: {
  2334                           	
  2335  054B                     _display:	
  2336                           	opt stack 7
  2337                           ; Regs used in _display: [wreg-fsr0h+status,2+status,0+pclath+cstack]
  2338                           	line	77
  2339                           	
  2340  054B                     l30001105:	
  2341                           ;addition.c: 77: a=var/1000;
  2342  054B  1283               	bcf	status, 5	;RP0=0, select bank0
  2343  054C  1303               	bcf	status, 6	;RP1=0, select bank0
  2344  054D  0843               	movf	(display@var+1),w
  2345  054E  01BF               	clrf	(?___awdiv+1)
  2346  054F  07BF               	addwf	(?___awdiv+1)
  2347  0550  0842               	movf	(display@var),w
  2348  0551  01BE               	clrf	(?___awdiv)
  2349  0552  07BE               	addwf	(?___awdiv)
  2350                           
  2351  0553  30E8               	movlw	low(03E8h)
  2352  0554  00C0               	movwf	0+(?___awdiv)+02h
  2353  0555  3003               	movlw	high(03E8h)
  2354  0556  00C1               	movwf	(0+(?___awdiv)+02h)+1
  2355  0557  120A  118A  226F   	fcall	___awdiv
              120A  118A         
  2356  055C  1383               	bcf	status, 7	;select IRP bank0
  2357  055D  1283               	bcf	status, 5	;RP0=0, select bank0
  2358  055E  1303               	bcf	status, 6	;RP1=0, select bank0
  2359  055F  083F               	movf	(1+(?___awdiv)),w
  2360  0560  01A1               	clrf	(_a+1)
  2361  0561  07A1               	addwf	(_a+1)
  2362  0562  083E               	movf	(0+(?___awdiv)),w
  2363  0563  01A0               	clrf	(_a)
  2364  0564  07A0               	addwf	(_a)
  2365                           
  2366                           	line	79
  2367                           ;addition.c: 79: z=var%1000;
  2368  0565  0843               	movf	(display@var+1),w
  2369  0566  01F4               	clrf	(?___awmod+1)
  2370  0567  07F4               	addwf	(?___awmod+1)
  2371  0568  0842               	movf	(display@var),w
  2372  0569  01F3               	clrf	(?___awmod)
  2373  056A  07F3               	addwf	(?___awmod)
  2374                           
  2375  056B  30E8               	movlw	low(03E8h)
  2376  056C  00F5               	movwf	0+(?___awmod)+02h
  2377  056D  3003               	movlw	high(03E8h)
  2378  056E  00F6               	movwf	(0+(?___awmod)+02h)+1
  2379  056F  120A  118A  220F   	fcall	___awmod
              120A  118A         
  2380  0574  0874               	movf	(1+(?___awmod)),w
  2381  0575  1283               	bcf	status, 5	;RP0=0, select bank0
  2382  0576  1303               	bcf	status, 6	;RP1=0, select bank0
  2383  0577  01AB               	clrf	(_z+1)
  2384  0578  07AB               	addwf	(_z+1)
  2385  0579  0873               	movf	(0+(?___awmod)),w
  2386  057A  01AA               	clrf	(_z)
  2387  057B  07AA               	addwf	(_z)
  2388                           
  2389                           	line	80
  2390                           ;addition.c: 80: b=z/100;
  2391  057C  082B               	movf	(_z+1),w
  2392  057D  01BF               	clrf	(?___awdiv+1)
  2393  057E  07BF               	addwf	(?___awdiv+1)
  2394  057F  082A               	movf	(_z),w
  2395  0580  01BE               	clrf	(?___awdiv)
  2396  0581  07BE               	addwf	(?___awdiv)
  2397                           
  2398  0582  3064               	movlw	low(064h)
  2399  0583  00C0               	movwf	0+(?___awdiv)+02h
  2400  0584  3000               	movlw	high(064h)
  2401  0585  00C1               	movwf	(0+(?___awdiv)+02h)+1
  2402  0586  120A  118A  226F   	fcall	___awdiv
              120A  118A         
  2403  058B  1383               	bcf	status, 7	;select IRP bank0
  2404  058C  1283               	bcf	status, 5	;RP0=0, select bank0
  2405  058D  1303               	bcf	status, 6	;RP1=0, select bank0
  2406  058E  083F               	movf	(1+(?___awdiv)),w
  2407  058F  01A3               	clrf	(_b+1)
  2408  0590  07A3               	addwf	(_b+1)
  2409  0591  083E               	movf	(0+(?___awdiv)),w
  2410  0592  01A2               	clrf	(_b)
  2411  0593  07A2               	addwf	(_b)
  2412                           
  2413                           	line	82
  2414                           ;addition.c: 82: k=var%100;
  2415  0594  0843               	movf	(display@var+1),w
  2416  0595  01F4               	clrf	(?___awmod+1)
  2417  0596  07F4               	addwf	(?___awmod+1)
  2418  0597  0842               	movf	(display@var),w
  2419  0598  01F3               	clrf	(?___awmod)
  2420  0599  07F3               	addwf	(?___awmod)
  2421                           
  2422  059A  3064               	movlw	low(064h)
  2423  059B  00F5               	movwf	0+(?___awmod)+02h
  2424  059C  3000               	movlw	high(064h)
  2425  059D  00F6               	movwf	(0+(?___awmod)+02h)+1
  2426  059E  120A  118A  220F   	fcall	___awmod
              120A  118A         
  2427  05A3  0874               	movf	(1+(?___awmod)),w
  2428  05A4  1283               	bcf	status, 5	;RP0=0, select bank0
  2429  05A5  1303               	bcf	status, 6	;RP1=0, select bank0
  2430  05A6  01A5               	clrf	(_k+1)
  2431  05A7  07A5               	addwf	(_k+1)
  2432  05A8  0873               	movf	(0+(?___awmod)),w
  2433  05A9  01A4               	clrf	(_k)
  2434  05AA  07A4               	addwf	(_k)
  2435                           
  2436                           	line	83
  2437                           ;addition.c: 83: p=k/10;
  2438  05AB  0825               	movf	(_k+1),w
  2439  05AC  01BF               	clrf	(?___awdiv+1)
  2440  05AD  07BF               	addwf	(?___awdiv+1)
  2441  05AE  0824               	movf	(_k),w
  2442  05AF  01BE               	clrf	(?___awdiv)
  2443  05B0  07BE               	addwf	(?___awdiv)
  2444                           
  2445  05B1  300A               	movlw	low(0Ah)
  2446  05B2  00C0               	movwf	0+(?___awdiv)+02h
  2447  05B3  3000               	movlw	high(0Ah)
  2448  05B4  00C1               	movwf	(0+(?___awdiv)+02h)+1
  2449  05B5  120A  118A  226F   	fcall	___awdiv
              120A  118A         
  2450  05BA  1383               	bcf	status, 7	;select IRP bank0
  2451  05BB  1283               	bcf	status, 5	;RP0=0, select bank0
  2452  05BC  1303               	bcf	status, 6	;RP1=0, select bank0
  2453  05BD  083F               	movf	(1+(?___awdiv)),w
  2454  05BE  01A7               	clrf	(_p+1)
  2455  05BF  07A7               	addwf	(_p+1)
  2456  05C0  083E               	movf	(0+(?___awdiv)),w
  2457  05C1  01A6               	clrf	(_p)
  2458  05C2  07A6               	addwf	(_p)
  2459                           
  2460                           	line	85
  2461                           ;addition.c: 85: q=var%10;
  2462  05C3  0843               	movf	(display@var+1),w
  2463  05C4  01F4               	clrf	(?___awmod+1)
  2464  05C5  07F4               	addwf	(?___awmod+1)
  2465  05C6  0842               	movf	(display@var),w
  2466  05C7  01F3               	clrf	(?___awmod)
  2467  05C8  07F3               	addwf	(?___awmod)
  2468                           
  2469  05C9  300A               	movlw	low(0Ah)
  2470  05CA  00F5               	movwf	0+(?___awmod)+02h
  2471  05CB  3000               	movlw	high(0Ah)
  2472  05CC  00F6               	movwf	(0+(?___awmod)+02h)+1
  2473  05CD  120A  118A  220F   	fcall	___awmod
              120A  118A         
  2474  05D2  0874               	movf	(1+(?___awmod)),w
  2475  05D3  1283               	bcf	status, 5	;RP0=0, select bank0
  2476  05D4  1303               	bcf	status, 6	;RP1=0, select bank0
  2477  05D5  01A9               	clrf	(_q+1)
  2478  05D6  07A9               	addwf	(_q+1)
  2479  05D7  0873               	movf	(0+(?___awmod)),w
  2480  05D8  01A8               	clrf	(_q)
  2481  05D9  07A8               	addwf	(_q)
  2482                           
  2483                           	
  2484  05DA                     l30001106:	
  2485                           	line	88
  2486                           ;addition.c: 88: if(count<1||count%4==1)
  2487  05DA  0837               	movf	(_count+1),w
  2488  05DB  3A80               	xorlw	80h
  2489  05DC  00F7               	movwf	(??_display+0+0)
  2490  05DD  3080               	movlw	(high(01h))^80h
  2491  05DE  0277               	subwf	(??_display+0+0),w
  2492  05DF  1D03               	skipz
  2493  05E0  2DE3               	goto	u1465
  2494  05E1  3001               	movlw	low(01h)
  2495  05E2  0236               	subwf	(_count),w
  2496  05E3                     u1465:
  2497                           
  2498  05E3  1C03               	skipc
  2499  05E4  2DE6               	goto	u1461
  2500  05E5  2DE7               	goto	u1460
  2501  05E6                     u1461:
  2502  05E6  2DF6               	goto	l30001108
  2503  05E7                     u1460:
  2504                           	
  2505  05E7                     l30001107:	
  2506  05E7  3003               	movlw	low(03h)
  2507  05E8  1283               	bcf	status, 5	;RP0=0, select bank0
  2508  05E9  1303               	bcf	status, 6	;RP1=0, select bank0
  2509  05EA  0536               	andwf	(_count),w
  2510  05EB  00F7               	movwf	(??_display+0+0)
  2511  05EC  3000               	movlw	high(03h)
  2512  05ED  0537               	andwf	(_count+1),w
  2513  05EE  00F8               	movwf	1+(??_display+0+0)
  2514  05EF  3001               	movlw	01h
  2515  05F0  0677               	xorwf	0+(??_display+0+0),w
  2516  05F1  0478               	iorwf	1+(??_display+0+0),w
  2517  05F2  1D03               	skipz
  2518  05F3  2DF5               	goto	u1471
  2519  05F4  2DF6               	goto	u1470
  2520  05F5                     u1471:
  2521  05F5  2E73               	goto	l30001130
  2522  05F6                     u1470:
  2523                           	
  2524  05F6                     l30001108:	
  2525                           	line	90
  2526                           ;addition.c: 89: {
  2527                           ;addition.c: 90: for(j=0;j<2;j++)
  2528  05F6  3000               	movlw	low(0)
  2529  05F7  1283               	bcf	status, 5	;RP0=0, select bank0
  2530  05F8  1303               	bcf	status, 6	;RP1=0, select bank0
  2531  05F9  00BA               	movwf	(_j)
  2532  05FA  3000               	movlw	high(0)
  2533  05FB  00BB               	movwf	((_j))+1
  2534  05FC  083B               	movf	(_j+1),w
  2535  05FD  3A80               	xorlw	80h
  2536  05FE  00F7               	movwf	(??_display+0+0)
  2537  05FF  3080               	movlw	(high(02h))^80h
  2538  0600  0277               	subwf	(??_display+0+0),w
  2539  0601  1D03               	skipz
  2540  0602  2E05               	goto	u1485
  2541  0603  3002               	movlw	low(02h)
  2542  0604  023A               	subwf	(_j),w
  2543  0605                     u1485:
  2544                           
  2545  0605  1C03               	skipc
  2546  0606  2E08               	goto	u1481
  2547  0607  2E09               	goto	u1480
  2548  0608                     u1481:
  2549  0608  2E0A               	goto	l14
  2550  0609                     u1480:
  2551  0609  2E73               	goto	l30001130
  2552                           	
  2553  060A                     l14:	
  2554                           	line	92
  2555                           ;addition.c: 91: {
  2556                           ;addition.c: 92: RD1=1;
  2557  060A  1283               	bcf	status, 5	;RP0=0, select bank0
  2558  060B  1303               	bcf	status, 6	;RP1=0, select bank0
  2559  060C  1488               	bsf	(65/8),(65)&7
  2560                           	line	93
  2561                           ;addition.c: 93: RD2=1;
  2562  060D  1508               	bsf	(66/8),(66)&7
  2563                           	line	94
  2564                           ;addition.c: 94: RD3=1;
  2565  060E  1588               	bsf	(67/8),(67)&7
  2566                           	line	95
  2567                           ;addition.c: 95: RD0=0;
  2568  060F  1008               	bcf	(64/8),(64)&7
  2569                           	
  2570  0610                     l30001110:	
  2571                           	line	96
  2572                           ;addition.c: 96: PORTC=number[a];
  2573  0610  0820               	movf	(_a),w
  2574  0611  3E2C               	addlw	(_number)&0ffh
  2575  0612  0084               	movwf	fsr0
  2576  0613  1383               	bcf	status, 7	;select IRP bank0
  2577  0614  0800               	movf	indf,w
  2578  0615  0087               	movwf	(7)	;volatile
  2579                           	
  2580  0616                     l30001111:	
  2581                           	line	97
  2582                           ;addition.c: 97: time_delay(1000);
  2583  0616  30E8               	movlw	low(03E8h)
  2584  0617  00F0               	movwf	(?_time_delay)
  2585  0618  3003               	movlw	high(03E8h)
  2586  0619  00F1               	movwf	((?_time_delay))+1
  2587  061A  120A  118A  21D1   	fcall	_time_delay
              120A  118A         
  2588                           	
  2589  061F                     l30001112:	
  2590                           	line	99
  2591                           ;addition.c: 99: RD0=1;
  2592  061F  1283               	bcf	status, 5	;RP0=0, select bank0
  2593  0620  1303               	bcf	status, 6	;RP1=0, select bank0
  2594  0621  1408               	bsf	(64/8),(64)&7
  2595                           	
  2596  0622                     l30001113:	
  2597                           	line	100
  2598                           ;addition.c: 100: RD2=1;
  2599  0622  1508               	bsf	(66/8),(66)&7
  2600                           	
  2601  0623                     l30001114:	
  2602                           	line	101
  2603                           ;addition.c: 101: RD3=1;
  2604  0623  1588               	bsf	(67/8),(67)&7
  2605                           	
  2606  0624                     l30001115:	
  2607                           	line	102
  2608                           ;addition.c: 102: RD1=0;
  2609  0624  1088               	bcf	(65/8),(65)&7
  2610                           	
  2611  0625                     l30001116:	
  2612                           	line	103
  2613                           ;addition.c: 103: PORTC = number[b];
  2614  0625  0822               	movf	(_b),w
  2615  0626  3E2C               	addlw	(_number)&0ffh
  2616  0627  0084               	movwf	fsr0
  2617  0628  1383               	bcf	status, 7	;select IRP bank0
  2618  0629  0800               	movf	indf,w
  2619  062A  0087               	movwf	(7)	;volatile
  2620                           	line	104
  2621                           ;addition.c: 104: time_delay(1000);
  2622  062B  30E8               	movlw	low(03E8h)
  2623  062C  00F0               	movwf	(?_time_delay)
  2624  062D  3003               	movlw	high(03E8h)
  2625  062E  00F1               	movwf	((?_time_delay))+1
  2626  062F  120A  118A  21D1   	fcall	_time_delay
              120A  118A         
  2627                           	
  2628  0634                     l30001117:	
  2629                           	line	106
  2630                           ;addition.c: 106: RD0=1;
  2631  0634  1283               	bcf	status, 5	;RP0=0, select bank0
  2632  0635  1303               	bcf	status, 6	;RP1=0, select bank0
  2633  0636  1408               	bsf	(64/8),(64)&7
  2634                           	
  2635  0637                     l30001118:	
  2636                           	line	107
  2637                           ;addition.c: 107: RD1=1;
  2638  0637  1488               	bsf	(65/8),(65)&7
  2639                           	
  2640  0638                     l30001119:	
  2641                           	line	108
  2642                           ;addition.c: 108: RD3=1;
  2643  0638  1588               	bsf	(67/8),(67)&7
  2644                           	
  2645  0639                     l30001120:	
  2646                           	line	109
  2647                           ;addition.c: 109: RD2=0;
  2648  0639  1108               	bcf	(66/8),(66)&7
  2649                           	
  2650  063A                     l30001121:	
  2651                           	line	110
  2652                           ;addition.c: 110: PORTC = number[p];
  2653  063A  0826               	movf	(_p),w
  2654  063B  3E2C               	addlw	(_number)&0ffh
  2655  063C  0084               	movwf	fsr0
  2656  063D  1383               	bcf	status, 7	;select IRP bank0
  2657  063E  0800               	movf	indf,w
  2658  063F  0087               	movwf	(7)	;volatile
  2659                           	
  2660  0640                     l30001122:	
  2661                           	line	111
  2662                           ;addition.c: 111: time_delay(1000);
  2663  0640  30E8               	movlw	low(03E8h)
  2664  0641  00F0               	movwf	(?_time_delay)
  2665  0642  3003               	movlw	high(03E8h)
  2666  0643  00F1               	movwf	((?_time_delay))+1
  2667  0644  120A  118A  21D1   	fcall	_time_delay
              120A  118A         
  2668                           	
  2669  0649                     l30001123:	
  2670                           	line	113
  2671                           ;addition.c: 113: RD0=1;
  2672  0649  1283               	bcf	status, 5	;RP0=0, select bank0
  2673  064A  1303               	bcf	status, 6	;RP1=0, select bank0
  2674  064B  1408               	bsf	(64/8),(64)&7
  2675                           	
  2676  064C                     l30001124:	
  2677                           	line	114
  2678                           ;addition.c: 114: RD1=1;
  2679  064C  1488               	bsf	(65/8),(65)&7
  2680                           	
  2681  064D                     l30001125:	
  2682                           	line	115
  2683                           ;addition.c: 115: RD2=1;
  2684  064D  1508               	bsf	(66/8),(66)&7
  2685                           	
  2686  064E                     l30001126:	
  2687                           	line	116
  2688                           ;addition.c: 116: RD3=0;
  2689  064E  1188               	bcf	(67/8),(67)&7
  2690                           	line	117
  2691                           ;addition.c: 117: PORTC = number[q];
  2692  064F  0828               	movf	(_q),w
  2693  0650  3E2C               	addlw	(_number)&0ffh
  2694  0651  0084               	movwf	fsr0
  2695  0652  1383               	bcf	status, 7	;select IRP bank0
  2696  0653  0800               	movf	indf,w
  2697  0654  0087               	movwf	(7)	;volatile
  2698                           	
  2699  0655                     l30001127:	
  2700                           	line	118
  2701                           ;addition.c: 118: time_delay(1000);
  2702  0655  30E8               	movlw	low(03E8h)
  2703  0656  00F0               	movwf	(?_time_delay)
  2704  0657  3003               	movlw	high(03E8h)
  2705  0658  00F1               	movwf	((?_time_delay))+1
  2706  0659  120A  118A  21D1   	fcall	_time_delay
              120A  118A         
  2707                           	
  2708  065E                     l30001128:	
  2709                           	line	90
  2710  065E  3001               	movlw	low(01h)
  2711  065F  1283               	bcf	status, 5	;RP0=0, select bank0
  2712  0660  1303               	bcf	status, 6	;RP1=0, select bank0
  2713  0661  07BA               	addwf	(_j),f
  2714  0662  1803               	skipnc
  2715  0663  0ABB               	incf	(_j+1),f
  2716  0664  3000               	movlw	high(01h)
  2717  0665  07BB               	addwf	(_j+1),f
  2718                           	
  2719  0666                     l30001129:	
  2720  0666  083B               	movf	(_j+1),w
  2721  0667  3A80               	xorlw	80h
  2722  0668  00F7               	movwf	(??_display+0+0)
  2723  0669  3080               	movlw	(high(02h))^80h
  2724  066A  0277               	subwf	(??_display+0+0),w
  2725  066B  1D03               	skipz
  2726  066C  2E6F               	goto	u1495
  2727  066D  3002               	movlw	low(02h)
  2728  066E  023A               	subwf	(_j),w
  2729  066F                     u1495:
  2730                           
  2731  066F  1C03               	skipc
  2732  0670  2E72               	goto	u1491
  2733  0671  2E73               	goto	u1490
  2734  0672                     u1491:
  2735  0672  2E0A               	goto	l14
  2736  0673                     u1490:
  2737                           	
  2738  0673                     l30001130:	
  2739                           	line	122
  2740                           ;addition.c: 119: }
  2741                           ;addition.c: 120: }
  2742                           ;addition.c: 122: if(count==2)
  2743  0673  3002               	movlw	02h
  2744  0674  1283               	bcf	status, 5	;RP0=0, select bank0
  2745  0675  1303               	bcf	status, 6	;RP1=0, select bank0
  2746  0676  0636               	xorwf	(_count),w
  2747  0677  0437               	iorwf	(_count+1),w
  2748  0678  1D03               	skipz
  2749  0679  2E7B               	goto	u1501
  2750  067A  2E7C               	goto	u1500
  2751  067B                     u1501:
  2752  067B  2EF7               	goto	l30001153
  2753  067C                     u1500:
  2754                           	
  2755  067C                     l30001131:	
  2756                           	line	124
  2757                           ;addition.c: 123: {
  2758                           ;addition.c: 124: for(j=0;j<2;j++)
  2759  067C  3000               	movlw	low(0)
  2760  067D  00BA               	movwf	(_j)
  2761  067E  3000               	movlw	high(0)
  2762  067F  00BB               	movwf	((_j))+1
  2763  0680  083B               	movf	(_j+1),w
  2764  0681  3A80               	xorlw	80h
  2765  0682  00F7               	movwf	(??_display+0+0)
  2766  0683  3080               	movlw	(high(02h))^80h
  2767  0684  0277               	subwf	(??_display+0+0),w
  2768  0685  1D03               	skipz
  2769  0686  2E89               	goto	u1515
  2770  0687  3002               	movlw	low(02h)
  2771  0688  023A               	subwf	(_j),w
  2772  0689                     u1515:
  2773                           
  2774  0689  1C03               	skipc
  2775  068A  2E8C               	goto	u1511
  2776  068B  2E8D               	goto	u1510
  2777  068C                     u1511:
  2778  068C  2E8E               	goto	l18
  2779  068D                     u1510:
  2780  068D  2EF7               	goto	l30001153
  2781                           	
  2782  068E                     l18:	
  2783                           	line	126
  2784                           ;addition.c: 125: {
  2785                           ;addition.c: 126: RD1=1;
  2786  068E  1283               	bcf	status, 5	;RP0=0, select bank0
  2787  068F  1303               	bcf	status, 6	;RP1=0, select bank0
  2788  0690  1488               	bsf	(65/8),(65)&7
  2789                           	line	127
  2790                           ;addition.c: 127: RD2=1;
  2791  0691  1508               	bsf	(66/8),(66)&7
  2792                           	line	128
  2793                           ;addition.c: 128: RD3=1;
  2794  0692  1588               	bsf	(67/8),(67)&7
  2795                           	line	129
  2796                           ;addition.c: 129: RD0=0;
  2797  0693  1008               	bcf	(64/8),(64)&7
  2798                           	
  2799  0694                     l30001133:	
  2800                           	line	130
  2801                           ;addition.c: 130: PORTC=number[a];
  2802  0694  0820               	movf	(_a),w
  2803  0695  3E2C               	addlw	(_number)&0ffh
  2804  0696  0084               	movwf	fsr0
  2805  0697  1383               	bcf	status, 7	;select IRP bank0
  2806  0698  0800               	movf	indf,w
  2807  0699  0087               	movwf	(7)	;volatile
  2808                           	
  2809  069A                     l30001134:	
  2810                           	line	131
  2811                           ;addition.c: 131: time_delay(1000);
  2812  069A  30E8               	movlw	low(03E8h)
  2813  069B  00F0               	movwf	(?_time_delay)
  2814  069C  3003               	movlw	high(03E8h)
  2815  069D  00F1               	movwf	((?_time_delay))+1
  2816  069E  120A  118A  21D1   	fcall	_time_delay
              120A  118A         
  2817                           	
  2818  06A3                     l30001135:	
  2819                           	line	133
  2820                           ;addition.c: 133: RD0=1;
  2821  06A3  1283               	bcf	status, 5	;RP0=0, select bank0
  2822  06A4  1303               	bcf	status, 6	;RP1=0, select bank0
  2823  06A5  1408               	bsf	(64/8),(64)&7
  2824                           	
  2825  06A6                     l30001136:	
  2826                           	line	134
  2827                           ;addition.c: 134: RD2=1;
  2828  06A6  1508               	bsf	(66/8),(66)&7
  2829                           	
  2830  06A7                     l30001137:	
  2831                           	line	135
  2832                           ;addition.c: 135: RD3=1;
  2833  06A7  1588               	bsf	(67/8),(67)&7
  2834                           	
  2835  06A8                     l30001138:	
  2836                           	line	136
  2837                           ;addition.c: 136: RD1=0;
  2838  06A8  1088               	bcf	(65/8),(65)&7
  2839                           	
  2840  06A9                     l30001139:	
  2841                           	line	137
  2842                           ;addition.c: 137: PORTC = number[b];
  2843  06A9  0822               	movf	(_b),w
  2844  06AA  3E2C               	addlw	(_number)&0ffh
  2845  06AB  0084               	movwf	fsr0
  2846  06AC  1383               	bcf	status, 7	;select IRP bank0
  2847  06AD  0800               	movf	indf,w
  2848  06AE  0087               	movwf	(7)	;volatile
  2849                           	line	138
  2850                           ;addition.c: 138: time_delay(1000);
  2851  06AF  30E8               	movlw	low(03E8h)
  2852  06B0  00F0               	movwf	(?_time_delay)
  2853  06B1  3003               	movlw	high(03E8h)
  2854  06B2  00F1               	movwf	((?_time_delay))+1
  2855  06B3  120A  118A  21D1   	fcall	_time_delay
              120A  118A         
  2856                           	
  2857  06B8                     l30001140:	
  2858                           	line	140
  2859                           ;addition.c: 140: RD0=1;
  2860  06B8  1283               	bcf	status, 5	;RP0=0, select bank0
  2861  06B9  1303               	bcf	status, 6	;RP1=0, select bank0
  2862  06BA  1408               	bsf	(64/8),(64)&7
  2863                           	
  2864  06BB                     l30001141:	
  2865                           	line	141
  2866                           ;addition.c: 141: RD1=1;
  2867  06BB  1488               	bsf	(65/8),(65)&7
  2868                           	
  2869  06BC                     l30001142:	
  2870                           	line	142
  2871                           ;addition.c: 142: RD3=1;
  2872  06BC  1588               	bsf	(67/8),(67)&7
  2873                           	
  2874  06BD                     l30001143:	
  2875                           	line	143
  2876                           ;addition.c: 143: RD2=0;
  2877  06BD  1108               	bcf	(66/8),(66)&7
  2878                           	
  2879  06BE                     l30001144:	
  2880                           	line	144
  2881                           ;addition.c: 144: PORTC = number[q];
  2882  06BE  0828               	movf	(_q),w
  2883  06BF  3E2C               	addlw	(_number)&0ffh
  2884  06C0  0084               	movwf	fsr0
  2885  06C1  1383               	bcf	status, 7	;select IRP bank0
  2886  06C2  0800               	movf	indf,w
  2887  06C3  0087               	movwf	(7)	;volatile
  2888                           	
  2889  06C4                     l30001145:	
  2890                           	line	145
  2891                           ;addition.c: 145: time_delay(1000);
  2892  06C4  30E8               	movlw	low(03E8h)
  2893  06C5  00F0               	movwf	(?_time_delay)
  2894  06C6  3003               	movlw	high(03E8h)
  2895  06C7  00F1               	movwf	((?_time_delay))+1
  2896  06C8  120A  118A  21D1   	fcall	_time_delay
              120A  118A         
  2897                           	
  2898  06CD                     l30001146:	
  2899                           	line	147
  2900                           ;addition.c: 147: RD0=1;
  2901  06CD  1283               	bcf	status, 5	;RP0=0, select bank0
  2902  06CE  1303               	bcf	status, 6	;RP1=0, select bank0
  2903  06CF  1408               	bsf	(64/8),(64)&7
  2904                           	
  2905  06D0                     l30001147:	
  2906                           	line	148
  2907                           ;addition.c: 148: RD1=1;
  2908  06D0  1488               	bsf	(65/8),(65)&7
  2909                           	
  2910  06D1                     l30001148:	
  2911                           	line	149
  2912                           ;addition.c: 149: RD2=1;
  2913  06D1  1508               	bsf	(66/8),(66)&7
  2914                           	
  2915  06D2                     l30001149:	
  2916                           	line	150
  2917                           ;addition.c: 150: RD3=0;
  2918  06D2  1188               	bcf	(67/8),(67)&7
  2919                           	line	151
  2920                           ;addition.c: 151: PORTC = number[p];
  2921  06D3  0826               	movf	(_p),w
  2922  06D4  3E2C               	addlw	(_number)&0ffh
  2923  06D5  0084               	movwf	fsr0
  2924  06D6  1383               	bcf	status, 7	;select IRP bank0
  2925  06D7  0800               	movf	indf,w
  2926  06D8  0087               	movwf	(7)	;volatile
  2927                           	
  2928  06D9                     l30001150:	
  2929                           	line	152
  2930                           ;addition.c: 152: time_delay(1000);
  2931  06D9  30E8               	movlw	low(03E8h)
  2932  06DA  00F0               	movwf	(?_time_delay)
  2933  06DB  3003               	movlw	high(03E8h)
  2934  06DC  00F1               	movwf	((?_time_delay))+1
  2935  06DD  120A  118A  21D1   	fcall	_time_delay
              120A  118A         
  2936                           	
  2937  06E2                     l30001151:	
  2938                           	line	124
  2939  06E2  3001               	movlw	low(01h)
  2940  06E3  1283               	bcf	status, 5	;RP0=0, select bank0
  2941  06E4  1303               	bcf	status, 6	;RP1=0, select bank0
  2942  06E5  07BA               	addwf	(_j),f
  2943  06E6  1803               	skipnc
  2944  06E7  0ABB               	incf	(_j+1),f
  2945  06E8  3000               	movlw	high(01h)
  2946  06E9  07BB               	addwf	(_j+1),f
  2947                           	
  2948  06EA                     l30001152:	
  2949  06EA  083B               	movf	(_j+1),w
  2950  06EB  3A80               	xorlw	80h
  2951  06EC  00F7               	movwf	(??_display+0+0)
  2952  06ED  3080               	movlw	(high(02h))^80h
  2953  06EE  0277               	subwf	(??_display+0+0),w
  2954  06EF  1D03               	skipz
  2955  06F0  2EF3               	goto	u1525
  2956  06F1  3002               	movlw	low(02h)
  2957  06F2  023A               	subwf	(_j),w
  2958  06F3                     u1525:
  2959                           
  2960  06F3  1C03               	skipc
  2961  06F4  2EF6               	goto	u1521
  2962  06F5  2EF7               	goto	u1520
  2963  06F6                     u1521:
  2964  06F6  2E8E               	goto	l18
  2965  06F7                     u1520:
  2966                           	
  2967  06F7                     l30001153:	
  2968                           	line	156
  2969                           ;addition.c: 153: }
  2970                           ;addition.c: 154: }
  2971                           ;addition.c: 156: if(count==3)
  2972  06F7  3003               	movlw	03h
  2973  06F8  1283               	bcf	status, 5	;RP0=0, select bank0
  2974  06F9  1303               	bcf	status, 6	;RP1=0, select bank0
  2975  06FA  0636               	xorwf	(_count),w
  2976  06FB  0437               	iorwf	(_count+1),w
  2977  06FC  1D03               	skipz
  2978  06FD  2EFF               	goto	u1531
  2979  06FE  2F00               	goto	u1530
  2980  06FF                     u1531:
  2981  06FF  2F7B               	goto	l30001176
  2982  0700                     u1530:
  2983                           	
  2984  0700                     l30001154:	
  2985                           	line	158
  2986                           ;addition.c: 157: {
  2987                           ;addition.c: 158: for(j=0;j<2;j++)
  2988  0700  3000               	movlw	low(0)
  2989  0701  00BA               	movwf	(_j)
  2990  0702  3000               	movlw	high(0)
  2991  0703  00BB               	movwf	((_j))+1
  2992  0704  083B               	movf	(_j+1),w
  2993  0705  3A80               	xorlw	80h
  2994  0706  00F7               	movwf	(??_display+0+0)
  2995  0707  3080               	movlw	(high(02h))^80h
  2996  0708  0277               	subwf	(??_display+0+0),w
  2997  0709  1D03               	skipz
  2998  070A  2F0D               	goto	u1545
  2999  070B  3002               	movlw	low(02h)
  3000  070C  023A               	subwf	(_j),w
  3001  070D                     u1545:
  3002                           
  3003  070D  1C03               	skipc
  3004  070E  2F10               	goto	u1541
  3005  070F  2F11               	goto	u1540
  3006  0710                     u1541:
  3007  0710  2F12               	goto	l22
  3008  0711                     u1540:
  3009  0711  2F7B               	goto	l30001176
  3010                           	
  3011  0712                     l22:	
  3012                           	line	160
  3013                           ;addition.c: 159: {
  3014                           ;addition.c: 160: RD1=1;
  3015  0712  1283               	bcf	status, 5	;RP0=0, select bank0
  3016  0713  1303               	bcf	status, 6	;RP1=0, select bank0
  3017  0714  1488               	bsf	(65/8),(65)&7
  3018                           	line	161
  3019                           ;addition.c: 161: RD2=1;
  3020  0715  1508               	bsf	(66/8),(66)&7
  3021                           	line	162
  3022                           ;addition.c: 162: RD3=1;
  3023  0716  1588               	bsf	(67/8),(67)&7
  3024                           	line	163
  3025                           ;addition.c: 163: RD0=0;
  3026  0717  1008               	bcf	(64/8),(64)&7
  3027                           	
  3028  0718                     l30001156:	
  3029                           	line	164
  3030                           ;addition.c: 164: PORTC=number[a];
  3031  0718  0820               	movf	(_a),w
  3032  0719  3E2C               	addlw	(_number)&0ffh
  3033  071A  0084               	movwf	fsr0
  3034  071B  1383               	bcf	status, 7	;select IRP bank0
  3035  071C  0800               	movf	indf,w
  3036  071D  0087               	movwf	(7)	;volatile
  3037                           	
  3038  071E                     l30001157:	
  3039                           	line	165
  3040                           ;addition.c: 165: time_delay(1000);
  3041  071E  30E8               	movlw	low(03E8h)
  3042  071F  00F0               	movwf	(?_time_delay)
  3043  0720  3003               	movlw	high(03E8h)
  3044  0721  00F1               	movwf	((?_time_delay))+1
  3045  0722  120A  118A  21D1   	fcall	_time_delay
              120A  118A         
  3046                           	
  3047  0727                     l30001158:	
  3048                           	line	167
  3049                           ;addition.c: 167: RD0=1;
  3050  0727  1283               	bcf	status, 5	;RP0=0, select bank0
  3051  0728  1303               	bcf	status, 6	;RP1=0, select bank0
  3052  0729  1408               	bsf	(64/8),(64)&7
  3053                           	
  3054  072A                     l30001159:	
  3055                           	line	168
  3056                           ;addition.c: 168: RD2=1;
  3057  072A  1508               	bsf	(66/8),(66)&7
  3058                           	
  3059  072B                     l30001160:	
  3060                           	line	169
  3061                           ;addition.c: 169: RD3=1;
  3062  072B  1588               	bsf	(67/8),(67)&7
  3063                           	
  3064  072C                     l30001161:	
  3065                           	line	170
  3066                           ;addition.c: 170: RD1=0;
  3067  072C  1088               	bcf	(65/8),(65)&7
  3068                           	
  3069  072D                     l30001162:	
  3070                           	line	171
  3071                           ;addition.c: 171: PORTC = number[q];
  3072  072D  0828               	movf	(_q),w
  3073  072E  3E2C               	addlw	(_number)&0ffh
  3074  072F  0084               	movwf	fsr0
  3075  0730  1383               	bcf	status, 7	;select IRP bank0
  3076  0731  0800               	movf	indf,w
  3077  0732  0087               	movwf	(7)	;volatile
  3078                           	line	172
  3079                           ;addition.c: 172: time_delay(1000);
  3080  0733  30E8               	movlw	low(03E8h)
  3081  0734  00F0               	movwf	(?_time_delay)
  3082  0735  3003               	movlw	high(03E8h)
  3083  0736  00F1               	movwf	((?_time_delay))+1
  3084  0737  120A  118A  21D1   	fcall	_time_delay
              120A  118A         
  3085                           	
  3086  073C                     l30001163:	
  3087                           	line	174
  3088                           ;addition.c: 174: RD0=1;
  3089  073C  1283               	bcf	status, 5	;RP0=0, select bank0
  3090  073D  1303               	bcf	status, 6	;RP1=0, select bank0
  3091  073E  1408               	bsf	(64/8),(64)&7
  3092                           	
  3093  073F                     l30001164:	
  3094                           	line	175
  3095                           ;addition.c: 175: RD1=1;
  3096  073F  1488               	bsf	(65/8),(65)&7
  3097                           	
  3098  0740                     l30001165:	
  3099                           	line	176
  3100                           ;addition.c: 176: RD3=1;
  3101  0740  1588               	bsf	(67/8),(67)&7
  3102                           	
  3103  0741                     l30001166:	
  3104                           	line	177
  3105                           ;addition.c: 177: RD2=0;
  3106  0741  1108               	bcf	(66/8),(66)&7
  3107                           	
  3108  0742                     l30001167:	
  3109                           	line	178
  3110                           ;addition.c: 178: PORTC = number[p];
  3111  0742  0826               	movf	(_p),w
  3112  0743  3E2C               	addlw	(_number)&0ffh
  3113  0744  0084               	movwf	fsr0
  3114  0745  1383               	bcf	status, 7	;select IRP bank0
  3115  0746  0800               	movf	indf,w
  3116  0747  0087               	movwf	(7)	;volatile
  3117                           	
  3118  0748                     l30001168:	
  3119                           	line	179
  3120                           ;addition.c: 179: time_delay(1000);
  3121  0748  30E8               	movlw	low(03E8h)
  3122  0749  00F0               	movwf	(?_time_delay)
  3123  074A  3003               	movlw	high(03E8h)
  3124  074B  00F1               	movwf	((?_time_delay))+1
  3125  074C  120A  118A  21D1   	fcall	_time_delay
              120A  118A         
  3126                           	
  3127  0751                     l30001169:	
  3128                           	line	181
  3129                           ;addition.c: 181: RD0=1;
  3130  0751  1283               	bcf	status, 5	;RP0=0, select bank0
  3131  0752  1303               	bcf	status, 6	;RP1=0, select bank0
  3132  0753  1408               	bsf	(64/8),(64)&7
  3133                           	
  3134  0754                     l30001170:	
  3135                           	line	182
  3136                           ;addition.c: 182: RD1=1;
  3137  0754  1488               	bsf	(65/8),(65)&7
  3138                           	
  3139  0755                     l30001171:	
  3140                           	line	183
  3141                           ;addition.c: 183: RD2=1;
  3142  0755  1508               	bsf	(66/8),(66)&7
  3143                           	
  3144  0756                     l30001172:	
  3145                           	line	184
  3146                           ;addition.c: 184: RD3=0;
  3147  0756  1188               	bcf	(67/8),(67)&7
  3148                           	line	185
  3149                           ;addition.c: 185: PORTC = number[b];
  3150  0757  0822               	movf	(_b),w
  3151  0758  3E2C               	addlw	(_number)&0ffh
  3152  0759  0084               	movwf	fsr0
  3153  075A  1383               	bcf	status, 7	;select IRP bank0
  3154  075B  0800               	movf	indf,w
  3155  075C  0087               	movwf	(7)	;volatile
  3156                           	
  3157  075D                     l30001173:	
  3158                           	line	186
  3159                           ;addition.c: 186: time_delay(1000);
  3160  075D  30E8               	movlw	low(03E8h)
  3161  075E  00F0               	movwf	(?_time_delay)
  3162  075F  3003               	movlw	high(03E8h)
  3163  0760  00F1               	movwf	((?_time_delay))+1
  3164  0761  120A  118A  21D1   	fcall	_time_delay
              120A  118A         
  3165                           	
  3166  0766                     l30001174:	
  3167                           	line	158
  3168  0766  3001               	movlw	low(01h)
  3169  0767  1283               	bcf	status, 5	;RP0=0, select bank0
  3170  0768  1303               	bcf	status, 6	;RP1=0, select bank0
  3171  0769  07BA               	addwf	(_j),f
  3172  076A  1803               	skipnc
  3173  076B  0ABB               	incf	(_j+1),f
  3174  076C  3000               	movlw	high(01h)
  3175  076D  07BB               	addwf	(_j+1),f
  3176                           	
  3177  076E                     l30001175:	
  3178  076E  083B               	movf	(_j+1),w
  3179  076F  3A80               	xorlw	80h
  3180  0770  00F7               	movwf	(??_display+0+0)
  3181  0771  3080               	movlw	(high(02h))^80h
  3182  0772  0277               	subwf	(??_display+0+0),w
  3183  0773  1D03               	skipz
  3184  0774  2F77               	goto	u1555
  3185  0775  3002               	movlw	low(02h)
  3186  0776  023A               	subwf	(_j),w
  3187  0777                     u1555:
  3188                           
  3189  0777  1C03               	skipc
  3190  0778  2F7A               	goto	u1551
  3191  0779  2F7B               	goto	u1550
  3192  077A                     u1551:
  3193  077A  2F12               	goto	l22
  3194  077B                     u1550:
  3195                           	
  3196  077B                     l30001176:	
  3197                           	line	190
  3198                           ;addition.c: 187: }
  3199                           ;addition.c: 188: }
  3200                           ;addition.c: 190: if(count==4)
  3201  077B  3004               	movlw	04h
  3202  077C  1283               	bcf	status, 5	;RP0=0, select bank0
  3203  077D  1303               	bcf	status, 6	;RP1=0, select bank0
  3204  077E  0636               	xorwf	(_count),w
  3205  077F  0437               	iorwf	(_count+1),w
  3206  0780  1D03               	skipz
  3207  0781  2F83               	goto	u1561
  3208  0782  2F84               	goto	u1560
  3209  0783                     u1561:
  3210  0783  2FFF               	goto	l12
  3211  0784                     u1560:
  3212                           	
  3213  0784                     l30001177:	
  3214                           	line	192
  3215                           ;addition.c: 191: {
  3216                           ;addition.c: 192: for(j=0;j<2;j++)
  3217  0784  3000               	movlw	low(0)
  3218  0785  00BA               	movwf	(_j)
  3219  0786  3000               	movlw	high(0)
  3220  0787  00BB               	movwf	((_j))+1
  3221  0788  083B               	movf	(_j+1),w
  3222  0789  3A80               	xorlw	80h
  3223  078A  00F7               	movwf	(??_display+0+0)
  3224  078B  3080               	movlw	(high(02h))^80h
  3225  078C  0277               	subwf	(??_display+0+0),w
  3226  078D  1D03               	skipz
  3227  078E  2F91               	goto	u1575
  3228  078F  3002               	movlw	low(02h)
  3229  0790  023A               	subwf	(_j),w
  3230  0791                     u1575:
  3231                           
  3232  0791  1C03               	skipc
  3233  0792  2F94               	goto	u1571
  3234  0793  2F95               	goto	u1570
  3235  0794                     u1571:
  3236  0794  2F96               	goto	l26
  3237  0795                     u1570:
  3238  0795  2FFF               	goto	l12
  3239                           	
  3240  0796                     l26:	
  3241                           	line	194
  3242                           ;addition.c: 193: {
  3243                           ;addition.c: 194: RD1=1;
  3244  0796  1283               	bcf	status, 5	;RP0=0, select bank0
  3245  0797  1303               	bcf	status, 6	;RP1=0, select bank0
  3246  0798  1488               	bsf	(65/8),(65)&7
  3247                           	line	195
  3248                           ;addition.c: 195: RD2=1;
  3249  0799  1508               	bsf	(66/8),(66)&7
  3250                           	line	196
  3251                           ;addition.c: 196: RD3=1;
  3252  079A  1588               	bsf	(67/8),(67)&7
  3253                           	line	197
  3254                           ;addition.c: 197: RD0=0;
  3255  079B  1008               	bcf	(64/8),(64)&7
  3256                           	
  3257  079C                     l30001179:	
  3258                           	line	198
  3259                           ;addition.c: 198: PORTC=number[q];
  3260  079C  0828               	movf	(_q),w
  3261  079D  3E2C               	addlw	(_number)&0ffh
  3262  079E  0084               	movwf	fsr0
  3263  079F  1383               	bcf	status, 7	;select IRP bank0
  3264+ 07A0  0800               	movf	indf,w
  3265+ 07A1  0087               	movwf	(7)	;volatile
  3266+                          	
  3267+ 07A2                     l30001180:	
  3268+                          	line	199
  3269+                          ;addition.c: 199: time_delay(1000);
  3270+ 07A2  30E8               	movlw	low(03E8h)
  3271+ 07A3  00F0               	movwf	(?_time_delay)
  3272+ 07A4  3003               	movlw	high(03E8h)
  3273+ 07A5  00F1               	movwf	((?_time_delay))+1
  3274+ 07A6  120A  118A  21D1   	fcall	_time_delay
      +       120A  118A         
  3275+                          	
  3276+ 07AB                     l30001181:	
  3277+                          	line	201
  3278+                          ;addition.c: 201: RD0=1;
  3279+ 07AB  1283               	bcf	status, 5	;RP0=0, select bank0
  3280+ 07AC  1303               	bcf	status, 6	;RP1=0, select bank0
  3281+ 07AD  1408               	bsf	(64/8),(64)&7
  3282+                          	
  3283+ 07AE                     l30001182:	
  3284+                          	line	202
  3285+                          ;addition.c: 202: RD2=1;
  3286+ 07AE  1508               	bsf	(66/8),(66)&7
  3287+                          	
  3288+ 07AF                     l30001183:	
  3289+                          	line	203
  3290+                          ;addition.c: 203: RD3=1;
  3291+ 07AF  1588               	bsf	(67/8),(67)&7
  3292+                          	
  3293+ 07B0                     l30001184:	
  3294+                          	line	204
  3295+                          ;addition.c: 204: RD1=0;
  3296+ 07B0  1088               	bcf	(65/8),(65)&7
  3297+                          	
  3298+ 07B1                     l30001185:	
  3299+                          	line	205
  3300+                          ;addition.c: 205: PORTC = number[p];
  3301+ 07B1  0826               	movf	(_p),w
  3302+ 07B2  3E2C               	addlw	(_number)&0ffh
  3303+ 07B3  0084               	movwf	fsr0
  3304+ 07B4  1383               	bcf	status, 7	;select IRP bank0
  3305+ 07B5  0800               	movf	indf,w
  3306+ 07B6  0087               	movwf	(7)	;volatile
  3307+                          	line	206
  3308+                          ;addition.c: 206: time_delay(1000);
  3309+ 07B7  30E8               	movlw	low(03E8h)
  3310+ 07B8  00F0               	movwf	(?_time_delay)
  3311+ 07B9  3003               	movlw	high(03E8h)
  3312+ 07BA  00F1               	movwf	((?_time_delay))+1
  3313+ 07BB  120A  118A  21D1   	fcall	_time_delay
      +       120A  118A         
  3314+                          	
  3315+ 07C0                     l30001186:	
  3316+                          	line	208
  3317+                          ;addition.c: 208: RD0=1;
  3318+ 07C0  1283               	bcf	status, 5	;RP0=0, select bank0
  3319+ 07C1  1303               	bcf	status, 6	;RP1=0, select bank0
  3320+ 07C2  1408               	bsf	(64/8),(64)&7
  3321+                          	
  3322+ 07C3                     l30001187:	
  3323+                          	line	209
  3324+                          ;addition.c: 209: RD1=1;
  3325+ 07C3  1488               	bsf	(65/8),(65)&7
  3326+                          	
  3327+ 07C4                     l30001188:	
  3328+                          	line	210
  3329+                          ;addition.c: 210: RD3=1;
  3330+ 07C4  1588               	bsf	(67/8),(67)&7
  3331+                          	
  3332+ 07C5                     l30001189:	
  3333+                          	line	211
  3334+                          ;addition.c: 211: RD2=0;
  3335+ 07C5  1108               	bcf	(66/8),(66)&7
  3336+                          	
  3337+ 07C6                     l30001190:	
  3338+                          	line	212
  3339+                          ;addition.c: 212: PORTC = number[b];
  3340+ 07C6  0822               	movf	(_b),w
  3341+ 07C7  3E2C               	addlw	(_number)&0ffh
  3342+ 07C8  0084               	movwf	fsr0
  3343+ 07C9  1383               	bcf	status, 7	;select IRP bank0
  3344+ 07CA  0800               	movf	indf,w
  3345+ 07CB  0087               	movwf	(7)	;volatile
  3346+                          	
  3347+ 07CC                     l30001191:	
  3348+                          	line	213
  3349+                          ;addition.c: 213: time_delay(1000);
  3350+ 07CC  30E8               	movlw	low(03E8h)
  3351+ 07CD  00F0               	movwf	(?_time_delay)
  3352+ 07CE  3003               	movlw	high(03E8h)
  3353+ 07CF  00F1               	movwf	((?_time_delay))+1
  3354+ 07D0  120A  118A  21D1   	fcall	_time_delay
      +       120A  118A         
  3355+                          	
  3356+ 07D5                     l30001192:	
  3357+                          	line	215
  3358+                          ;addition.c: 215: RD0=1;
  3359+ 07D5  1283               	bcf	status, 5	;RP0=0, select bank0
  3360+ 07D6  1303               	bcf	status, 6	;RP1=0, select bank0
  3361+ 07D7  1408               	bsf	(64/8),(64)&7
  3362+                          	
  3363+ 07D8                     l30001193:	
  3364+                          	line	216
  3365+                          ;addition.c: 216: RD1=1;
  3366+ 07D8  1488               	bsf	(65/8),(65)&7
  3367+                          	
  3368+ 07D9                     l30001194:	
  3369+                          	line	217
  3370+                          ;addition.c: 217: RD2=1;
  3371+ 07D9  1508               	bsf	(66/8),(66)&7
  3372+                          	
  3373+ 07DA                     l30001195:	
  3374+                          	line	218
  3375+                          ;addition.c: 218: RD3=0;
  3376+ 07DA  1188               	bcf	(67/8),(67)&7
  3377+                          	line	219
  3378+                          ;addition.c: 219: PORTC = number[a];
  3379+ 07DB  0820               	movf	(_a),w
  3380+ 07DC  3E2C               	addlw	(_number)&0ffh
  3381+ 07DD  0084               	movwf	fsr0
  3382+ 07DE  1383               	bcf	status, 7	;select IRP bank0
  3383+ 07DF  0800               	movf	indf,w
  3384+ 07E0  0087               	movwf	(7)	;volatile
  3385+                          	
  3386+ 07E1                     l30001196:	
  3387+                          	line	220
  3388+                          ;addition.c: 220: time_delay(1000);
  3389+ 07E1  30E8               	movlw	low(03E8h)
  3390+ 07E2  00F0               	movwf	(?_time_delay)
  3391+ 07E3  3003               	movlw	high(03E8h)
  3392+ 07E4  00F1               	movwf	((?_time_delay))+1
  3393+ 07E5  120A  118A  21D1   	fcall	_time_delay
      +       120A  118A         
  3394+                          	
  3395+ 07EA                     l30001197:	
  3396+                          	line	192
  3397+ 07EA  3001               	movlw	low(01h)
  3398+ 07EB  1283               	bcf	status, 5	;RP0=0, select bank0
  3399+ 07EC  1303               	bcf	status, 6	;RP1=0, select bank0
  3400+ 07ED  07BA               	addwf	(_j),f
  3401+ 07EE  1803               	skipnc
  3402+ 07EF  0ABB               	incf	(_j+1),f
  3403+ 07F0  3000               	movlw	high(01h)
  3404+ 07F1  07BB               	addwf	(_j+1),f
  3405+                          	
  3406+ 07F2                     l30001198:	
  3407+ 07F2  083B               	movf	(_j+1),w
  3408+ 07F3  3A80               	xorlw	80h
  3409+ 07F4  00F7               	movwf	(??_display+0+0)
  3410+ 07F5  3080               	movlw	(high(02h))^80h
  3411+ 07F6  0277               	subwf	(??_display+0+0),w
  3412+ 07F7  1D03               	skipz
  3413+ 07F8  2FFB               	goto	u1585
  3414+ 07F9  3002               	movlw	low(02h)
  3415+ 07FA  023A               	subwf	(_j),w
  3416+ 07FB                     u1585:
  3417+                          
  3418+ 07FB  1C03               	skipc
  3419+ 07FC  2FFE               	goto	u1581
  3420+ 07FD  2FFF               	goto	u1580
  3421+ 07FE                     u1581:
  3422+ 07FE  2F96               	goto	l26
  3423  07FF                     u1580:
  3424                           	
  3425  07FF                     l12:	
  3426  07FF  0008               	return
  3427                           	opt stack 0
  3428                           GLOBAL	__end_of_display
  3429  0800                     	__end_of_display:
  3430                           ; =============== function _display ends ============
  3431                           
  3432                           psect	text42,local,class=CODE,delta=2
  3433                           global __ptext42
  3434  01D1                     __ptext42:
  3435                           	line	225
  3436                           	signat	_display,4216
  3437                           	global	_time_delay
  3438                           
  3439                           ; *************** function _time_delay *****************
  3440                           ; Defined at:
  3441                           ;		line 22 in file "C:\Users\gowth\Documents\PIC Programs\Keypad\4 segment addition\addi
                                 tion.c"
  3442                           ; Parameters:    Size  Location     Type
  3443                           ;  x               2    0[COMMON] int 
  3444                           ; Auto vars:     Size  Location     Type
  3445                           ;		None
  3446                           ; Return value:  Size  Location     Type
  3447                           ;		None               void
  3448                           ; Registers used:
  3449                           ;		wreg
  3450                           ; Tracked objects:
  3451                           ;		On entry : 0/0
  3452                           ;		On exit  : 0/0
  3453                           ;		Unchanged: 0/0
  3454                           ; Data sizes:     COMMON   BANK0   BANK1   BANK3   BANK2
  3455                           ;      Locals:         2       0       0       0       0
  3456                           ;      Temp:     0
  3457                           ;      Total:    2
  3458                           ; This function calls:
  3459                           ;		Nothing
  3460                           ; This function is called by:
  3461                           ;		_addition
  3462                           ;		_display
  3463                           ; This function uses a non-reentrant model
  3464                           ; 
  3465                           psect	text42
  3466                           	file	"C:\Users\gowth\Documents\PIC Programs\Keypad\4 segment addition\addition.c"
  3467                           	line	22
  3468                           	global	__size_of_time_delay
  3469  0011                     	__size_of_time_delay	equ	__end_of_time_delay-_time_delay
  3470                           ;pic16f887.h: 19: volatile unsigned char INDF @ 0x000;
  3471                           ;pic16f887.h: 20: volatile unsigned char TMR0 @ 0x001;
  3472                           ;pic16f887.h: 21: volatile unsigned char PCL @ 0x002;
  3473                           ;pic16f887.h: 22: volatile unsigned char STATUS @ 0x003;
  3474                           ;pic16f887.h: 23: unsigned char FSR @ 0x004;
  3475                           ;pic16f887.h: 24: volatile unsigned char PORTA @ 0x005;
  3476                           ;pic16f887.h: 25: volatile unsigned char PORTB @ 0x006;
  3477                           ;pic16f887.h: 26: volatile unsigned char PORTC @ 0x007;
  3478                           ;pic16f887.h: 28: volatile unsigned char PORTD @ 0x008;
  3479                           ;pic16f887.h: 30: volatile unsigned char PORTE @ 0x009;
  3480                           	
  3481  01D1                     _time_delay:	
  3482                           	opt stack 6
  3483                           ; Regs used in _time_delay: [wreg]
  3484                           	
  3485  01D1                     l30000963:	
  3486                           	
  3487  01D1                     l30000964:	
  3488                           	line	23
  3489  01D1  30FF               	movlw	low(-1)
  3490  01D2  07F0               	addwf	(time_delay@x),f
  3491  01D3  1803               	skipnc
  3492  01D4  0AF1               	incf	(time_delay@x+1),f
  3493  01D5  30FF               	movlw	high(-1)
  3494  01D6  07F1               	addwf	(time_delay@x+1),f
  3495  01D7  30FF               	movlw	high(-1)
  3496  01D8  0671               	xorwf	((time_delay@x+1))&07fh,w
  3497  01D9  1D03               	skipz
  3498  01DA  29DD               	goto	u935
  3499  01DB  30FF               	movlw	low(-1)
  3500  01DC  0670               	xorwf	((time_delay@x))&07fh,w
  3501  01DD                     u935:
  3502                           
  3503  01DD  1D03               	skipz
  3504  01DE  29E0               	goto	u931
  3505  01DF  29E1               	goto	u930
  3506  01E0                     u931:
  3507  01E0  29D1               	goto	l30000964
  3508  01E1                     u930:
  3509                           	
  3510  01E1                     l1:	
  3511  01E1  0008               	return
  3512                           	opt stack 0
  3513                           GLOBAL	__end_of_time_delay
  3514  01E2                     	__end_of_time_delay:
  3515                           ; =============== function _time_delay ends ============
  3516                           
  3517                           psect	text43,local,class=CODE,delta=2
  3518                           global __ptext43
  3519  026F                     __ptext43:
  3520                           	line	24
  3521                           	signat	_time_delay,4216
  3522                           	global	___awdiv
  3523                           
  3524                           ; *************** function ___awdiv *****************
  3525                           ; Defined at:
  3526                           ;		line 5 in file "C:\Program Files (x86)\HI-TECH Software\PICC\9.70\sources\awdiv.c"
  3527                           ; Parameters:    Size  Location     Type
  3528                           ;  dividend        2    0[BANK0 ] int 
  3529                           ;  divisor         2    2[BANK0 ] int 
  3530                           ; Auto vars:     Size  Location     Type
  3531                           ;  quotient        2    3[COMMON] int 
  3532                           ;  sign            1    2[COMMON] unsigned char 
  3533                           ;  counter         1    1[COMMON] unsigned char 
  3534                           ; Return value:  Size  Location     Type
  3535                           ;                  2    0[BANK0 ] int 
  3536                           ; Registers used:
  3537                           ;		wreg, status,2, status,0
  3538                           ; Tracked objects:
  3539                           ;		On entry : 0/0
  3540                           ;		On exit  : 0/0
  3541                           ;		Unchanged: 0/0
  3542                           ; Data sizes:     COMMON   BANK0   BANK1   BANK3   BANK2
  3543                           ;      Locals:         5       4       0       0       0
  3544                           ;      Temp:     1
  3545                           ;      Total:    9
  3546                           ; This function calls:
  3547                           ;		Nothing
  3548                           ; This function is called by:
  3549                           ;		_addition
  3550                           ;		_display
  3551                           ; This function uses a non-reentrant model
  3552                           ; 
  3553                           psect	text43
  3554                           	file	"C:\Program Files (x86)\HI-TECH Software\PICC\9.70\sources\awdiv.c"
  3555                           	line	5
  3556                           	global	__size_of___awdiv
  3557  0072                     	__size_of___awdiv	equ	__end_of___awdiv-___awdiv
  3558                           	
  3559  026F                     ___awdiv:	
  3560                           	opt stack 6
  3561                           ; Regs used in ___awdiv: [wreg+status,2+status,0]
  3562                           	line	9
  3563                           	
  3564  026F                     l30001014:	
  3565  026F  1003               	clrc
  3566  0270  3000               	movlw	0
  3567  0271  1803               	btfsc	status,0
  3568  0272  3001               	movlw	1
  3569  0273  00F2               	movwf	(___awdiv@sign)
  3570                           	
  3571  0274                     l30001015:	
  3572                           	line	10
  3573  0274  1283               	bcf	status, 5	;RP0=0, select bank0
  3574  0275  1303               	bcf	status, 6	;RP1=0, select bank0
  3575  0276  1FC1               	btfss	(___awdiv@divisor+1),7
  3576  0277  2A79               	goto	u1131
  3577  0278  2A7A               	goto	u1130
  3578  0279                     u1131:
  3579  0279  2A82               	goto	l30001017
  3580  027A                     u1130:
  3581                           	
  3582  027A                     l30001016:	
  3583                           	line	11
  3584  027A  09C0               	comf	(___awdiv@divisor),f
  3585  027B  09C1               	comf	(___awdiv@divisor+1),f
  3586  027C  0AC0               	incf	(___awdiv@divisor),f
  3587  027D  1903               	skipnz
  3588  027E  0AC1               	incf	(___awdiv@divisor+1),f
  3589                           	line	12
  3590  027F  01F2               	clrf	(___awdiv@sign)
  3591  0280  1403               	bsf	status,0
  3592  0281  0DF2               	rlf	(___awdiv@sign),f
  3593                           	
  3594  0282                     l30001017:	
  3595                           	line	14
  3596  0282  1FBF               	btfss	(___awdiv@dividend+1),7
  3597  0283  2A85               	goto	u1141
  3598  0284  2A86               	goto	u1140
  3599  0285                     u1141:
  3600  0285  2A8F               	goto	l228
  3601  0286                     u1140:
  3602                           	
  3603  0286                     l30001018:	
  3604                           	line	15
  3605  0286  09BE               	comf	(___awdiv@dividend),f
  3606  0287  09BF               	comf	(___awdiv@dividend+1),f
  3607  0288  0ABE               	incf	(___awdiv@dividend),f
  3608  0289  1903               	skipnz
  3609  028A  0ABF               	incf	(___awdiv@dividend+1),f
  3610                           	
  3611  028B                     l30001019:	
  3612                           	line	16
  3613  028B  3001               	movlw	(01h)
  3614  028C  00F0               	movwf	(??___awdiv+0+0)
  3615  028D  0870               	movf	(??___awdiv+0+0),w
  3616  028E  06F2               	xorwf	(___awdiv@sign),f
  3617                           	
  3618  028F                     l228:	
  3619                           	line	18
  3620  028F  3000               	movlw	low(0)
  3621  0290  00F3               	movwf	(___awdiv@quotient)
  3622  0291  3000               	movlw	high(0)
  3623  0292  00F4               	movwf	((___awdiv@quotient))+1
  3624                           	line	19
  3625  0293  0841               	movf	(___awdiv@divisor+1),w
  3626  0294  0440               	iorwf	(___awdiv@divisor),w
  3627  0295  1903               	skipnz
  3628  0296  2A98               	goto	u1151
  3629  0297  2A99               	goto	u1150
  3630  0298                     u1151:
  3631  0298  2AD1               	goto	l30001029
  3632  0299                     u1150:
  3633                           	
  3634  0299                     l30001020:	
  3635                           	line	20
  3636  0299  01F1               	clrf	(___awdiv@counter)
  3637  029A  1403               	bsf	status,0
  3638  029B  0DF1               	rlf	(___awdiv@counter),f
  3639  029C  2AA8               	goto	l30001023
  3640                           	
  3641  029D                     l30001021:	
  3642                           	line	22
  3643  029D  3001               	movlw	01h
  3644  029E                     u1165:
  3645  029E  1003               	clrc
  3646  029F  0DC0               	rlf	(___awdiv@divisor),f
  3647  02A0  0DC1               	rlf	(___awdiv@divisor+1),f
  3648  02A1  3EFF               	addlw	-1
  3649  02A2  1D03               	skipz
  3650  02A3  2A9E               	goto	u1165
  3651                           	
  3652  02A4                     l30001022:	
  3653                           	line	23
  3654  02A4  3001               	movlw	(01h)
  3655  02A5  00F0               	movwf	(??___awdiv+0+0)
  3656  02A6  0870               	movf	(??___awdiv+0+0),w
  3657  02A7  07F1               	addwf	(___awdiv@counter),f
  3658                           	
  3659  02A8                     l30001023:	
  3660                           	line	21
  3661  02A8  1FC1               	btfss	(___awdiv@divisor+1),(15)&7
  3662  02A9  2AAB               	goto	u1171
  3663  02AA  2AAC               	goto	u1170
  3664  02AB                     u1171:
  3665  02AB  2A9D               	goto	l30001021
  3666  02AC                     u1170:
  3667                           	
  3668  02AC                     l30001024:	
  3669                           	line	26
  3670  02AC  3001               	movlw	01h
  3671  02AD                     u1185:
  3672  02AD  1003               	clrc
  3673  02AE  0DF3               	rlf	(___awdiv@quotient),f
  3674  02AF  0DF4               	rlf	(___awdiv@quotient+1),f
  3675  02B0  3EFF               	addlw	-1
  3676  02B1  1D03               	skipz
  3677  02B2  2AAD               	goto	u1185
  3678                           	line	27
  3679  02B3  0841               	movf	(___awdiv@divisor+1),w
  3680  02B4  023F               	subwf	(___awdiv@dividend+1),w
  3681  02B5  1D03               	skipz
  3682  02B6  2AB9               	goto	u1195
  3683  02B7  0840               	movf	(___awdiv@divisor),w
  3684  02B8  023E               	subwf	(___awdiv@dividend),w
  3685  02B9                     u1195:
  3686  02B9  1C03               	skipc
  3687  02BA  2ABC               	goto	u1191
  3688  02BB  2ABD               	goto	u1190
  3689  02BC                     u1191:
  3690  02BC  2AC4               	goto	l30001027
  3691  02BD                     u1190:
  3692                           	
  3693  02BD                     l30001025:	
  3694                           	line	28
  3695  02BD  0840               	movf	(___awdiv@divisor),w
  3696  02BE  02BE               	subwf	(___awdiv@dividend),f
  3697  02BF  0841               	movf	(___awdiv@divisor+1),w
  3698  02C0  1C03               	skipc
  3699  02C1  03BF               	decf	(___awdiv@dividend+1),f
  3700  02C2  02BF               	subwf	(___awdiv@dividend+1),f
  3701                           	
  3702  02C3                     l30001026:	
  3703                           	line	29
  3704  02C3  1473               	bsf	(___awdiv@quotient)+(0/8),(0)&7
  3705                           	
  3706  02C4                     l30001027:	
  3707                           	line	31
  3708  02C4  3001               	movlw	01h
  3709  02C5                     u1205:
  3710  02C5  1003               	clrc
  3711  02C6  0CC1               	rrf	(___awdiv@divisor+1),f
  3712  02C7  0CC0               	rrf	(___awdiv@divisor),f
  3713  02C8  3EFF               	addlw	-1
  3714  02C9  1D03               	skipz
  3715  02CA  2AC5               	goto	u1205
  3716                           	
  3717  02CB                     l30001028:	
  3718                           	line	32
  3719  02CB  3001               	movlw	low(01h)
  3720  02CC  02F1               	subwf	(___awdiv@counter),f
  3721  02CD  1D03               	btfss	status,2
  3722  02CE  2AD0               	goto	u1211
  3723  02CF  2AD1               	goto	u1210
  3724  02D0                     u1211:
  3725  02D0  2AAC               	goto	l30001024
  3726  02D1                     u1210:
  3727                           	
  3728  02D1                     l30001029:	
  3729                           	line	34
  3730  02D1  0872               	movf	(___awdiv@sign),w
  3731  02D2  1D03               	skipz
  3732  02D3  2AD5               	goto	u1220
  3733  02D4  2ADA               	goto	l30001031
  3734  02D5                     u1220:
  3735                           	
  3736  02D5                     l30001030:	
  3737                           	line	35
  3738  02D5  09F3               	comf	(___awdiv@quotient),f
  3739  02D6  09F4               	comf	(___awdiv@quotient+1),f
  3740  02D7  0AF3               	incf	(___awdiv@quotient),f
  3741  02D8  1903               	skipnz
  3742  02D9  0AF4               	incf	(___awdiv@quotient+1),f
  3743                           	
  3744  02DA                     l30001031:	
  3745                           	line	36
  3746  02DA  0874               	movf	(___awdiv@quotient+1),w
  3747  02DB  01BF               	clrf	(?___awdiv+1)
  3748  02DC  07BF               	addwf	(?___awdiv+1)
  3749  02DD  0873               	movf	(___awdiv@quotient),w
  3750  02DE  01BE               	clrf	(?___awdiv)
  3751  02DF  07BE               	addwf	(?___awdiv)
  3752                           
  3753                           	
  3754  02E0                     l226:	
  3755  02E0  0008               	return
  3756                           	opt stack 0
  3757                           GLOBAL	__end_of___awdiv
  3758  02E1                     	__end_of___awdiv:
  3759                           ; =============== function ___awdiv ends ============
  3760                           
  3761                           psect	text44,local,class=CODE,delta=2
  3762                           global __ptext44
  3763  020F                     __ptext44:
  3764                           	line	37
  3765                           	signat	___awdiv,8314
  3766                           	global	___awmod
  3767                           
  3768                           ; *************** function ___awmod *****************
  3769                           ; Defined at:
  3770                           ;		line 5 in file "C:\Program Files (x86)\HI-TECH Software\PICC\9.70\sources\awmod.c"
  3771                           ; Parameters:    Size  Location     Type
  3772                           ;  dividend        2    3[COMMON] int 
  3773                           ;  divisor         2    5[COMMON] int 
  3774                           ; Auto vars:     Size  Location     Type
  3775                           ;  sign            1    1[COMMON] unsigned char 
  3776                           ;  counter         1    2[COMMON] unsigned char 
  3777                           ; Return value:  Size  Location     Type
  3778                           ;                  2    3[COMMON] int 
  3779                           ; Registers used:
  3780                           ;		wreg, status,2, status,0
  3781                           ; Tracked objects:
  3782                           ;		On entry : 0/0
  3783                           ;		On exit  : 0/0
  3784                           ;		Unchanged: 0/0
  3785                           ; Data sizes:     COMMON   BANK0   BANK1   BANK3   BANK2
  3786                           ;      Locals:         7       0       0       0       0
  3787                           ;      Temp:     1
  3788                           ;      Total:    7
  3789                           ; This function calls:
  3790                           ;		Nothing
  3791                           ; This function is called by:
  3792                           ;		_addition
  3793                           ;		_display
  3794                           ; This function uses a non-reentrant model
  3795                           ; 
  3796                           psect	text44
  3797                           	file	"C:\Program Files (x86)\HI-TECH Software\PICC\9.70\sources\awmod.c"
  3798                           	line	5
  3799                           	global	__size_of___awmod
  3800  0060                     	__size_of___awmod	equ	__end_of___awmod-___awmod
  3801                           	
  3802  020F                     ___awmod:	
  3803                           	opt stack 6
  3804                           ; Regs used in ___awmod: [wreg+status,2+status,0]
  3805                           	line	8
  3806                           	
  3807  020F                     l30000984:	
  3808  020F  1003               	clrc
  3809  0210  3000               	movlw	0
  3810  0211  1803               	btfsc	status,0
  3811  0212  3001               	movlw	1
  3812  0213  00F1               	movwf	(___awmod@sign)
  3813                           	
  3814  0214                     l30000985:	
  3815                           	line	9
  3816  0214  1FF4               	btfss	(___awmod@dividend+1),7
  3817  0215  2A17               	goto	u1041
  3818  0216  2A18               	goto	u1040
  3819  0217                     u1041:
  3820  0217  2A20               	goto	l30000987
  3821  0218                     u1040:
  3822                           	
  3823  0218                     l30000986:	
  3824                           	line	10
  3825  0218  09F3               	comf	(___awmod@dividend),f
  3826  0219  09F4               	comf	(___awmod@dividend+1),f
  3827  021A  0AF3               	incf	(___awmod@dividend),f
  3828  021B  1903               	skipnz
  3829  021C  0AF4               	incf	(___awmod@dividend+1),f
  3830                           	line	11
  3831  021D  01F1               	clrf	(___awmod@sign)
  3832  021E  1403               	bsf	status,0
  3833  021F  0DF1               	rlf	(___awmod@sign),f
  3834                           	
  3835  0220                     l30000987:	
  3836                           	line	13
  3837  0220  1FF6               	btfss	(___awmod@divisor+1),7
  3838  0221  2A23               	goto	u1051
  3839  0222  2A24               	goto	u1050
  3840  0223                     u1051:
  3841  0223  2A29               	goto	l30000989
  3842  0224                     u1050:
  3843                           	
  3844  0224                     l30000988:	
  3845                           	line	14
  3846  0224  09F5               	comf	(___awmod@divisor),f
  3847  0225  09F6               	comf	(___awmod@divisor+1),f
  3848  0226  0AF5               	incf	(___awmod@divisor),f
  3849  0227  1903               	skipnz
  3850  0228  0AF6               	incf	(___awmod@divisor+1),f
  3851                           	
  3852  0229                     l30000989:	
  3853                           	line	15
  3854  0229  0876               	movf	(___awmod@divisor+1),w
  3855  022A  0475               	iorwf	(___awmod@divisor),w
  3856  022B  1903               	skipnz
  3857  022C  2A2E               	goto	u1061
  3858  022D  2A2F               	goto	u1060
  3859  022E                     u1061:
  3860  022E  2A5F               	goto	l30000998
  3861  022F                     u1060:
  3862                           	
  3863  022F                     l30000990:	
  3864                           	line	16
  3865  022F  01F2               	clrf	(___awmod@counter)
  3866  0230  1403               	bsf	status,0
  3867  0231  0DF2               	rlf	(___awmod@counter),f
  3868  0232  2A3E               	goto	l30000993
  3869                           	
  3870  0233                     l30000991:	
  3871                           	line	18
  3872  0233  3001               	movlw	01h
  3873  0234                     u1075:
  3874  0234  1003               	clrc
  3875  0235  0DF5               	rlf	(___awmod@divisor),f
  3876  0236  0DF6               	rlf	(___awmod@divisor+1),f
  3877  0237  3EFF               	addlw	-1
  3878  0238  1D03               	skipz
  3879  0239  2A34               	goto	u1075
  3880                           	
  3881  023A                     l30000992:	
  3882                           	line	19
  3883  023A  3001               	movlw	(01h)
  3884  023B  00F0               	movwf	(??___awmod+0+0)
  3885  023C  0870               	movf	(??___awmod+0+0),w
  3886  023D  07F2               	addwf	(___awmod@counter),f
  3887                           	
  3888  023E                     l30000993:	
  3889                           	line	17
  3890  023E  1FF6               	btfss	(___awmod@divisor+1),(15)&7
  3891  023F  2A41               	goto	u1081
  3892  0240  2A42               	goto	u1080
  3893  0241                     u1081:
  3894  0241  2A33               	goto	l30000991
  3895  0242                     u1080:
  3896                           	
  3897  0242                     l30000994:	
  3898                           	line	22
  3899  0242  0876               	movf	(___awmod@divisor+1),w
  3900  0243  0274               	subwf	(___awmod@dividend+1),w
  3901  0244  1D03               	skipz
  3902  0245  2A48               	goto	u1095
  3903  0246  0875               	movf	(___awmod@divisor),w
  3904  0247  0273               	subwf	(___awmod@dividend),w
  3905  0248                     u1095:
  3906  0248  1C03               	skipc
  3907  0249  2A4B               	goto	u1091
  3908  024A  2A4C               	goto	u1090
  3909  024B                     u1091:
  3910  024B  2A52               	goto	l30000996
  3911  024C                     u1090:
  3912                           	
  3913  024C                     l30000995:	
  3914                           	line	23
  3915  024C  0875               	movf	(___awmod@divisor),w
  3916  024D  02F3               	subwf	(___awmod@dividend),f
  3917  024E  0876               	movf	(___awmod@divisor+1),w
  3918  024F  1C03               	skipc
  3919  0250  03F4               	decf	(___awmod@dividend+1),f
  3920  0251  02F4               	subwf	(___awmod@dividend+1),f
  3921                           	
  3922  0252                     l30000996:	
  3923                           	line	24
  3924  0252  3001               	movlw	01h
  3925  0253                     u1105:
  3926  0253  1003               	clrc
  3927  0254  0CF6               	rrf	(___awmod@divisor+1),f
  3928  0255  0CF5               	rrf	(___awmod@divisor),f
  3929  0256  3EFF               	addlw	-1
  3930  0257  1D03               	skipz
  3931  0258  2A53               	goto	u1105
  3932                           	
  3933  0259                     l30000997:	
  3934                           	line	25
  3935  0259  3001               	movlw	low(01h)
  3936  025A  02F2               	subwf	(___awmod@counter),f
  3937  025B  1D03               	btfss	status,2
  3938  025C  2A5E               	goto	u1111
  3939  025D  2A5F               	goto	u1110
  3940  025E                     u1111:
  3941  025E  2A42               	goto	l30000994
  3942  025F                     u1110:
  3943                           	
  3944  025F                     l30000998:	
  3945                           	line	27
  3946  025F  0871               	movf	(___awmod@sign),w
  3947  0260  1D03               	skipz
  3948  0261  2A63               	goto	u1120
  3949  0262  2A68               	goto	l30001000
  3950  0263                     u1120:
  3951                           	
  3952  0263                     l30000999:	
  3953                           	line	28
  3954  0263  09F3               	comf	(___awmod@dividend),f
  3955  0264  09F4               	comf	(___awmod@dividend+1),f
  3956  0265  0AF3               	incf	(___awmod@dividend),f
  3957  0266  1903               	skipnz
  3958  0267  0AF4               	incf	(___awmod@dividend+1),f
  3959                           	
  3960  0268                     l30001000:	
  3961                           	line	29
  3962  0268  0874               	movf	(___awmod@dividend+1),w
  3963  0269  01F4               	clrf	(?___awmod+1)
  3964  026A  07F4               	addwf	(?___awmod+1)
  3965  026B  0873               	movf	(___awmod@dividend),w
  3966  026C  01F3               	clrf	(?___awmod)
  3967  026D  07F3               	addwf	(?___awmod)
  3968                           
  3969                           	
  3970  026E                     l306:	
  3971  026E  0008               	return
  3972                           	opt stack 0
  3973                           GLOBAL	__end_of___awmod
  3974  026F                     	__end_of___awmod:
  3975                           ; =============== function ___awmod ends ============
  3976                           
  3977                           psect	text45,local,class=CODE,delta=2
  3978                           global __ptext45
  3979  0003                     __ptext45:
  3980                           	line	30
  3981                           	signat	___awmod,8314
  3982                           	global	btemp
  3983  007E                     	btemp set 07Eh


HI-TECH Software PICC Macro Assembler V9.70 build 5239 
Symbol Table                                                                                   Tue Mar 21 12:42:05 2023

    ___awdiv@dividend 003E                     l1 01E1                     l9 0384                     _a 0020  
                   _b 0022                     _i 0038                     _j 003A                     _k 0024  
                   _p 0026                     _q 0028                     _z 002A                     pc 0002  
                  l12 07FF                    _DA 04A5                    l22 0712                    l14 060A  
                  _BF 04A0                    _DC 0019                    l41 0478                    l33 0444  
                  l26 0796                    l18 068E                    l50 04AC                    l42 0474  
                  l34 0440                    l61 0502                    l53 04CA                    l45 0496  
                  l37 045E                    l70 052E                    l62 04FE                    l54 04C6  
                  l46 0492                    l38 045A                    l65 051C                    l57 04E8  
                  l49 04B0                    l74 0543                    l66 0518                    l58 04E4  
                  l69 0532                    _PD 001B                    _RD 0C60                    _UA 04A1  
                  _TO 001C                    _RW 04A2                    _WR 0C61                    fsr 0004  
         __pbssCOMMON 0079                   _C1R 083A                   _C2R 0842                   l306 026E  
                 l226 02E0                   l228 028F                   _CKE 04A6                   _CKP 00A4  
                 _GIE 005F                   _BOR 0470                   _RA0 0028                   _RA1 0029  
                 _RB0 0030                   _RA2 002A                   _RB1 0031                   _RA3 002B  
                 _RC0 0038                   _RB2 0032                   _RA4 002C                   _RC1 0039  
                 _RB3 0033                   _RA5 002D                   _RD0 0040                   _RC2 003A  
                 _RB4 0034                   _RA6 002E                   _RD1 0041                   _RC3 003B  
                 _RB5 0035                   _RA7 002F                   _RE0 0048                   _RD2 0042  
                 _RC4 003C                   _RB6 0036                   _RE1 0049                   _RD3 0043  
                 _RC5 003D                   _RB7 0037                   _RE2 004A                   _RD4 0044  
                 _RC6 003E                   _RE3 004B                   _RD5 0045                   _RC7 003F  
                 _RD6 0046                   _RD7 0047                   _FSR 0004                   _PCL 0002  
                 _PS0 0408                   _PR2 0092                   _PS1 0409                   _PS2 040A  
                 _PEN 048A                   _RP0 001D                   _IRP 001F                   _RP1 001E  
                 _HTS 047A                   _SR0 0C2E                   _SR1 0C2F                   _SEN 0488  
                 _SCS 0478                   _PSA 040B                   u930 01E1                   u931 01E0  
                 _LTS 0479                   _VR0 04B8                   _VR1 04B9                   _VR2 04BA  
                 u935 01DD                   _VR3 04BB                   _POR 0471                   _RX9 00C6  
                 _SMP 04A7                   _TX9 04C6                   _WUE 0C39                   _VRR 04BD  
                 _var 003C                   fsr0 0004                   _sum 0079                   indf 0000  
    __size_of___awdiv 0072              _addition 02E1      __size_of___awmod 0060             ?_addition 0078  
          _time_delay 01D1    __end_of_time_delay 01E2            ??_addition 0077                  _C1IE 046D  
                _C1IF 006D                  _C2IE 046E                  _C2IF 006E                  _C1OE 083D  
                _C2OE 0845                  _C1ON 083F                  _C2ON 0847                  _ADIE 0466  
                _ADIF 0066                  _ADFM 04FF                  _ADON 00F8              __ptext40 02E1  
            __ptext41 054B              __ptext42 01D1              __ptext43 026F              __ptext44 020F  
            __ptext45 0003                  _P1M0 00BE                  _CHS0 00FA                  _P1M1 00BF  
                _CHS1 00FB                  _CHS2 00FC                  _CHS3 00FD                  _EEIE 046C  
                _EEIF 006C                  _ANS0 0C40                  _BRG0 04C8                  _ANS1 0C41  
                _BRG1 04C9                  _ANS2 0C42                  _BRG2 04CA                  _ANS3 0C43  
                _BRG3 04CB                  _ANS4 0C44                  _BRG4 04CC                  _ANS5 0C45  
                _BRG5 04CD                  _ANS6 0C46                  _GCEN 048F                  _BRG6 04CE  
                _ANS7 0C47                  _BRG7 04CF                  _ANS8 0C48                  _BRG8 04D0  
    __size_of_display 02B5                  _ANS9 0C49                  _BRG9 04D1                  _BRGH 04C2  
                _T0IE 005D                  _T0IF 005A                  _CREN 00C4                  _T0CS 040D  
                _FERR 00C2                  u1110 025F                  u1111 025E                  u1120 0263  
                u1040 0218                  u1105 0253                  u1041 0217                  u1050 0224  
                u1210 02D1                  u1130 027A                  u1051 0223                  u1211 02D0  
                u1131 0279                  u1060 022F                  u1220 02D5                  u1140 0286  
                u1300 0480                  u1061 022E                  u1205 02C5                  u1141 0285  
                u1301 047F                  u1150 0299                  u1230 0383                  u1310 0496  
                _PDC0 04D8                  u1151 0298                  u1231 0382                  u1311 0495  
                _PDC1 04D9                  u1080 0242                  u1400 0506                  u1320 049A  
                u1240 042E                  _PDC2 04DA                  u1081 0241                  u1401 0505  
                u1321 0499                  u1241 042D                  _PDC3 04DB                  u1090 024C  
                u1170 02AC                  u1410 051C                  u1330 04B0                  u1250 0444  
                _PDC4 04DC                  u1091 024B                  u1075 0234                  u1171 02AB  
                u1235 037F                  u1411 051B                  u1331 04AF                  u1251 0443  
                _T0SE 040C                  _PDC5 04DD                  _CSRC 04C7                  u1500 067C  
                u1420 0524                  u1340 04B4                  u1260 0448                  _PDC6 04DE  
                _IOCB 0096                  u1165 029E                  u1501 067B                  u1421 0523  
                u1341 04B3                  u1261 0447                  u1190 02BD                  u1510 068D  
                u1430 0532                  u1350 04CA                  u1270 045E                  _INDF 0000  
                u1095 0248                  u1191 02BC                  u1511 068C                  u1431 0531  
                u1351 04C9                  u1271 045D                  u1520 06F7                  u1440 0536  
                u1360 04D2                  u1280 0462                  u1185 02AD                  u1521 06F6  
                u1441 0535                  u1361 04D1                  u1281 0461                  u1530 0700  
                u1450 0547                  u1370 04E8                  u1290 0478                  u1195 02B9  
                u1531 06FF                  u1515 0689                  u1451 0546                  u1371 04E7  
                u1291 0477                  u1540 0711                  u1460 05E7                  u1380 04EC  
                u1541 0710                  u1525 06F3                  u1461 05E6                  u1381 04EB  
                u1550 077B                  u1470 05F6                  u1390 0502                  u1551 077A  
                u1471 05F5                  u1391 0501                  u1560 0784                  u1480 0609  
                u1561 0783                  u1545 070D                  u1481 0608                  u1465 05E3  
                u1570 0795                  u1490 0673                  u1571 0794                  u1555 0777  
                u1491 0672                  u1580 07FF                  u1581 07FE                  u1485 0605  
                u1575 0791                  u1495 066F                  _PIE1 008C                  _PIE2 008D  
                u1585 07FB                  _PEIE 005E                  _INTE 005C                  _INTF 0059  
                _RBIE 005B                  _RBIF 0058                  _RCIE 0465                  _RCEN 048B  
                _RCIF 0065                  _PCON 008E                  _PIR1 000C                  _PIR2 000D  
                _OERR 00C1      ___awdiv@quotient 0073                  _SCKP 0C3C                  _RBPU 040F  
        __pidataBANK0 01C7                  _RX9D 00C0                  _TMR0 0001                  _TMR2 0011  
                _WCOL 00A7                  _SPEN 00C7                  _RSEN 0489                  _TX9D 04C0  
                _SREN 00C5                  _OSTS 047B                  _TUN0 0480                  _TUN1 0481  
                _TUN2 0482                  _TUN3 0483                  _TUN4 0484                  _STRA 04E8  
                _STRB 04E9                  _STRC 04EA                  _VREN 04BF                  _STRD 04EB  
                _TRMT 04C1                  _STOP 04A4                  _TXIE 0464                  _ZERO 001A  
                _WREN 0C62                  _TXEN 04C5                  _TXIF 0064                  _VROE 04BE  
                _SYNC 04C4                  _WPUB 0095                  _VRSS 04BC          ___awdiv@sign 0072  
                _main 03E2           ?_time_delay 0070                  btemp 007E                  start 0000  
         time_delay@x 0070   start_initialization 01F3          ___awmod@sign 0071     __size_of_addition 0101  
           __pnvBANK0 0020       __end_of___awdiv 02E1       __end_of___awmod 026F               _CM1CON0 0107  
             _CM2CON0 0108               _CCP1CON 0017               _CM2CON1 0109               _CCP2CON 001D  
             _ACKSTAT 048E               _BAUDCTL 0187               _ECCPAS0 04E4               _ECCPAS1 04E5  
             _ECCPAS2 04E6               _ECCPASE 04E7                 _C1CH0 0838                 _C1CH1 0839  
               _C2CH0 0840                 _C2CH1 0841                 _DC1B0 00BC                 _DC1B1 00BD  
               _C1SEN 0C2D                 _C2REN 0C2C                 _C1POL 083C                 _C2POL 0844  
               _C1OUT 083E                 _C2OUT 0846                 _ABDEN 0C38                 _ADCS0 00FE  
               _ADCS1 00FF                 _ADDEN 00C3                 ?_main 0079                 _ACKEN 048C  
               _ACKDT 048D                 _BCLIE 046B                 _BCLIF 006B                 _CCP2X 00ED  
               _CCP2Y 00EC            display@var 0042                 _EEADR 010D                 _ANS10 0C4A  
               _EEDAT 010C                 _BRG10 04D2                 _ANS11 0C4B                 _BRG11 04D3  
               _ANS12 0C4C                 _BRG12 04D4                 _ANS13 0C4D                 _BRG13 04D5  
               _BRG14 04D6                 _BRG15 04D7                 _BRG16 0C3B          ??_time_delay 0070  
               _CARRY 0018                 _EEPGD 0C67                 _ANSEL 0188                 _T1CON 0010  
               _IOCB0 04B0                 _T2CON 0012                 _IOCB1 04B1                 _IOCB2 04B2  
               _IOCB3 04B3                 _IOCB4 04B4                 _IOCB5 04B5                 _IOCB6 04B6  
               _IOCB7 04B7                 _T1GSS 0849               _T1CKPS0 0084               _T1CKPS1 0085  
               _IRCF0 047C                 _IRCF1 047D                 _IRCF2 047E               _T2CKPS0 0090  
             _T2CKPS1 0091                 _RABIE 005B                 _RABIF 0058                 _RABPU 040F  
               _RCIDL 0C3E                 _FVREN 0C28       __end_of_display 0800                 _VCFG0 04FC  
               _VCFG1 04FD                 _RCREG 001A                 _SENDB 04C3                 _RCSTA 0018  
               _OSFIE 046F                 _OSFIF 006F                 _TMR1H 000F                 _TMR1L 000E  
               _SPBRG 0099                 _PORTA 0005                 _PORTB 0006               _T1OSCEN 0083  
               _PORTC 0007                 _PORTD 0008                 _PORTE 0009                 _PRSEN 04DF  
               _SRCON 0185                 _START 04A3                 _PULSR 0C2A                 _PULSS 0C2B  
               _SSPM0 00A0                 _SSPM1 00A1                 _SSPM2 00A2                 _SSPM3 00A3  
               _TRISA 0085                 _TRISB 0086                 _TRISC 0087                 _TRISD 0088  
               _SSPIE 0463                 _TRISE 0089                 _SSPIF 0063                 _SSPEN 00A5  
               _VRCON 0097                 _WPUB0 04A8                 _WPUB1 04A9                 _WPUB2 04AA  
               _WPUB3 04AB                 _WPUB4 04AC                 _SSPOV 00A6                 _WPUB5 04AD  
               _WPUB6 04AE                 _WPUB7 04AF                 _WRERR 0C63                 _TXREG 0019  
               _TXSTA 0098        __pcstackCOMMON 0070               _OSCTUNE 0090               _PWM1CON 009B  
               _count 0036               _PSTRCON 009D               _SSPCON2 0091               _ULPWUIE 046A  
             _ULPWUIF 006A               _SSPSTAT 0094               _TOUTPS0 0093               _TOUTPS1 0094  
             _TOUTPS2 0095               _TOUTPS3 0096               _STRSYNC 04EC                 pclath 000A  
               status 0003       ___awdiv@divisor 0040         __size_of_main 0169            __pbssBANK0 0036  
            l30001000 0268              l30001020 0299              l30001100 0524              l30001021 029D  
            l30001101 0528              l30001030 02D5              l30001022 02A4              l30001014 026F  
            l30001110 0610              l30001102 0528              l30001031 02DA              l30001023 02A8  
            l30001015 0274              l30001111 0616              l30001103 0536              l30001024 02AC  
            l30001016 027A              l30001120 0639              l30001112 061F              l30001040 039C  
            l30001104 053B              l30001025 02BD              l30001017 0282              l30001121 063A  
            l30001113 0622              l30001105 054B              l30001041 039D              l30001033 02E1  
            l30001026 02C3              l30001018 0286              l30001122 0640              l30001114 0623  
            l30001130 0673              l30001106 05DA              l30001050 03C3              l30001042 039E  
            l30001034 0370              l30001027 02C4              l30001019 028B              l30001131 067C  
            l30001123 0649              l30001115 0624              l30001107 05E7              l30001051 03C6  
            l30001043 039F              l30001035 0376              l30001028 02CB              l30001140 06B8  
            l30001124 064C              l30001116 0625              l30001108 05F6              l30001052 03C7  
            l30001044 03AE              l30001060 03F0              l30001029 02D1              l30001141 06BB  
            l30001133 0694              l30001125 064D              l30001117 0634              l30001053 03C8  
            l30001045 03B1              l30001037 038A              l30001061 03F5       ___awdiv@counter 0071  
            l30001150 06D9              l30001142 06BC              l30001134 069A              l30001126 064E  
            l30001118 0637              l30001054 03CF              l30001046 03B2              l30001038 0390  
            l30001070 0428              l30001062 03FC              l30001151 06E2              l30001143 06BD  
            l30001135 06A3              l30001127 0655              l30001119 0638              l30001055 03D8  
            l30001047 03B3              l30001039 0399              l30001071 0429              l30001063 0401  
            l30001160 072B              l30001152 06EA              l30001144 06BE              l30001136 06A6  
            l30001128 065E              l30001048 03B4              l30001080 0466              l30001072 042A  
            l30001064 0406              l30001161 072C              l30001145 06C4              l30001137 06A7  
            l30001153 06F7              l30001129 0666              l30001049 03BA              l30001081 046E  
            l30001073 042E              l30001065 040B              l30001057 03E2              l30001170 0754  
            l30001162 072D              l30001154 0700              l30001146 06CD              l30001138 06A8  
            l30001090 04C0              l30001082 0480              l30001074 0432              l30001066 0412  
            l30001058 03E6              l30001171 0755              l30001163 073C              l30001147 06D0  
            l30001139 06A9              l30001091 04D2              l30001083 0484              l30001075 043A  
            l30001067 0417              l30001059 03EB              l30001180 07A2              l30001172 0756  
            l30001164 073F              l30001156 0718              l30001148 06D1              l30001092 04D6  
            l30001084 048C              l30001076 0448              l30001068 0424              l30001181 07AB  
            l30001173 075D              l30001165 0740              l30001157 071E              l30001149 06D2  
            l30001093 04DE              l30001085 049A              l30001077 044C              l30001069 0427  
            l30001190 07C6              l30001182 07AE              l30001174 0766              l30001166 0741  
            l30001158 0727              l30001094 04EC              l30001086 049E              l30001078 0454  
            l30001191 07CC              l30001183 07AF              l30001175 076E              l30001167 0742  
            l30001159 072A              l30001095 04F0              l30001087 04A6              l30001079 0462  
            l30001192 07D5              l30001184 07B0              l30001168 0748              l30001176 077B  
            l30001096 04F8              l30001088 04B4              l30001193 07D8              l30001185 07B1  
            l30001177 0784              l30001169 0751              l30001097 0506              l30001089 04B8  
            l30001194 07D9              l30001186 07C0              l30001098 050A              l30001195 07DA  
            l30001187 07C3              l30001179 079C              l30001099 0512              l30001196 07E1  
            l30001188 07C4              l30001197 07EA              l30001189 07C5              l30001198 07F2  
            l30000963 01D1              l30000964 01D1              l30000990 022F              l30000991 0233  
            l30000992 023A              l30000984 020F              l30000993 023E              l30000985 0214  
            l30000994 0242              l30000986 0218              l30000995 024C              l30000987 0220  
            l30000996 0252              l30000988 0224              l30000997 0259              l30000989 0229  
            l30000998 025F              l30000999 0263               ___awdiv 026F               ___awmod 020F  
            ?___awdiv 003E              ?___awmod 0073             ??___awdiv 0070             ??___awmod 0070  
              ??_main 0073               _display 054B              ?_display 0042            __pmaintext 03E2  
    __end_of_addition 03E2             ??_display 0077                _C1RSEL 084D                _C2RSEL 084C  
              _C2SYNC 0848                _ADCON0 001F                _ADCON1 009F                _ABDOVF 0C3F  
              _CCP1M0 00B8                _CCP1M1 00B9                _CCP1M2 00BA                _CCP1M3 00BB  
              _CCP2M0 00E8                _CCP2M1 00E9                _CCP2M2 00EA                _CCP2M3 00EB  
              _CCP1IE 0462                _CCP1IF 0062                _CCP2IE 0468                _CCP2IF 0068  
              _ADRESH 001E                _EEADRH 010F                _ADRESL 009E                _EEADRL 010D  
              _EEDATA 010C                _ECCPAS 009C                _CCPR1H 0016                _EEDATH 010E  
              _CCPR2H 001C                _CCPR1L 0015                _CCPR2L 001B                _EECON1 018C  
              _EECON2 018D                _ANSELH 0189                _MC1OUT 084F                _MC2OUT 084E  
        __end_of_main 054B                _T1GINV 0087                _GODONE 00F9  end_of_initialization 020B  
              _T1SYNC 0082                _INTEDG 040E                _PCLATH 000A                _INTCON 000B  
       __pcstackBANK0 003E                _SBOREN 0474                _OSCCON 008F                _TMR1GE 0086  
              _TMR1IE 0460                _TMR1IF 0060                _TMR1CS 0081                _TMR2IE 0461  
              _TMR2IF 0061                _PSSAC0 04E2                _PSSAC1 04E3                _PSSBD0 04E0  
              _PSSBD1 04E1                _SPBRGH 009A                _OPTION 0081                _TMR1ON 0080  
              _TMR2ON 0092                _WDTCON 0105                _WDTPS0 0829                _WDTPS1 082A  
              _WDTPS2 082B                _WDTPS3 082C                _SSPADD 0093                _TRISA0 0428  
              _TRISA1 0429                _TRISB0 0430                _TRISA2 042A                _TRISB1 0431  
              _TRISA3 042B                _TRISC0 0438                _TRISB2 0432                _TRISA4 042C  
              _TRISC1 0439                _TRISB3 0433                _TRISA5 042D                _TRISD0 0440  
              _TRISC2 043A                _TRISB4 0434                _TRISA6 042E                _TRISD1 0441  
              _TRISC3 043B                _TRISB5 0435                _TRISA7 042F                _TRISE0 0448  
              _TRISD2 0442                _TRISC4 043C                _TRISB6 0436                _TRISE1 0449  
              _TRISD3 0443                _TRISC5 043D                _TRISB7 0437                _TRISE2 044A  
              _TRISD4 0444                _TRISC6 043E                _TRISE3 044B                _TRISD5 0445  
              _TRISC7 043F                _TRISD6 0446                _TRISD7 0447                _STATUS 0003  
              _SSPCON 0014                _SSPBUF 0013               init_ram 01E6                _SWDTEN 0828  
              _ULPWUE 0475                _SSPMSK 0093   __size_of_time_delay 0011             init_fetch 01E2  
              _number 002C      ___awmod@dividend 0073           __pdataBANK0 002C       ___awmod@divisor 0075  
     ___awmod@counter 0072  
