

HI-TECH Software PIC LITE Macro Assembler V9.70 build 5239 
                                                                                               Thu Apr 06 14:42:35 2023

HI-TECH Software Omniscient Code Generator (Lite mode) build 5239
     1  0000                     opt subtitle "HI-TECH Software Omniscient Code Generator (Lite mode) build 5239"
     2                           
     3                           opt pagewidth 120
     4                           
     5                           	opt lm
     6                           
     7                           	processor	16F887
     8                           clrc	macro
     9                           	bcf	3,0
    10  0000                     	endm
    11                           clrz	macro
    12                           	bcf	3,2
    13  0000                     	endm
    14                           setc	macro
    15                           	bsf	3,0
    16  0000                     	endm
    17                           setz	macro
    18                           	bsf	3,2
    19  0000                     	endm
    20                           skipc	macro
    21                           	btfss	3,0
    22  0000                     	endm
    23                           skipz	macro
    24                           	btfss	3,2
    25  0000                     	endm
    26                           skipnc	macro
    27                           	btfsc	3,0
    28  0000                     	endm
    29                           skipnz	macro
    30                           	btfsc	3,2
    31  0000                     	endm
    32  0000                     indf	equ	0
    33  0000                     indf0	equ	0
    34  0002                     pc	equ	2
    35  0002                     pcl	equ	2
    36  0003                     status	equ	3
    37  0004                     fsr	equ	4
    38  0004                     fsr0	equ	4
    39  0001                     c	equ	1
    40  0000                     z	equ	0
    41  000A                     pclath	equ	10
    42                           ;COMMON:	_main->_adc
    43                           ;BANK0:	_adc->_count
    44                           ;BANK0:	_count->___awdiv
    45                           ;COMMON:	___awdiv->___awmod
    46                           ;BANK0:	___awdiv->___awmod
    47                           ;COMMON:	_count->_command
    48                           ;COMMON:	_count->_data
    49                           ;BANK0:	_main->_voltage
    50                           ;COMMON:	_voltage->___awtoft
    51                           ;COMMON:	___awtoft->___ftpack
    52                           ;BANK0:	___awtoft->___ftpack
    53                           ;BANK0:	_voltage->___ftdiv
    54                           ;BANK0:	___ftdiv->___ftmul
    55                           ;COMMON:	___ftmul->___awtoft
    56                           ;COMMON:	___awtoft->___ftpack
    57                           ;BANK0:	___awtoft->___ftpack
    58                           ;BANK0:	___ftmul->___awtoft
    59                           ;COMMON:	___awtoft->___ftpack
    60                           ;BANK0:	___awtoft->___ftpack
    61                           ;COMMON:	___ftdiv->___awtoft
    62                           ;COMMON:	___awtoft->___ftpack
    63                           ;BANK0:	___awtoft->___ftpack
    64                           	FNCALL	_main,_command
    65                           	FNCALL	_main,_data
    66                           	FNCALL	_main,_adc
    67                           	FNCALL	_main,_voltage
    68                           	FNCALL	_adc,_count
    69                           	FNCALL	_voltage,_command
    70                           	FNCALL	_voltage,___awtoft
    71                           	FNCALL	_voltage,___ftmul
    72                           	FNCALL	_voltage,___ftdiv
    73                           	FNCALL	_voltage,___ftge
    74                           	FNCALL	_voltage,___ftadd
    75                           	FNCALL	_voltage,___fttol
    76                           	FNCALL	_voltage,___awdiv
    77                           	FNCALL	_voltage,___awmod
    78                           	FNCALL	_voltage,_data
    79                           	FNCALL	_voltage,___ftneg
    80                           	FNCALL	___ftmul,___ftpack
    81                           	FNCALL	___ftdiv,___ftpack
    82                           	FNCALL	___awtoft,___ftpack
    83                           	FNCALL	___ftadd,___ftpack
    84                           	FNCALL	_count,___awdiv
    85                           	FNCALL	_count,___awmod
    86                           	FNCALL	_count,_command
    87                           	FNCALL	_count,_data
    88                           	FNCALL	_data,_pulse
    89                           	FNCALL	_command,_pulse
    90                           	FNCALL	_pulse,_delay
    91                           	FNROOT	_main
    92                           	global	_low
    93                           	global	_DV
    94                           	global	_high
    95                           	global	_ADCON0
    96                           psect	text109,local,class=CODE,delta=2
    97                           global __ptext109
    98  0003                     __ptext109:
    99  001F                     _ADCON0  equ     31
   100                           	global	_ADRESH
   101  001E                     _ADRESH  equ     30
   102                           	global	_CCP1CON
   103  0017                     _CCP1CON  equ     23
   104                           	global	_CCP2CON
   105  001D                     _CCP2CON  equ     29
   106                           	global	_CCPR1H
   107  0016                     _CCPR1H  equ     22
   108                           	global	_CCPR1L
   109  0015                     _CCPR1L  equ     21
   110                           	global	_CCPR2H
   111  001C                     _CCPR2H  equ     28
   112                           	global	_CCPR2L
   113  001B                     _CCPR2L  equ     27
   114                           	global	_FSR
   115  0004                     _FSR  equ     4
   116                           	global	_INDF
   117  0000                     _INDF  equ     0
   118                           	global	_INTCON
   119  000B                     _INTCON  equ     11
   120                           	global	_PCL
   121  0002                     _PCL  equ     2
   122                           	global	_PCLATH
   123  000A                     _PCLATH  equ     10
   124                           	global	_PIR1
   125  000C                     _PIR1  equ     12
   126                           	global	_PIR2
   127  000D                     _PIR2  equ     13
   128                           	global	_PORTA
   129  0005                     _PORTA  equ     5
   130                           	global	_PORTB
   131  0006                     _PORTB  equ     6
   132                           	global	_PORTC
   133  0007                     _PORTC  equ     7
   134                           	global	_PORTD
   135  0008                     _PORTD  equ     8
   136                           	global	_PORTE
   137  0009                     _PORTE  equ     9
   138                           	global	_RCREG
   139  001A                     _RCREG  equ     26
   140                           	global	_RCSTA
   141  0018                     _RCSTA  equ     24
   142                           	global	_SSPBUF
   143  0013                     _SSPBUF  equ     19
   144                           	global	_SSPCON
   145  0014                     _SSPCON  equ     20
   146                           	global	_STATUS
   147  0003                     _STATUS  equ     3
   148                           	global	_T1CON
   149  0010                     _T1CON  equ     16
   150                           	global	_T2CON
   151  0012                     _T2CON  equ     18
   152                           	global	_TMR0
   153  0001                     _TMR0  equ     1
   154                           	global	_TMR1H
   155  000F                     _TMR1H  equ     15
   156                           	global	_TMR1L
   157  000E                     _TMR1L  equ     14
   158                           	global	_TMR2
   159  0011                     _TMR2  equ     17
   160                           	global	_TXREG
   161  0019                     _TXREG  equ     25
   162                           	global	_ADCS0
   163  00FE                     _ADCS0  equ     254
   164                           	global	_ADCS1
   165  00FF                     _ADCS1  equ     255
   166                           	global	_ADDEN
   167  00C3                     _ADDEN  equ     195
   168                           	global	_ADIF
   169  0066                     _ADIF  equ     102
   170                           	global	_ADON
   171  00F8                     _ADON  equ     248
   172                           	global	_BCLIF
   173  006B                     _BCLIF  equ     107
   174                           	global	_C1IF
   175  006D                     _C1IF  equ     109
   176                           	global	_C2IF
   177  006E                     _C2IF  equ     110
   178                           	global	_CARRY
   179  0018                     _CARRY  equ     24
   180                           	global	_CCP1IF
   181  0062                     _CCP1IF  equ     98
   182                           	global	_CCP1M0
   183  00B8                     _CCP1M0  equ     184
   184                           	global	_CCP1M1
   185  00B9                     _CCP1M1  equ     185
   186                           	global	_CCP1M2
   187  00BA                     _CCP1M2  equ     186
   188                           	global	_CCP1M3
   189  00BB                     _CCP1M3  equ     187
   190                           	global	_CCP2IF
   191  0068                     _CCP2IF  equ     104
   192                           	global	_CCP2M0
   193  00E8                     _CCP2M0  equ     232
   194                           	global	_CCP2M1
   195  00E9                     _CCP2M1  equ     233
   196                           	global	_CCP2M2
   197  00EA                     _CCP2M2  equ     234
   198                           	global	_CCP2M3
   199  00EB                     _CCP2M3  equ     235
   200                           	global	_CCP2X
   201  00ED                     _CCP2X  equ     237
   202                           	global	_CCP2Y
   203  00EC                     _CCP2Y  equ     236
   204                           	global	_CHS0
   205  00FA                     _CHS0  equ     250
   206                           	global	_CHS1
   207  00FB                     _CHS1  equ     251
   208                           	global	_CHS2
   209  00FC                     _CHS2  equ     252
   210                           	global	_CHS3
   211  00FD                     _CHS3  equ     253
   212                           	global	_CKP
   213  00A4                     _CKP  equ     164
   214                           	global	_CREN
   215  00C4                     _CREN  equ     196
   216                           	global	_DC
   217  0019                     _DC  equ     25
   218                           	global	_DC1B0
   219  00BC                     _DC1B0  equ     188
   220                           	global	_DC1B1
   221  00BD                     _DC1B1  equ     189
   222                           	global	_EEIF
   223  006C                     _EEIF  equ     108
   224                           	global	_FERR
   225  00C2                     _FERR  equ     194
   226                           	global	_GIE
   227  005F                     _GIE  equ     95
   228                           	global	_GODONE
   229  00F9                     _GODONE  equ     249
   230                           	global	_INTE
   231  005C                     _INTE  equ     92
   232                           	global	_INTF
   233  0059                     _INTF  equ     89
   234                           	global	_IRP
   235  001F                     _IRP  equ     31
   236                           	global	_OERR
   237  00C1                     _OERR  equ     193
   238                           	global	_OSFIF
   239  006F                     _OSFIF  equ     111
   240                           	global	_P1M0
   241  00BE                     _P1M0  equ     190
   242                           	global	_P1M1
   243  00BF                     _P1M1  equ     191
   244                           	global	_PD
   245  001B                     _PD  equ     27
   246                           	global	_PEIE
   247  005E                     _PEIE  equ     94
   248                           	global	_RA0
   249  0028                     _RA0  equ     40
   250                           	global	_RA1
   251  0029                     _RA1  equ     41
   252                           	global	_RA2
   253  002A                     _RA2  equ     42
   254                           	global	_RA3
   255  002B                     _RA3  equ     43
   256                           	global	_RA4
   257  002C                     _RA4  equ     44
   258                           	global	_RA5
   259  002D                     _RA5  equ     45
   260                           	global	_RA6
   261  002E                     _RA6  equ     46
   262                           	global	_RA7
   263  002F                     _RA7  equ     47
   264                           	global	_RABIE
   265  005B                     _RABIE  equ     91
   266                           	global	_RABIF
   267  0058                     _RABIF  equ     88
   268                           	global	_RB0
   269  0030                     _RB0  equ     48
   270                           	global	_RB1
   271  0031                     _RB1  equ     49
   272                           	global	_RB2
   273  0032                     _RB2  equ     50
   274                           	global	_RB3
   275  0033                     _RB3  equ     51
   276                           	global	_RB4
   277  0034                     _RB4  equ     52
   278                           	global	_RB5
   279  0035                     _RB5  equ     53
   280                           	global	_RB6
   281  0036                     _RB6  equ     54
   282                           	global	_RB7
   283  0037                     _RB7  equ     55
   284                           	global	_RBIE
   285  005B                     _RBIE  equ     91
   286                           	global	_RBIF
   287  0058                     _RBIF  equ     88
   288                           	global	_RC0
   289  0038                     _RC0  equ     56
   290                           	global	_RC1
   291  0039                     _RC1  equ     57
   292                           	global	_RC2
   293  003A                     _RC2  equ     58
   294                           	global	_RC3
   295  003B                     _RC3  equ     59
   296                           	global	_RC4
   297  003C                     _RC4  equ     60
   298                           	global	_RC5
   299  003D                     _RC5  equ     61
   300                           	global	_RC6
   301  003E                     _RC6  equ     62
   302                           	global	_RC7
   303  003F                     _RC7  equ     63
   304                           	global	_RCIF
   305  0065                     _RCIF  equ     101
   306                           	global	_RD0
   307  0040                     _RD0  equ     64
   308                           	global	_RD1
   309  0041                     _RD1  equ     65
   310                           	global	_RD2
   311  0042                     _RD2  equ     66
   312                           	global	_RD3
   313  0043                     _RD3  equ     67
   314                           	global	_RD4
   315  0044                     _RD4  equ     68
   316                           	global	_RD5
   317  0045                     _RD5  equ     69
   318                           	global	_RD6
   319  0046                     _RD6  equ     70
   320                           	global	_RD7
   321  0047                     _RD7  equ     71
   322                           	global	_RE0
   323  0048                     _RE0  equ     72
   324                           	global	_RE1
   325  0049                     _RE1  equ     73
   326                           	global	_RE2
   327  004A                     _RE2  equ     74
   328                           	global	_RE3
   329  004B                     _RE3  equ     75
   330                           	global	_RP0
   331  001D                     _RP0  equ     29
   332                           	global	_RP1
   333  001E                     _RP1  equ     30
   334                           	global	_RX9
   335  00C6                     _RX9  equ     198
   336                           	global	_RX9D
   337  00C0                     _RX9D  equ     192
   338                           	global	_SPEN
   339  00C7                     _SPEN  equ     199
   340                           	global	_SREN
   341  00C5                     _SREN  equ     197
   342                           	global	_SSPEN
   343  00A5                     _SSPEN  equ     165
   344                           	global	_SSPIF
   345  0063                     _SSPIF  equ     99
   346                           	global	_SSPM0
   347  00A0                     _SSPM0  equ     160
   348                           	global	_SSPM1
   349  00A1                     _SSPM1  equ     161
   350                           	global	_SSPM2
   351  00A2                     _SSPM2  equ     162
   352                           	global	_SSPM3
   353  00A3                     _SSPM3  equ     163
   354                           	global	_SSPOV
   355  00A6                     _SSPOV  equ     166
   356                           	global	_T0IE
   357  005D                     _T0IE  equ     93
   358                           	global	_T0IF
   359  005A                     _T0IF  equ     90
   360                           	global	_T1CKPS0
   361  0084                     _T1CKPS0  equ     132
   362                           	global	_T1CKPS1
   363  0085                     _T1CKPS1  equ     133
   364                           	global	_T1GINV
   365  0087                     _T1GINV  equ     135
   366                           	global	_T1OSCEN
   367  0083                     _T1OSCEN  equ     131
   368                           	global	_T1SYNC
   369  0082                     _T1SYNC  equ     130
   370                           	global	_T2CKPS0
   371  0090                     _T2CKPS0  equ     144
   372                           	global	_T2CKPS1
   373  0091                     _T2CKPS1  equ     145
   374                           	global	_TMR1CS
   375  0081                     _TMR1CS  equ     129
   376                           	global	_TMR1GE
   377  0086                     _TMR1GE  equ     134
   378                           	global	_TMR1IF
   379  0060                     _TMR1IF  equ     96
   380                           	global	_TMR1ON
   381  0080                     _TMR1ON  equ     128
   382                           	global	_TMR2IF
   383  0061                     _TMR2IF  equ     97
   384                           	global	_TMR2ON
   385  0092                     _TMR2ON  equ     146
   386                           	global	_TO
   387  001C                     _TO  equ     28
   388                           	global	_TOUTPS0
   389  0093                     _TOUTPS0  equ     147
   390                           	global	_TOUTPS1
   391  0094                     _TOUTPS1  equ     148
   392                           	global	_TOUTPS2
   393  0095                     _TOUTPS2  equ     149
   394                           	global	_TOUTPS3
   395  0096                     _TOUTPS3  equ     150
   396                           	global	_TXIF
   397  0064                     _TXIF  equ     100
   398                           	global	_ULPWUIF
   399  006A                     _ULPWUIF  equ     106
   400                           	global	_WCOL
   401  00A7                     _WCOL  equ     167
   402                           	global	_ZERO
   403  001A                     _ZERO  equ     26
   404                           	global	_ADCON1
   405  009F                     _ADCON1  equ     159
   406                           	global	_ADRESL
   407  009E                     _ADRESL  equ     158
   408                           	global	_ECCPAS
   409  009C                     _ECCPAS  equ     156
   410                           	global	_IOCB
   411  0096                     _IOCB  equ     150
   412                           	global	_OPTION
   413  0081                     _OPTION  equ     129
   414                           	global	_OSCCON
   415  008F                     _OSCCON  equ     143
   416                           	global	_OSCTUNE
   417  0090                     _OSCTUNE  equ     144
   418                           	global	_PCON
   419  008E                     _PCON  equ     142
   420                           	global	_PIE1
   421  008C                     _PIE1  equ     140
   422                           	global	_PIE2
   423  008D                     _PIE2  equ     141
   424                           	global	_PR2
   425  0092                     _PR2  equ     146
   426                           	global	_PSTRCON
   427  009D                     _PSTRCON  equ     157
   428                           	global	_PWM1CON
   429  009B                     _PWM1CON  equ     155
   430                           	global	_SPBRG
   431  0099                     _SPBRG  equ     153
   432                           	global	_SPBRGH
   433  009A                     _SPBRGH  equ     154
   434                           	global	_SSPADD
   435  0093                     _SSPADD  equ     147
   436                           	global	_SSPCON2
   437  0091                     _SSPCON2  equ     145
   438                           	global	_SSPMSK
   439  0093                     _SSPMSK  equ     147
   440                           	global	_SSPSTAT
   441  0094                     _SSPSTAT  equ     148
   442                           	global	_TRISA
   443  0085                     _TRISA  equ     133
   444                           	global	_TRISB
   445  0086                     _TRISB  equ     134
   446                           	global	_TRISC
   447  0087                     _TRISC  equ     135
   448                           	global	_TRISD
   449  0088                     _TRISD  equ     136
   450                           	global	_TRISE
   451  0089                     _TRISE  equ     137
   452                           	global	_TXSTA
   453  0098                     _TXSTA  equ     152
   454+                          	global	_VRCON
   455+ 0097                     _VRCON  equ     151
   456+                          	global	_WPUB
   457+ 0095                     _WPUB  equ     149
   458                           	global	_ACKDT
   459  048D                     _ACKDT  equ     1165
   460                           	global	_ACKEN
   461  048C                     _ACKEN  equ     1164
   462                           	global	_ACKSTAT
   463  048E                     _ACKSTAT  equ     1166
   464                           	global	_ADFM
   465  04FF                     _ADFM  equ     1279
   466                           	global	_ADIE
   467  0466                     _ADIE  equ     1126
   468                           	global	_BCLIE
   469  046B                     _BCLIE  equ     1131
   470                           	global	_BF
   471  04A0                     _BF  equ     1184
   472                           	global	_BOR
   473  0470                     _BOR  equ     1136
   474                           	global	_BRG0
   475  04C8                     _BRG0  equ     1224
   476                           	global	_BRG1
   477  04C9                     _BRG1  equ     1225
   478                           	global	_BRG10
   479  04D2                     _BRG10  equ     1234
   480                           	global	_BRG11
   481  04D3                     _BRG11  equ     1235
   482                           	global	_BRG12
   483  04D4                     _BRG12  equ     1236
   484                           	global	_BRG13
   485  04D5                     _BRG13  equ     1237
   486                           	global	_BRG14
   487  04D6                     _BRG14  equ     1238
   488                           	global	_BRG15
   489  04D7                     _BRG15  equ     1239
   490                           	global	_BRG2
   491  04CA                     _BRG2  equ     1226
   492                           	global	_BRG3
   493  04CB                     _BRG3  equ     1227
   494                           	global	_BRG4
   495  04CC                     _BRG4  equ     1228
   496                           	global	_BRG5
   497  04CD                     _BRG5  equ     1229
   498                           	global	_BRG6
   499  04CE                     _BRG6  equ     1230
   500                           	global	_BRG7
   501  04CF                     _BRG7  equ     1231
   502                           	global	_BRG8
   503  04D0                     _BRG8  equ     1232
   504                           	global	_BRG9
   505  04D1                     _BRG9  equ     1233
   506                           	global	_BRGH
   507  04C2                     _BRGH  equ     1218
   508                           	global	_C1IE
   509  046D                     _C1IE  equ     1133
   510                           	global	_C2IE
   511  046E                     _C2IE  equ     1134
   512                           	global	_CCP1IE
   513  0462                     _CCP1IE  equ     1122
   514                           	global	_CCP2IE
   515  0468                     _CCP2IE  equ     1128
   516                           	global	_CKE
   517  04A6                     _CKE  equ     1190
   518                           	global	_CSRC
   519  04C7                     _CSRC  equ     1223
   520                           	global	_DA
   521  04A5                     _DA  equ     1189
   522                           	global	_ECCPAS0
   523  04E4                     _ECCPAS0  equ     1252
   524                           	global	_ECCPAS1
   525  04E5                     _ECCPAS1  equ     1253
   526                           	global	_ECCPAS2
   527  04E6                     _ECCPAS2  equ     1254
   528                           	global	_ECCPASE
   529  04E7                     _ECCPASE  equ     1255
   530                           	global	_EEIE
   531  046C                     _EEIE  equ     1132
   532                           	global	_GCEN
   533  048F                     _GCEN  equ     1167
   534                           	global	_HTS
   535  047A                     _HTS  equ     1146
   536                           	global	_INTEDG
   537  040E                     _INTEDG  equ     1038
   538                           	global	_IOCB0
   539  04B0                     _IOCB0  equ     1200
   540                           	global	_IOCB1
   541  04B1                     _IOCB1  equ     1201
   542                           	global	_IOCB2
   543  04B2                     _IOCB2  equ     1202
   544                           	global	_IOCB3
   545  04B3                     _IOCB3  equ     1203
   546                           	global	_IOCB4
   547  04B4                     _IOCB4  equ     1204
   548                           	global	_IOCB5
   549  04B5                     _IOCB5  equ     1205
   550                           	global	_IOCB6
   551  04B6                     _IOCB6  equ     1206
   552                           	global	_IOCB7
   553  04B7                     _IOCB7  equ     1207
   554                           	global	_IRCF0
   555  047C                     _IRCF0  equ     1148
   556                           	global	_IRCF1
   557  047D                     _IRCF1  equ     1149
   558                           	global	_IRCF2
   559  047E                     _IRCF2  equ     1150
   560                           	global	_LTS
   561  0479                     _LTS  equ     1145
   562                           	global	_OSFIE
   563  046F                     _OSFIE  equ     1135
   564                           	global	_OSTS
   565  047B                     _OSTS  equ     1147
   566                           	global	_PDC0
   567  04D8                     _PDC0  equ     1240
   568                           	global	_PDC1
   569  04D9                     _PDC1  equ     1241
   570                           	global	_PDC2
   571  04DA                     _PDC2  equ     1242
   572                           	global	_PDC3
   573  04DB                     _PDC3  equ     1243
   574                           	global	_PDC4
   575  04DC                     _PDC4  equ     1244
   576                           	global	_PDC5
   577  04DD                     _PDC5  equ     1245
   578                           	global	_PDC6
   579  04DE                     _PDC6  equ     1246
   580                           	global	_PEN
   581  048A                     _PEN  equ     1162
   582                           	global	_POR
   583  0471                     _POR  equ     1137
   584                           	global	_PRSEN
   585  04DF                     _PRSEN  equ     1247
   586                           	global	_PS0
   587  0408                     _PS0  equ     1032
   588                           	global	_PS1
   589  0409                     _PS1  equ     1033
   590                           	global	_PS2
   591  040A                     _PS2  equ     1034
   592                           	global	_PSA
   593  040B                     _PSA  equ     1035
   594                           	global	_PSSAC0
   595  04E2                     _PSSAC0  equ     1250
   596                           	global	_PSSAC1
   597  04E3                     _PSSAC1  equ     1251
   598                           	global	_PSSBD0
   599  04E0                     _PSSBD0  equ     1248
   600                           	global	_PSSBD1
   601  04E1                     _PSSBD1  equ     1249
   602                           	global	_RABPU
   603  040F                     _RABPU  equ     1039
   604                           	global	_RBPU
   605  040F                     _RBPU  equ     1039
   606                           	global	_RCEN
   607  048B                     _RCEN  equ     1163
   608                           	global	_RCIE
   609  0465                     _RCIE  equ     1125
   610                           	global	_RSEN
   611  0489                     _RSEN  equ     1161
   612                           	global	_RW
   613  04A2                     _RW  equ     1186
   614                           	global	_SBOREN
   615  0474                     _SBOREN  equ     1140
   616                           	global	_SCS
   617  0478                     _SCS  equ     1144
   618                           	global	_SEN
   619  0488                     _SEN  equ     1160
   620                           	global	_SENDB
   621  04C3                     _SENDB  equ     1219
   622                           	global	_SMP
   623  04A7                     _SMP  equ     1191
   624                           	global	_SSPIE
   625  0463                     _SSPIE  equ     1123
   626                           	global	_START
   627  04A3                     _START  equ     1187
   628                           	global	_STOP
   629  04A4                     _STOP  equ     1188
   630                           	global	_STRA
   631  04E8                     _STRA  equ     1256
   632                           	global	_STRB
   633  04E9                     _STRB  equ     1257
   634                           	global	_STRC
   635  04EA                     _STRC  equ     1258
   636                           	global	_STRD
   637  04EB                     _STRD  equ     1259
   638                           	global	_STRSYNC
   639  04EC                     _STRSYNC  equ     1260
   640                           	global	_SYNC
   641  04C4                     _SYNC  equ     1220
   642                           	global	_T0CS
   643  040D                     _T0CS  equ     1037
   644                           	global	_T0SE
   645  040C                     _T0SE  equ     1036
   646                           	global	_TMR1IE
   647  0460                     _TMR1IE  equ     1120
   648                           	global	_TMR2IE
   649  0461                     _TMR2IE  equ     1121
   650                           	global	_TRISA0
   651  0428                     _TRISA0  equ     1064
   652                           	global	_TRISA1
   653  0429                     _TRISA1  equ     1065
   654                           	global	_TRISA2
   655  042A                     _TRISA2  equ     1066
   656                           	global	_TRISA3
   657  042B                     _TRISA3  equ     1067
   658                           	global	_TRISA4
   659  042C                     _TRISA4  equ     1068
   660                           	global	_TRISA5
   661  042D                     _TRISA5  equ     1069
   662                           	global	_TRISA6
   663  042E                     _TRISA6  equ     1070
   664                           	global	_TRISA7
   665  042F                     _TRISA7  equ     1071
   666                           	global	_TRISB0
   667  0430                     _TRISB0  equ     1072
   668                           	global	_TRISB1
   669  0431                     _TRISB1  equ     1073
   670                           	global	_TRISB2
   671  0432                     _TRISB2  equ     1074
   672                           	global	_TRISB3
   673  0433                     _TRISB3  equ     1075
   674                           	global	_TRISB4
   675  0434                     _TRISB4  equ     1076
   676                           	global	_TRISB5
   677  0435                     _TRISB5  equ     1077
   678                           	global	_TRISB6
   679  0436                     _TRISB6  equ     1078
   680                           	global	_TRISB7
   681  0437                     _TRISB7  equ     1079
   682                           	global	_TRISC0
   683  0438                     _TRISC0  equ     1080
   684                           	global	_TRISC1
   685  0439                     _TRISC1  equ     1081
   686                           	global	_TRISC2
   687  043A                     _TRISC2  equ     1082
   688                           	global	_TRISC3
   689  043B                     _TRISC3  equ     1083
   690                           	global	_TRISC4
   691  043C                     _TRISC4  equ     1084
   692                           	global	_TRISC5
   693  043D                     _TRISC5  equ     1085
   694                           	global	_TRISC6
   695  043E                     _TRISC6  equ     1086
   696                           	global	_TRISC7
   697  043F                     _TRISC7  equ     1087
   698                           	global	_TRISD0
   699  0440                     _TRISD0  equ     1088
   700                           	global	_TRISD1
   701  0441                     _TRISD1  equ     1089
   702                           	global	_TRISD2
   703  0442                     _TRISD2  equ     1090
   704                           	global	_TRISD3
   705  0443                     _TRISD3  equ     1091
   706                           	global	_TRISD4
   707  0444                     _TRISD4  equ     1092
   708                           	global	_TRISD5
   709  0445                     _TRISD5  equ     1093
   710                           	global	_TRISD6
   711  0446                     _TRISD6  equ     1094
   712                           	global	_TRISD7
   713  0447                     _TRISD7  equ     1095
   714                           	global	_TRISE0
   715  0448                     _TRISE0  equ     1096
   716                           	global	_TRISE1
   717  0449                     _TRISE1  equ     1097
   718                           	global	_TRISE2
   719  044A                     _TRISE2  equ     1098
   720                           	global	_TRISE3
   721  044B                     _TRISE3  equ     1099
   722                           	global	_TRMT
   723  04C1                     _TRMT  equ     1217
   724                           	global	_TUN0
   725  0480                     _TUN0  equ     1152
   726                           	global	_TUN1
   727  0481                     _TUN1  equ     1153
   728                           	global	_TUN2
   729  0482                     _TUN2  equ     1154
   730                           	global	_TUN3
   731  0483                     _TUN3  equ     1155
   732                           	global	_TUN4
   733  0484                     _TUN4  equ     1156
   734                           	global	_TX9
   735  04C6                     _TX9  equ     1222
   736                           	global	_TX9D
   737  04C0                     _TX9D  equ     1216
   738                           	global	_TXEN
   739  04C5                     _TXEN  equ     1221
   740                           	global	_TXIE
   741  0464                     _TXIE  equ     1124
   742                           	global	_UA
   743  04A1                     _UA  equ     1185
   744                           	global	_ULPWUE
   745  0475                     _ULPWUE  equ     1141
   746                           	global	_ULPWUIE
   747  046A                     _ULPWUIE  equ     1130
   748                           	global	_VCFG0
   749  04FC                     _VCFG0  equ     1276
   750                           	global	_VCFG1
   751  04FD                     _VCFG1  equ     1277
   752                           	global	_VR0
   753  04B8                     _VR0  equ     1208
   754                           	global	_VR1
   755  04B9                     _VR1  equ     1209
   756                           	global	_VR2
   757  04BA                     _VR2  equ     1210
   758                           	global	_VR3
   759  04BB                     _VR3  equ     1211
   760                           	global	_VREN
   761  04BF                     _VREN  equ     1215
   762                           	global	_VROE
   763  04BE                     _VROE  equ     1214
   764                           	global	_VRR
   765  04BD                     _VRR  equ     1213
   766                           	global	_VRSS
   767  04BC                     _VRSS  equ     1212
   768                           	global	_WPUB0
   769  04A8                     _WPUB0  equ     1192
   770                           	global	_WPUB1
   771  04A9                     _WPUB1  equ     1193
   772                           	global	_WPUB2
   773  04AA                     _WPUB2  equ     1194
   774                           	global	_WPUB3
   775  04AB                     _WPUB3  equ     1195
   776                           	global	_WPUB4
   777  04AC                     _WPUB4  equ     1196
   778                           	global	_WPUB5
   779  04AD                     _WPUB5  equ     1197
   780                           	global	_WPUB6
   781  04AE                     _WPUB6  equ     1198
   782                           	global	_WPUB7
   783  04AF                     _WPUB7  equ     1199
   784                           	global	_CM1CON0
   785  0107                     _CM1CON0  equ     263
   786                           	global	_CM2CON0
   787  0108                     _CM2CON0  equ     264
   788                           	global	_CM2CON1
   789  0109                     _CM2CON1  equ     265
   790                           	global	_EEADR
   791  010D                     _EEADR  equ     269
   792                           	global	_EEADRH
   793  010F                     _EEADRH  equ     271
   794                           	global	_EEADRL
   795  010D                     _EEADRL  equ     269
   796                           	global	_EEDAT
   797  010C                     _EEDAT  equ     268
   798                           	global	_EEDATA
   799  010C                     _EEDATA  equ     268
   800                           	global	_EEDATH
   801  010E                     _EEDATH  equ     270
   802                           	global	_WDTCON
   803  0105                     _WDTCON  equ     261
   804                           	global	_C1CH0
   805  0838                     _C1CH0  equ     2104
   806                           	global	_C1CH1
   807  0839                     _C1CH1  equ     2105
   808                           	global	_C1OE
   809  083D                     _C1OE  equ     2109
   810                           	global	_C1ON
   811  083F                     _C1ON  equ     2111
   812                           	global	_C1OUT
   813  083E                     _C1OUT  equ     2110
   814                           	global	_C1POL
   815  083C                     _C1POL  equ     2108
   816                           	global	_C1R
   817  083A                     _C1R  equ     2106
   818                           	global	_C1RSEL
   819  084D                     _C1RSEL  equ     2125
   820                           	global	_C2CH0
   821  0840                     _C2CH0  equ     2112
   822                           	global	_C2CH1
   823  0841                     _C2CH1  equ     2113
   824                           	global	_C2OE
   825  0845                     _C2OE  equ     2117
   826                           	global	_C2ON
   827  0847                     _C2ON  equ     2119
   828                           	global	_C2OUT
   829  0846                     _C2OUT  equ     2118
   830                           	global	_C2POL
   831  0844                     _C2POL  equ     2116
   832                           	global	_C2R
   833  0842                     _C2R  equ     2114
   834                           	global	_C2RSEL
   835  084C                     _C2RSEL  equ     2124
   836                           	global	_C2SYNC
   837  0848                     _C2SYNC  equ     2120
   838                           	global	_MC1OUT
   839  084F                     _MC1OUT  equ     2127
   840                           	global	_MC2OUT
   841  084E                     _MC2OUT  equ     2126
   842                           	global	_SWDTEN
   843  0828                     _SWDTEN  equ     2088
   844                           	global	_T1GSS
   845  0849                     _T1GSS  equ     2121
   846                           	global	_WDTPS0
   847  0829                     _WDTPS0  equ     2089
   848                           	global	_WDTPS1
   849  082A                     _WDTPS1  equ     2090
   850                           	global	_WDTPS2
   851  082B                     _WDTPS2  equ     2091
   852                           	global	_WDTPS3
   853  082C                     _WDTPS3  equ     2092
   854                           	global	_ANSEL
   855  0188                     _ANSEL  equ     392
   856                           	global	_ANSELH
   857  0189                     _ANSELH  equ     393
   858                           	global	_BAUDCTL
   859  0187                     _BAUDCTL  equ     391
   860                           	global	_EECON1
   861  018C                     _EECON1  equ     396
   862                           	global	_EECON2
   863  018D                     _EECON2  equ     397
   864                           	global	_SRCON
   865  0185                     _SRCON  equ     389
   866                           	global	_ABDEN
   867  0C38                     _ABDEN  equ     3128
   868                           	global	_ABDOVF
   869  0C3F                     _ABDOVF  equ     3135
   870                           	global	_ANS0
   871  0C40                     _ANS0  equ     3136
   872                           	global	_ANS1
   873  0C41                     _ANS1  equ     3137
   874                           	global	_ANS10
   875  0C4A                     _ANS10  equ     3146
   876                           	global	_ANS11
   877  0C4B                     _ANS11  equ     3147
   878                           	global	_ANS12
   879  0C4C                     _ANS12  equ     3148
   880                           	global	_ANS13
   881  0C4D                     _ANS13  equ     3149
   882                           	global	_ANS2
   883  0C42                     _ANS2  equ     3138
   884                           	global	_ANS3
   885  0C43                     _ANS3  equ     3139
   886                           	global	_ANS4
   887  0C44                     _ANS4  equ     3140
   888                           	global	_ANS5
   889  0C45                     _ANS5  equ     3141
   890                           	global	_ANS6
   891  0C46                     _ANS6  equ     3142
   892                           	global	_ANS7
   893  0C47                     _ANS7  equ     3143
   894                           	global	_ANS8
   895  0C48                     _ANS8  equ     3144
   896                           	global	_ANS9
   897  0C49                     _ANS9  equ     3145
   898                           	global	_BRG16
   899  0C3B                     _BRG16  equ     3131
   900                           	global	_C1SEN
   901  0C2D                     _C1SEN  equ     3117
   902                           	global	_C2REN
   903  0C2C                     _C2REN  equ     3116
   904                           	global	_EEPGD
   905  0C67                     _EEPGD  equ     3175
   906                           	global	_FVREN
   907  0C28                     _FVREN  equ     3112
   908                           	global	_PULSR
   909  0C2A                     _PULSR  equ     3114
   910                           	global	_PULSS
   911  0C2B                     _PULSS  equ     3115
   912                           	global	_RCIDL
   913  0C3E                     _RCIDL  equ     3134
   914                           	global	_RD
   915  0C60                     _RD  equ     3168
   916                           	global	_SCKP
   917  0C3C                     _SCKP  equ     3132
   918                           	global	_SR0
   919  0C2E                     _SR0  equ     3118
   920                           	global	_SR1
   921  0C2F                     _SR1  equ     3119
   922                           	global	_WR
   923  0C61                     _WR  equ     3169
   924                           	global	_WREN
   925  0C62                     _WREN  equ     3170
   926                           	global	_WRERR
   927  0C63                     _WRERR  equ     3171
   928                           	global	_WUE
   929  0C39                     _WUE  equ     3129
   930                           	file	"Vref 2.50.as"
   931                           	line	#
   932                           psect cinit,class=CODE,delta=2
   933                           global start_initialization
   934  0E8A                     start_initialization:
   935                           
   936                           psect	bssCOMMON,class=COMMON,space=1
   937                           global __pbssCOMMON
   938  0075                     __pbssCOMMON:
   939  0075                     _DV:
   940  0075                            ds      2
   941                           
   942  0077                     _high:
   943  0077                            ds      2
   944                           
   945                           psect	bssBANK0,class=BANK0,space=1
   946                           global __pbssBANK0
   947  005A                     __pbssBANK0:
   948  005A                     _low:
   949  005A                            ds      2
   950                           
   951                           ; Clear objects allocated to COMMON
   952                           psect cinit,class=CODE,delta=2
   953  0E8A  01F5               	clrf	((__pbssCOMMON)+0)&07Fh
   954  0E8B  01F6               	clrf	((__pbssCOMMON)+1)&07Fh
   955  0E8C  01F7               	clrf	((__pbssCOMMON)+2)&07Fh
   956  0E8D  01F8               	clrf	((__pbssCOMMON)+3)&07Fh
   957                           ; Clear objects allocated to BANK0
   958                           psect cinit,class=CODE,delta=2
   959  0E8E  01DA               	clrf	((__pbssBANK0)+0)&07Fh
   960  0E8F  01DB               	clrf	((__pbssBANK0)+1)&07Fh
   961                           psect cinit,class=CODE,delta=2
   962                           global end_of_initialization
   963                           
   964                           ;End of C runtime variable initationation code
   965                           
   966  0E90                     end_of_initialization:
   967  0E90  0183               clrf status
   968  0E91  120A  158A  2F95   ljmp _main	;jump to C main() function
   969                           psect	cstackCOMMON,class=COMMON,space=1
   970                           global __pcstackCOMMON
   971  0070                     __pcstackCOMMON:
   972                           	global	??___ftneg
   973  0070                     ??___ftneg: ;@ 0x0
   974                           	global	?_delay
   975  0070                     ?_delay: ;@ 0x0
   976                           	global	??_data
   977  0070                     ??_data: ;@ 0x0
   978                           	global	??_pulse
   979  0070                     ??_pulse: ;@ 0x0
   980                           	global	??___awmod
   981  0070                     ??___awmod: ;@ 0x0
   982                           	global	??_delay
   983  0070                     ??_delay: ;@ 0x0
   984                           	global	??_command
   985  0070                     ??_command: ;@ 0x0
   986                           	global	??___ftpack
   987  0070                     ??___ftpack: ;@ 0x0
   988                           	global	delay@x
   989  0070                     delay@x:	; 2 bytes @ 0x0
   990                           	global	?___ftneg
   991  0070                     ?___ftneg: ;@ 0x0
   992                           	global	___ftneg@f1
   993  0070                     ___ftneg@f1:	; 3 bytes @ 0x0
   994  0070                     	ds	1
   995                           	global	??___awdiv
   996  0071                     ??___awdiv: ;@ 0x1
   997  0071                     	ds	1
   998                           	global	??_count
   999  0072                     ??_count: ;@ 0x2
  1000                           	global	?_pulse
  1001  0072                     ?_pulse: ;@ 0x2
  1002                           	global	data@data
  1003  0072                     data@data:	; 1 bytes @ 0x2
  1004                           	global	command@data
  1005  0072                     command@data:	; 1 bytes @ 0x2
  1006  0072                     	ds	1
  1007                           	global	?_data
  1008  0073                     ?_data: ;@ 0x3
  1009                           	global	?_command
  1010  0073                     ?_command: ;@ 0x3
  1011                           	global	??___awtoft
  1012  0073                     ??___awtoft: ;@ 0x3
  1013                           	global	??_adc
  1014  0073                     ??_adc: ;@ 0x3
  1015  0073                     	ds	2
  1016                           	global	??_voltage
  1017  0075                     ??_voltage: ;@ 0x5
  1018                           	global	?_adc
  1019  0075                     ?_adc: ;@ 0x5
  1020                           	global	??_main
  1021  0075                     ??_main: ;@ 0x5
  1022                           psect	cstackBANK0,class=BANK0,space=1
  1023                           global __pcstackBANK0
  1024  0020                     __pcstackBANK0:
  1025                           	global	??___ftge
  1026  0020                     ??___ftge: ;@ 0x0
  1027                           	global	___awmod@sign
  1028  0020                     ___awmod@sign:	; 1 bytes @ 0x0
  1029                           	global	?___ftpack
  1030  0020                     ?___ftpack: ;@ 0x0
  1031                           	global	___ftpack@arg
  1032  0020                     ___ftpack@arg:	; 3 bytes @ 0x0
  1033  0020                     	ds	1
  1034                           	global	___awmod@counter
  1035  0021                     ___awmod@counter:	; 1 bytes @ 0x1
  1036  0021                     	ds	1
  1037                           	global	?___awmod
  1038  0022                     ?___awmod: ;@ 0x2
  1039                           	global	___awmod@dividend
  1040  0022                     ___awmod@dividend:	; 2 bytes @ 0x2
  1041  0022                     	ds	1
  1042                           	global	___ftpack@exp
  1043  0023                     ___ftpack@exp:	; 1 bytes @ 0x3
  1044  0023                     	ds	1
  1045                           	global	___ftpack@sign
  1046  0024                     ___ftpack@sign:	; 1 bytes @ 0x4
  1047                           	global	___awmod@divisor
  1048  0024                     ___awmod@divisor:	; 2 bytes @ 0x4
  1049  0024                     	ds	1
  1050                           	global	??___ftadd
  1051  0025                     ??___ftadd: ;@ 0x5
  1052                           	global	___awtoft@sign
  1053  0025                     ___awtoft@sign:	; 1 bytes @ 0x5
  1054  0025                     	ds	1
  1055                           	global	?___ftge
  1056  0026                     ?___ftge: ;@ 0x6
  1057                           	global	___awdiv@counter
  1058  0026                     ___awdiv@counter:	; 1 bytes @ 0x6
  1059                           	global	___awtoft@c
  1060  0026                     ___awtoft@c:	; 2 bytes @ 0x6
  1061                           	global	?___awtoft
  1062  0026                     ?___awtoft: ;@ 0x6
  1063                           	global	___ftge@ff1
  1064  0026                     ___ftge@ff1:	; 3 bytes @ 0x6
  1065  0026                     	ds	1
  1066                           	global	___awdiv@sign
  1067  0027                     ___awdiv@sign:	; 1 bytes @ 0x7
  1068  0027                     	ds	1
  1069                           	global	___ftadd@sign
  1070  0028                     ___ftadd@sign:	; 1 bytes @ 0x8
  1071                           	global	___awdiv@quotient
  1072  0028                     ___awdiv@quotient:	; 2 bytes @ 0x8
  1073  0028                     	ds	1
  1074                           	global	??___ftmul
  1075  0029                     ??___ftmul: ;@ 0x9
  1076                           	global	___ftadd@exp2
  1077  0029                     ___ftadd@exp2:	; 1 bytes @ 0x9
  1078                           	global	___ftge@ff2
  1079  0029                     ___ftge@ff2:	; 3 bytes @ 0x9
  1080  0029                     	ds	1
  1081                           	global	?___awdiv
  1082  002A                     ?___awdiv: ;@ 0xA
  1083                           	global	___ftadd@exp1
  1084  002A                     ___ftadd@exp1:	; 1 bytes @ 0xA
  1085                           	global	___awdiv@dividend
  1086  002A                     ___awdiv@dividend:	; 2 bytes @ 0xA
  1087  002A                     	ds	1
  1088                           	global	?___ftadd
  1089  002B                     ?___ftadd: ;@ 0xB
  1090                           	global	___ftadd@f1
  1091  002B                     ___ftadd@f1:	; 3 bytes @ 0xB
  1092  002B                     	ds	1
  1093                           	global	___awdiv@divisor
  1094  002C                     ___awdiv@divisor:	; 2 bytes @ 0xC
  1095  002C                     	ds	1
  1096                           	global	___ftmul@exp
  1097  002D                     ___ftmul@exp:	; 1 bytes @ 0xD
  1098  002D                     	ds	1
  1099                           	global	count@e
  1100  002E                     count@e:	; 2 bytes @ 0xE
  1101                           	global	___ftmul@f3_as_product
  1102  002E                     ___ftmul@f3_as_product:	; 3 bytes @ 0xE
  1103                           	global	___ftadd@f2
  1104  002E                     ___ftadd@f2:	; 3 bytes @ 0xE
  1105  002E                     	ds	2
  1106                           	global	count@f
  1107  0030                     count@f:	; 2 bytes @ 0x10
  1108+ 0030                     	ds	1
  1109                           	global	___ftmul@cntr
  1110  0031                     ___ftmul@cntr:	; 1 bytes @ 0x11
  1111  0031                     	ds	1
  1112                           	global	___ftmul@sign
  1113  0032                     ___ftmul@sign:	; 1 bytes @ 0x12
  1114                           	global	count@a
  1115  0032                     count@a:	; 2 bytes @ 0x12
  1116  0032                     	ds	1
  1117                           	global	?___ftmul
  1118  0033                     ?___ftmul: ;@ 0x13
  1119                           	global	___ftmul@f1
  1120  0033                     ___ftmul@f1:	; 3 bytes @ 0x13
  1121  0033                     	ds	1
  1122                           	global	count@c
  1123  0034                     count@c:	; 2 bytes @ 0x14
  1124  0034                     	ds	2
  1125                           	global	?_count
  1126  0036                     ?_count: ;@ 0x16
  1127                           	global	count@i
  1128  0036                     count@i:	; 2 bytes @ 0x16
  1129                           	global	___ftmul@f2
  1130  0036                     ___ftmul@f2:	; 3 bytes @ 0x16
  1131  0036                     	ds	3
  1132                           	global	??___fttol
  1133  0039                     ??___fttol: ;@ 0x19
  1134                           	global	??___ftdiv
  1135  0039                     ??___ftdiv: ;@ 0x19
  1136  0039                     	ds	3
  1137                           	global	___fttol@sign1
  1138  003C                     ___fttol@sign1:	; 1 bytes @ 0x1C
  1139  003C                     	ds	1
  1140                           	global	___ftdiv@cntr
  1141  003D                     ___ftdiv@cntr:	; 1 bytes @ 0x1D
  1142                           	global	___fttol@lval
  1143  003D                     ___fttol@lval:	; 4 bytes @ 0x1D
  1144  003D                     	ds	1
  1145                           	global	___ftdiv@f3
  1146  003E                     ___ftdiv@f3:	; 3 bytes @ 0x1E
  1147  003E                     	ds	3
  1148                           	global	___fttol@exp1
  1149  0041                     ___fttol@exp1:	; 1 bytes @ 0x21
  1150                           	global	___ftdiv@exp
  1151  0041                     ___ftdiv@exp:	; 1 bytes @ 0x21
  1152  0041                     	ds	1
  1153                           	global	___ftdiv@sign
  1154  0042                     ___ftdiv@sign:	; 1 bytes @ 0x22
  1155                           	global	___fttol@f1
  1156  0042                     ___fttol@f1:	; 3 bytes @ 0x22
  1157                           	global	?___fttol
  1158  0042                     ?___fttol: ;@ 0x22
  1159  0042                     	ds	1
  1160                           	global	?___ftdiv
  1161  0043                     ?___ftdiv: ;@ 0x23
  1162                           	global	___ftdiv@f1
  1163  0043                     ___ftdiv@f1:	; 3 bytes @ 0x23
  1164  0043                     	ds	3
  1165                           	global	___ftdiv@f2
  1166  0046                     ___ftdiv@f2:	; 3 bytes @ 0x26
  1167  0046                     	ds	3
  1168                           	global	voltage@n
  1169  0049                     voltage@n:	; 3 bytes @ 0x29
  1170  0049                     	ds	3
  1171                           	global	voltage@m
  1172  004C                     voltage@m:	; 3 bytes @ 0x2C
  1173  004C                     	ds	3
  1174                           	global	voltage@c
  1175  004F                     voltage@c:	; 2 bytes @ 0x2F
  1176  004F                     	ds	2
  1177                           	global	voltage@a
  1178  0051                     voltage@a:	; 2 bytes @ 0x31
  1179  0051                     	ds	2
  1180                           	global	voltage@b
  1181  0053                     voltage@b:	; 2 bytes @ 0x33
  1182  0053                     	ds	2
  1183                           	global	voltage@z
  1184  0055                     voltage@z:	; 3 bytes @ 0x35
  1185  0055                     	ds	3
  1186                           	global	voltage@d
  1187  0058                     voltage@d:	; 2 bytes @ 0x38
  1188  0058                     	ds	2
  1189                           	global	?_main
  1190  005A                     ?_main: ;@ 0x3A
  1191                           	global	?_voltage
  1192  005A                     ?_voltage: ;@ 0x3A
  1193                           ;Data sizes: Strings 0, constant 0, data 0, bss 6, persistent 0 stack 0
  1194                           ;Auto spaces:   Size  Autos    Used
  1195                           ; COMMON          14      5       9
  1196                           ; BANK0           80     58      60
  1197                           ; BANK1           80      0       0
  1198                           ; BANK3           96      0       0
  1199                           ; BANK2           96      0       0
  1200                           
  1201                           
  1202                           ;Pointer list with targets:
  1203                           
  1204                           ;?___awmod	int  size(1); Largest target is 0
  1205                           ;?___awdiv	int  size(1); Largest target is 0
  1206                           ;?___awtoft	float  size(1); Largest target is 0
  1207                           ;?___fttol	long  size(1); Largest target is 0
  1208                           ;?___ftdiv	float  size(1); Largest target is 0
  1209                           ;?___ftmul	float  size(1); Largest target is 0
  1210                           ;?___ftadd	float  size(1); Largest target is 0
  1211                           ;?___ftneg	float  size(1); Largest target is 0
  1212                           ;?___ftpack	float  size(1); Largest target is 0
  1213                           
  1214                           
  1215                           ;Main: autosize = 0, tempsize = 0, incstack = 0, save=0
  1216                           
  1217                           
  1218                           ;Call graph:                      Base Space Used Autos Args Refs Density
  1219                           ;_main                                                0    0 6392   0.00
  1220                           ;            _command
  1221                           ;               _data
  1222                           ;                _adc
  1223                           ;            _voltage
  1224                           ;  _adc                                               2    0  854   0.00
  1225                           ;                                    3 COMMO    2
  1226                           ;              _count
  1227                           ;  _voltage                                          17    0 5474   0.00
  1228                           ;                                   41 BANK0   17
  1229                           ;            _command
  1230                           ;           ___awtoft
  1231                           ;            ___ftmul
  1232                           ;            ___ftdiv
  1233                           ;             ___ftge
  1234                           ;            ___ftadd
  1235                           ;            ___fttol
  1236                           ;            ___awdiv
  1237                           ;            ___awmod
  1238                           ;               _data
  1239                           ;            ___ftneg
  1240                           ;    ___ftmul                                        10    6  767   0.00
  1241                           ;                                    9 BANK0   16
  1242                           ;           ___awtoft (ARG)
  1243                           ;           ___ftpack
  1244                           ;    ___ftdiv                                        10    6 1352   0.00
  1245                           ;                                   25 BANK0   16
  1246                           ;            ___ftmul (ARG)
  1247                           ;           ___awtoft (ARG)
  1248                           ;           ___ftpack
  1249                           ;    ___awtoft                                        3    3  222   0.00
  1250                           ;                                    3 COMMO    2
  1251                           ;                                    5 BANK0    4
  1252                           ;           ___ftpack
  1253                           ;    ___ftneg                                         0    3   33   0.00
  1254                           ;                                    0 COMMO    3
  1255                           ;    ___ftge                                          6    6  100   0.00
  1256                           ;                                    0 BANK0   12
  1257                           ;    ___ftadd                                         6    6  806   0.00
  1258                           ;                                    5 BANK0   12
  1259                           ;            ___ftneg (ARG)
  1260                           ;           ___ftpack
  1261                           ;    _count                                           8    2  854   0.00
  1262                           ;                                   14 BANK0   10
  1263                           ;            ___awdiv
  1264                           ;            ___awmod
  1265                           ;            _command
  1266                           ;               _data
  1267                           ;    ___fttol                                         9    4  953   0.00
  1268                           ;                                   25 BANK0   13
  1269                           ;            ___ftmul (ARG)
  1270                           ;      ___ftpack                                      3    5  155   0.00
  1271                           ;                                    0 COMMO    3
  1272                           ;                                    0 BANK0    5
  1273                           ;      _data                                          1    0   32   0.00
  1274                           ;                                    2 COMMO    1
  1275                           ;              _pulse
  1276                           ;      _command                                       1    0   32   0.00
  1277                           ;                                    2 COMMO    1
  1278                           ;              _pulse
  1279                           ;      ___awmod                                       3    4  218   0.00
  1280                           ;                                    0 COMMO    1
  1281                           ;                                    0 BANK0    6
  1282                           ;      ___awdiv                                       5    4  440   0.00
  1283                           ;                                    1 COMMO    1
  1284                           ;                                    6 BANK0    8
  1285                           ;            ___awmod (ARG)
  1286                           ;        _pulse                                       0    0   16   0.00
  1287                           ;              _delay
  1288                           ;          _delay                                     0    2   16   0.00
  1289                           ;                                    0 COMMO    2
  1290                           ; Estimated maximum call depth 5
  1291                           ; Address spaces:
  1292                           
  1293                           ;Name               Size   Autos  Total    Cost      Usage
  1294                           ;BITCOMMON            E      0       0       0        0.0%
  1295                           ;CODE                 0      0       0       0        0.0%
  1296                           ;NULL                 0      0       0       0        0.0%
  1297                           ;COMMON               E      5       9       1       64.3%
  1298                           ;SFR0                 0      0       0       1        0.0%
  1299                           ;BITSFR0              0      0       0       1        0.0%
  1300                           ;BITSFR1              0      0       0       2        0.0%
  1301                           ;SFR1                 0      0       0       2        0.0%
  1302                           ;ABS                  0      0      45       2        0.0%
  1303                           ;STACK                0      0       0       3        0.0%
  1304                           ;BITBANK0            50      0       0       4        0.0%
  1305                           ;SFR3                 0      0       0       4        0.0%
  1306                           ;BITSFR3              0      0       0       4        0.0%
  1307                           ;BANK0               50     3A      3C       5       75.0%
  1308                           ;BITSFR2              0      0       0       5        0.0%
  1309                           ;SFR2                 0      0       0       5        0.0%
  1310                           ;BITBANK1            50      0       0       6        0.0%
  1311                           ;BANK1               50      0       0       7        0.0%
  1312                           ;BITBANK3            60      0       0       8        0.0%
  1313                           ;BANK3               60      0       0       9        0.0%
  1314                           ;BITBANK2            60      0       0      10        0.0%
  1315                           ;BANK2               60      0       0      11        0.0%
  1316                           ;DATA                 0      0      45      12        0.0%
  1317                           ;EEDATA             100      0       0    1000        0.0%
  1318                           
  1319                           	global	_main
  1320                           psect	maintext,local,class=CODE,delta=2
  1321                           global __pmaintext
  1322  0F95                     __pmaintext:
  1323                           
  1324                           ; *************** function _main *****************
  1325                           ; Defined at:
  1326                           ;		line 142 in file "C:\Users\gowth\Documents\PIC Programs\ADC\Vref 2.5\Vref 2.50.c"
  1327                           ; Parameters:    Size  Location     Type
  1328                           ;		None
  1329                           ; Auto vars:     Size  Location     Type
  1330                           ;		None
  1331                           ; Return value:  Size  Location     Type
  1332                           ;		None               void
  1333                           ; Registers used:
  1334                           ;		wreg, status,2, status,0, pclath, cstack
  1335                           ; Tracked objects:
  1336                           ;		On entry : 17F/0
  1337                           ;		On exit  : 0/0
  1338                           ;		Unchanged: 0/0
  1339                           ; Data sizes:     COMMON   BANK0   BANK1   BANK3   BANK2
  1340                           ;      Locals:         0       0       0       0       0
  1341                           ;      Temp:     0
  1342                           ;      Total:    0
  1343                           ; This function calls:
  1344                           ;		_command
  1345                           ;		_data
  1346                           ;		_adc
  1347                           ;		_voltage
  1348                           ; This function is called by:
  1349                           ;		Startup code after reset
  1350                           ; This function uses a non-reentrant model
  1351                           ; 
  1352                           psect	maintext
  1353                           	file	"C:\Users\gowth\Documents\PIC Programs\ADC\Vref 2.5\Vref 2.50.c"
  1354                           	line	142
  1355                           	global	__size_of_main
  1356  006B                     	__size_of_main	equ	__end_of_main-_main
  1357                           ;Vref 2.50.c: 141: void main()
  1358                           ;Vref 2.50.c: 142: {
  1359                           	
  1360  0F95                     _main:	
  1361                           	opt stack 8
  1362                           ; Regs used in _main: [wreg+status,2+status,0+pclath+cstack]
  1363                           	line	143
  1364                           	
  1365  0F95                     l30001238:	
  1366                           ;Vref 2.50.c: 143: TRISA=0X0D; PORTA=0X00;
  1367  0F95  300D               	movlw	(0Dh)
  1368  0F96  1683               	bsf	status, 5	;RP0=1, select bank1
  1369  0F97  1303               	bcf	status, 6	;RP1=0, select bank1
  1370  0F98  0085               	movwf	(133)^080h	;volatile
  1371                           	
  1372  0F99                     l30001239:	
  1373  0F99  1003               	clrc
  1374  0F9A  3000               	movlw	0
  1375  0F9B  1803               	btfsc	status,0
  1376  0F9C  3001               	movlw	1
  1377  0F9D  1283               	bcf	status, 5	;RP0=0, select bank0
  1378  0F9E  1303               	bcf	status, 6	;RP1=0, select bank0
  1379  0F9F  0085               	movwf	(5)	;volatile
  1380                           	
  1381  0FA0                     l30001240:	
  1382                           	line	144
  1383                           ;Vref 2.50.c: 144: TRISD=0X00; PORTD=0X00;
  1384  0FA0  1003               	clrc
  1385  0FA1  3000               	movlw	0
  1386  0FA2  1803               	btfsc	status,0
  1387  0FA3  3001               	movlw	1
  1388  0FA4  1683               	bsf	status, 5	;RP0=1, select bank1
  1389  0FA5  1303               	bcf	status, 6	;RP1=0, select bank1
  1390  0FA6  0088               	movwf	(136)^080h	;volatile
  1391                           	
  1392  0FA7                     l30001241:	
  1393  0FA7  1003               	clrc
  1394  0FA8  3000               	movlw	0
  1395  0FA9  1803               	btfsc	status,0
  1396  0FAA  3001               	movlw	1
  1397  0FAB  1283               	bcf	status, 5	;RP0=0, select bank0
  1398  0FAC  1303               	bcf	status, 6	;RP1=0, select bank0
  1399  0FAD  0088               	movwf	(8)	;volatile
  1400                           	
  1401  0FAE                     l30001242:	
  1402                           	line	145
  1403                           ;Vref 2.50.c: 145: TRISC=0X00; PORTC=0X00;
  1404  0FAE  1003               	clrc
  1405  0FAF  3000               	movlw	0
  1406  0FB0  1803               	btfsc	status,0
  1407  0FB1  3001               	movlw	1
  1408  0FB2  1683               	bsf	status, 5	;RP0=1, select bank1
  1409  0FB3  1303               	bcf	status, 6	;RP1=0, select bank1
  1410  0FB4  0087               	movwf	(135)^080h	;volatile
  1411                           	
  1412  0FB5                     l30001243:	
  1413  0FB5  1003               	clrc
  1414  0FB6  3000               	movlw	0
  1415  0FB7  1803               	btfsc	status,0
  1416  0FB8  3001               	movlw	1
  1417  0FB9  1283               	bcf	status, 5	;RP0=0, select bank0
  1418  0FBA  1303               	bcf	status, 6	;RP1=0, select bank0
  1419  0FBB  0087               	movwf	(7)	;volatile
  1420                           	
  1421  0FBC                     l30001244:	
  1422                           	line	146
  1423                           ;Vref 2.50.c: 146: TRISE=0X00; PORTE=0X00;
  1424  0FBC  1003               	clrc
  1425  0FBD  3000               	movlw	0
  1426  0FBE  1803               	btfsc	status,0
  1427  0FBF  3001               	movlw	1
  1428  0FC0  1683               	bsf	status, 5	;RP0=1, select bank1
  1429  0FC1  1303               	bcf	status, 6	;RP1=0, select bank1
  1430  0FC2  0089               	movwf	(137)^080h	;volatile
  1431                           	
  1432  0FC3                     l30001245:	
  1433  0FC3  1003               	clrc
  1434  0FC4  3000               	movlw	0
  1435  0FC5  1803               	btfsc	status,0
  1436  0FC6  3001               	movlw	1
  1437  0FC7  1283               	bcf	status, 5	;RP0=0, select bank0
  1438+ 0FC8  1303               	bcf	status, 6	;RP1=0, select bank0
  1439+ 0FC9  0089               	movwf	(9)	;volatile
  1440                           	line	148
  1441                           ;Vref 2.50.c: 148: ANSEL=0X01; ANSELH=0X00;
  1442  0FCA  1683               	bsf	status, 5	;RP0=1, select bank3
  1443  0FCB  1703               	bsf	status, 6	;RP1=1, select bank3
  1444  0FCC  0188               	clrf	(392)^0180h
  1445  0FCD  1403               	bsf	status,0
  1446  0FCE  0D88               	rlf	(392)^0180h,f
  1447                           	
  1448  0FCF                     l30001246:	
  1449  0FCF  1003               	clrc
  1450  0FD0  3000               	movlw	0
  1451  0FD1  1803               	btfsc	status,0
  1452  0FD2  3001               	movlw	1
  1453  0FD3  0089               	movwf	(393)^0180h
  1454                           	
  1455  0FD4                     l30001247:	
  1456                           	line	150
  1457                           ;Vref 2.50.c: 150: command(0X38);
  1458  0FD4  3038               	movlw	(038h)
  1459  0FD5  120A  158A  2694   	fcall	_command
              120A  158A         
  1460                           	
  1461  0FDA                     l30001248:	
  1462                           	line	151
  1463                           ;Vref 2.50.c: 151: command(0X0C);
  1464  0FDA  300C               	movlw	(0Ch)
  1465  0FDB  120A  158A  2694   	fcall	_command
              120A  158A         
  1466                           	
  1467  0FE0                     l30001249:	
  1468                           	line	153
  1469                           ;Vref 2.50.c: 153: command(0X80);
  1470  0FE0  3080               	movlw	(080h)
  1471  0FE1  120A  158A  2694   	fcall	_command
              120A  158A         
  1472                           	
  1473  0FE6                     l30001250:	
  1474                           	line	154
  1475                           ;Vref 2.50.c: 154: data('0');
  1476  0FE6  3030               	movlw	(030h)
  1477  0FE7  120A  118A  2005   	fcall	_data
              120A  158A         
  1478                           	
  1479  0FEC                     l30001251:	
  1480                           	line	155
  1481                           ;Vref 2.50.c: 155: data('0');
  1482  0FEC  3030               	movlw	(030h)
  1483  0FED  120A  118A  2005   	fcall	_data
              120A  158A         
  1484                           	
  1485  0FF2                     l30001252:	
  1486                           	line	159
  1487                           ;Vref 2.50.c: 158: {
  1488                           ;Vref 2.50.c: 159: adc();
  1489  0FF2  120A  118A  21B5   	fcall	_adc
              120A  158A         
  1490                           	
  1491  0FF7                     l30001253:	
  1492                           	line	160
  1493                           ;Vref 2.50.c: 160: voltage();
  1494  0FF7  120A  118A  25D4   	fcall	_voltage
              120A  158A         
  1495  0FFC  2FF2               	goto	l30001252
  1496                           	global	start
  1497  0FFD  120A  118A  2800   	ljmp	start
  1498                           	opt stack 0
  1499                           GLOBAL	__end_of_main
  1500  1000                     	__end_of_main:
  1501                           ; =============== function _main ends ============
  1502                           
  1503                           psect	maintext
  1504                           	line	163
  1505                           	signat	_main,88
  1506                           	global	_adc
  1507                           psect	text110,local,class=CODE,delta=2
  1508                           global __ptext110
  1509  01B5                     __ptext110:
  1510                           
  1511                           ; *************** function _adc *****************
  1512                           ; Defined at:
  1513                           ;		line 54 in file "C:\Users\gowth\Documents\PIC Programs\ADC\Vref 2.5\Vref 2.50.c"
  1514                           ; Parameters:    Size  Location     Type
  1515                           ;		None
  1516                           ; Auto vars:     Size  Location     Type
  1517                           ;		None
  1518                           ; Return value:  Size  Location     Type
  1519                           ;		None               void
  1520                           ; Registers used:
  1521                           ;		wreg, status,2, status,0, pclath, cstack
  1522                           ; Tracked objects:
  1523                           ;		On entry : 0/0
  1524                           ;		On exit  : 0/0
  1525                           ;		Unchanged: 0/0
  1526                           ; Data sizes:     COMMON   BANK0   BANK1   BANK3   BANK2
  1527                           ;      Locals:         2       0       0       0       0
  1528                           ;      Temp:     2
  1529                           ;      Total:    2
  1530                           ; This function calls:
  1531                           ;		_count
  1532                           ; This function is called by:
  1533                           ;		_main
  1534                           ; This function uses a non-reentrant model
  1535                           ; 
  1536                           psect	text110
  1537                           	file	"C:\Users\gowth\Documents\PIC Programs\ADC\Vref 2.5\Vref 2.50.c"
  1538                           	line	54
  1539                           	global	__size_of_adc
  1540  008B                     	__size_of_adc	equ	__end_of_adc-_adc
  1541                           ;Vref 2.50.c: 53: void adc()
  1542                           ;Vref 2.50.c: 54: {
  1543                           	
  1544  01B5                     _adc:	
  1545                           	opt stack 7
  1546                           ; Regs used in _adc: [wreg+status,2+status,0+pclath+cstack]
  1547                           	line	55
  1548                           	
  1549  01B5                     l30001117:	
  1550                           ;Vref 2.50.c: 55: ADCON0=0X83; ADCON1=0XB0;
  1551  01B5  3083               	movlw	(083h)
  1552  01B6  1283               	bcf	status, 5	;RP0=0, select bank0
  1553  01B7  1303               	bcf	status, 6	;RP1=0, select bank0
  1554  01B8  009F               	movwf	(31)	;volatile
  1555  01B9  30B0               	movlw	(0B0h)
  1556  01BA  1683               	bsf	status, 5	;RP0=1, select bank1
  1557  01BB  1303               	bcf	status, 6	;RP1=0, select bank1
  1558  01BC  009F               	movwf	(159)^080h
  1559                           	
  1560  01BD                     l10:	
  1561                           	line	56
  1562  01BD  1283               	bcf	status, 5	;RP0=0, select bank0
  1563  01BE  189F               	btfsc	(31),(1)&7	;volatile
  1564  01BF  29C1               	goto	u1961
  1565  01C0  29C2               	goto	u1960
  1566  01C1                     u1961:
  1567  01C1  29BD               	goto	l10
  1568  01C2                     u1960:
  1569                           	
  1570  01C2                     l30001118:	
  1571                           	line	57
  1572                           ;Vref 2.50.c: 57: high=ADRESH; low=ADRESL;
  1573  01C2  081E               	movf	(30),w	;volatile
  1574  01C3  00F3               	movwf	(??_adc+0+0)
  1575  01C4  01F4               	clrf	(??_adc+0+0+1)
  1576  01C5  0873               	movf	0+(??_adc+0+0),w
  1577  01C6  00F7               	movwf	(_high)
  1578  01C7  0874               	movf	1+(??_adc+0+0),w
  1579  01C8  00F8               	movwf	(_high+1)
  1580  01C9  1683               	bsf	status, 5	;RP0=1, select bank1
  1581  01CA  1303               	bcf	status, 6	;RP1=0, select bank1
  1582  01CB  081E               	movf	(158)^080h,w	;volatile
  1583  01CC  00F3               	movwf	(??_adc+0+0)
  1584  01CD  01F4               	clrf	(??_adc+0+0+1)
  1585  01CE  0873               	movf	0+(??_adc+0+0),w
  1586  01CF  1283               	bcf	status, 5	;RP0=0, select bank0
  1587  01D0  1303               	bcf	status, 6	;RP1=0, select bank0
  1588  01D1  00DA               	movwf	(_low)
  1589  01D2  0874               	movf	1+(??_adc+0+0),w
  1590  01D3  00DB               	movwf	(_low+1)
  1591                           	
  1592  01D4                     l30001119:	
  1593                           	line	59
  1594                           ;Vref 2.50.c: 59: if(high==0)
  1595  01D4  0878               	movf	((_high+1)),w
  1596  01D5  0477               	iorwf	((_high)),w
  1597  01D6  1D03               	skipz
  1598  01D7  29D9               	goto	u1971
  1599  01D8  29DA               	goto	u1970
  1600  01D9                     u1971:
  1601  01D9  29EB               	goto	l30001122
  1602  01DA                     u1970:
  1603                           	
  1604  01DA                     l30001120:	
  1605                           	line	61
  1606                           ;Vref 2.50.c: 60: {
  1607                           ;Vref 2.50.c: 61: DV=low;
  1608  01DA  085B               	movf	(_low+1),w
  1609  01DB  01F6               	clrf	(_DV+1)
  1610  01DC  07F6               	addwf	(_DV+1)
  1611  01DD  085A               	movf	(_low),w
  1612  01DE  01F5               	clrf	(_DV)
  1613  01DF  07F5               	addwf	(_DV)
  1614                           
  1615                           	
  1616  01E0                     l30001121:	
  1617                           	line	62
  1618                           ;Vref 2.50.c: 62: count(DV);
  1619  01E0  0876               	movf	(_DV+1),w
  1620  01E1  01B7               	clrf	(?_count+1)
  1621  01E2  07B7               	addwf	(?_count+1)
  1622  01E3  0875               	movf	(_DV),w
  1623  01E4  01B6               	clrf	(?_count)
  1624  01E5  07B6               	addwf	(?_count)
  1625                           
  1626  01E6  120A  118A  2240   	fcall	_count
              120A  118A         
  1627                           	
  1628  01EB                     l30001122:	
  1629                           	line	65
  1630                           ;Vref 2.50.c: 63: }
  1631                           ;Vref 2.50.c: 65: if(high==1)
  1632  01EB  3001               	movlw	01h
  1633  01EC  0677               	xorwf	(_high),w
  1634  01ED  0478               	iorwf	(_high+1),w
  1635  01EE  1D03               	skipz
  1636  01EF  29F1               	goto	u1981
  1637  01F0  29F2               	goto	u1980
  1638  01F1                     u1981:
  1639  01F1  2A07               	goto	l30001125
  1640  01F2                     u1980:
  1641                           	
  1642  01F2                     l30001123:	
  1643                           	line	67
  1644                           ;Vref 2.50.c: 66: {
  1645                           ;Vref 2.50.c: 67: DV=low+256;
  1646  01F2  1283               	bcf	status, 5	;RP0=0, select bank0
  1647  01F3  1303               	bcf	status, 6	;RP1=0, select bank0
  1648  01F4  085A               	movf	(_low),w
  1649  01F5  3E00               	addlw	low(0100h)
  1650  01F6  00F5               	movwf	(_DV)
  1651  01F7  085B               	movf	(_low+1),w
  1652  01F8  1803               	skipnc
  1653  01F9  3E01               	addlw	1
  1654  01FA  3E01               	addlw	high(0100h)
  1655  01FB  00F6               	movwf	1+(_DV)
  1656                           	
  1657  01FC                     l30001124:	
  1658                           	line	68
  1659                           ;Vref 2.50.c: 68: count(DV);
  1660  01FC  0876               	movf	(_DV+1),w
  1661  01FD  01B7               	clrf	(?_count+1)
  1662  01FE  07B7               	addwf	(?_count+1)
  1663  01FF  0875               	movf	(_DV),w
  1664  0200  01B6               	clrf	(?_count)
  1665  0201  07B6               	addwf	(?_count)
  1666                           
  1667  0202  120A  118A  2240   	fcall	_count
              120A  118A         
  1668                           	
  1669  0207                     l30001125:	
  1670                           	line	71
  1671                           ;Vref 2.50.c: 69: }
  1672                           ;Vref 2.50.c: 71: if(high==2)
  1673  0207  3002               	movlw	02h
  1674  0208  0677               	xorwf	(_high),w
  1675  0209  0478               	iorwf	(_high+1),w
  1676  020A  1D03               	skipz
  1677  020B  2A0D               	goto	u1991
  1678  020C  2A0E               	goto	u1990
  1679  020D                     u1991:
  1680  020D  2A23               	goto	l30001128
  1681  020E                     u1990:
  1682                           	
  1683  020E                     l30001126:	
  1684                           	line	73
  1685                           ;Vref 2.50.c: 72: {
  1686                           ;Vref 2.50.c: 73: DV=low+512;
  1687  020E  1283               	bcf	status, 5	;RP0=0, select bank0
  1688  020F  1303               	bcf	status, 6	;RP1=0, select bank0
  1689  0210  085A               	movf	(_low),w
  1690  0211  3E00               	addlw	low(0200h)
  1691  0212  00F5               	movwf	(_DV)
  1692  0213  085B               	movf	(_low+1),w
  1693  0214  1803               	skipnc
  1694  0215  3E01               	addlw	1
  1695  0216  3E02               	addlw	high(0200h)
  1696  0217  00F6               	movwf	1+(_DV)
  1697                           	
  1698  0218                     l30001127:	
  1699                           	line	74
  1700                           ;Vref 2.50.c: 74: count(DV);
  1701  0218  0876               	movf	(_DV+1),w
  1702  0219  01B7               	clrf	(?_count+1)
  1703  021A  07B7               	addwf	(?_count+1)
  1704  021B  0875               	movf	(_DV),w
  1705  021C  01B6               	clrf	(?_count)
  1706  021D  07B6               	addwf	(?_count)
  1707                           
  1708  021E  120A  118A  2240   	fcall	_count
              120A  118A         
  1709                           	
  1710  0223                     l30001128:	
  1711                           	line	77
  1712                           ;Vref 2.50.c: 75: }
  1713                           ;Vref 2.50.c: 77: if(high==3)
  1714  0223  3003               	movlw	03h
  1715  0224  0677               	xorwf	(_high),w
  1716  0225  0478               	iorwf	(_high+1),w
  1717  0226  1D03               	skipz
  1718  0227  2A29               	goto	u2001
  1719  0228  2A2A               	goto	u2000
  1720  0229                     u2001:
  1721  0229  2A3F               	goto	l9
  1722  022A                     u2000:
  1723                           	
  1724  022A                     l30001129:	
  1725                           	line	79
  1726                           ;Vref 2.50.c: 78: {
  1727                           ;Vref 2.50.c: 79: DV=low+768;
  1728  022A  1283               	bcf	status, 5	;RP0=0, select bank0
  1729  022B  1303               	bcf	status, 6	;RP1=0, select bank0
  1730  022C  085A               	movf	(_low),w
  1731  022D  3E00               	addlw	low(0300h)
  1732  022E  00F5               	movwf	(_DV)
  1733  022F  085B               	movf	(_low+1),w
  1734  0230  1803               	skipnc
  1735  0231  3E01               	addlw	1
  1736  0232  3E03               	addlw	high(0300h)
  1737  0233  00F6               	movwf	1+(_DV)
  1738                           	
  1739  0234                     l30001130:	
  1740                           	line	80
  1741                           ;Vref 2.50.c: 80: count(DV);
  1742  0234  0876               	movf	(_DV+1),w
  1743  0235  01B7               	clrf	(?_count+1)
  1744  0236  07B7               	addwf	(?_count+1)
  1745  0237  0875               	movf	(_DV),w
  1746  0238  01B6               	clrf	(?_count)
  1747  0239  07B6               	addwf	(?_count)
  1748                           
  1749  023A  120A  118A  2240   	fcall	_count
              120A  118A         
  1750                           	
  1751  023F                     l9:	
  1752  023F  0008               	return
  1753                           	opt stack 0
  1754                           GLOBAL	__end_of_adc
  1755  0240                     	__end_of_adc:
  1756                           ; =============== function _adc ends ============
  1757                           
  1758                           psect	text111,local,class=CODE,delta=2
  1759                           global __ptext111
  1760  05D4                     __ptext111:
  1761                           	line	83
  1762                           	signat	_adc,88
  1763                           	global	_voltage
  1764                           
  1765                           ; *************** function _voltage *****************
  1766                           ; Defined at:
  1767                           ;		line 86 in file "C:\Users\gowth\Documents\PIC Programs\ADC\Vref 2.5\Vref 2.50.c"
  1768                           ; Parameters:    Size  Location     Type
  1769                           ;		None
  1770                           ; Auto vars:     Size  Location     Type
  1771                           ;  n               3   41[BANK0 ] float 
  1772                           ;  m               3   44[BANK0 ] float 
  1773                           ;  z               3   53[BANK0 ] float 
  1774                           ;  d               2   56[BANK0 ] int 
  1775                           ;  c               2   47[BANK0 ] int 
  1776                           ;  b               2   51[BANK0 ] int 
  1777                           ;  a               2   49[BANK0 ] int 
  1778                           ; Return value:  Size  Location     Type
  1779                           ;		None               void
  1780                           ; Registers used:
  1781                           ;		wreg, status,2, status,0, pclath, cstack
  1782                           ; Tracked objects:
  1783                           ;		On entry : 0/0
  1784                           ;		On exit  : 0/0
  1785                           ;		Unchanged: 0/0
  1786                           ; Data sizes:     COMMON   BANK0   BANK1   BANK3   BANK2
  1787                           ;      Locals:         0      17       0       0       0
  1788                           ;      Temp:     0
  1789                           ;      Total:   17
  1790                           ; This function calls:
  1791                           ;		_command
  1792                           ;		___awtoft
  1793                           ;		___ftmul
  1794                           ;		___ftdiv
  1795                           ;		___ftge
  1796                           ;		___ftadd
  1797                           ;		___fttol
  1798                           ;		___awdiv
  1799                           ;		___awmod
  1800                           ;		_data
  1801                           ;		___ftneg
  1802                           ; This function is called by:
  1803                           ;		_main
  1804                           ; This function uses a non-reentrant model
  1805                           ; 
  1806                           psect	text111
  1807                           	file	"C:\Users\gowth\Documents\PIC Programs\ADC\Vref 2.5\Vref 2.50.c"
  1808                           	line	86
  1809                           	global	__size_of_voltage
  1810  022C                     	__size_of_voltage	equ	__end_of_voltage-_voltage
  1811                           ;Vref 2.50.c: 85: void voltage()
  1812                           ;Vref 2.50.c: 86: {
  1813                           	
  1814  05D4                     _voltage:	
  1815                           	opt stack 7
  1816                           ; Regs used in _voltage: [wreg+status,2+status,0+pclath+cstack]
  1817                           	line	88
  1818                           	
  1819  05D4                     l30001210:	
  1820                           ;Vref 2.50.c: 88: command(0XC0);
  1821  05D4  30C0               	movlw	(0C0h)
  1822  05D5  120A  158A  2694   	fcall	_command
              120A  118A         
  1823                           	line	92
  1824                           ;Vref 2.50.c: 89: int a,b,c,d;
  1825                           ;Vref 2.50.c: 90: float z;
  1826                           ;Vref 2.50.c: 92: z=(DV*5.0)/1023.0;
  1827  05DA  0876               	movf	(_DV+1),w
  1828  05DB  1283               	bcf	status, 5	;RP0=0, select bank0
  1829  05DC  1303               	bcf	status, 6	;RP1=0, select bank0
  1830  05DD  01A7               	clrf	(?___awtoft+1)
  1831  05DE  07A7               	addwf	(?___awtoft+1)
  1832  05DF  0875               	movf	(_DV),w
  1833  05E0  01A6               	clrf	(?___awtoft)
  1834  05E1  07A6               	addwf	(?___awtoft)
  1835                           
  1836  05E2  120A  118A  2011   	fcall	___awtoft
              120A  118A         
  1837  05E7  1383               	bcf	status, 7	;select IRP bank0
  1838  05E8  1283               	bcf	status, 5	;RP0=0, select bank0
  1839  05E9  1303               	bcf	status, 6	;RP1=0, select bank0
  1840  05EA  0826               	movf	(0+(?___awtoft)),w
  1841  05EB  00B3               	movwf	(?___ftmul)
  1842  05EC  0827               	movf	(1+(?___awtoft)),w
  1843  05ED  00B4               	movwf	(?___ftmul+1)
  1844  05EE  0828               	movf	(2+(?___awtoft)),w
  1845  05EF  00B5               	movwf	(?___ftmul+2)
  1846  05F0  3000               	movlw	0x0
  1847  05F1  00B6               	movwf	0+(?___ftmul)+03h
  1848  05F2  30A0               	movlw	0xa0
  1849  05F3  00B7               	movwf	1+(?___ftmul)+03h
  1850  05F4  3040               	movlw	0x40
  1851  05F5  00B8               	movwf	2+(?___ftmul)+03h
  1852  05F6  120A  118A  23AC   	fcall	___ftmul
              120A  118A         
  1853  05FB  1383               	bcf	status, 7	;select IRP bank0
  1854  05FC  1283               	bcf	status, 5	;RP0=0, select bank0
  1855  05FD  1303               	bcf	status, 6	;RP1=0, select bank0
  1856  05FE  0833               	movf	(0+(?___ftmul)),w
  1857  05FF  00C3               	movwf	(?___ftdiv)
  1858  0600  0834               	movf	(1+(?___ftmul)),w
  1859  0601  00C4               	movwf	(?___ftdiv+1)
  1860  0602  0835               	movf	(2+(?___ftmul)),w
  1861  0603  00C5               	movwf	(?___ftdiv+2)
  1862  0604  30C0               	movlw	0xc0
  1863  0605  00C6               	movwf	0+(?___ftdiv)+03h
  1864  0606  307F               	movlw	0x7f
  1865  0607  00C7               	movwf	1+(?___ftdiv)+03h
  1866  0608  3044               	movlw	0x44
  1867  0609  00C8               	movwf	2+(?___ftdiv)+03h
  1868  060A  120A  118A  22F1   	fcall	___ftdiv
              120A  118A         
  1869  060F  1383               	bcf	status, 7	;select IRP bank0
  1870  0610  1283               	bcf	status, 5	;RP0=0, select bank0
  1871  0611  1303               	bcf	status, 6	;RP1=0, select bank0
  1872  0612  0843               	movf	(0+(?___ftdiv)),w
  1873  0613  00D5               	movwf	(voltage@z)
  1874  0614  0844               	movf	(1+(?___ftdiv)),w
  1875  0615  00D6               	movwf	(voltage@z+1)
  1876  0616  0845               	movf	(2+(?___ftdiv)),w
  1877  0617  00D7               	movwf	(voltage@z+2)
  1878                           	line	94
  1879                           ;Vref 2.50.c: 94: if(z>=2.5)
  1880  0618  0855               	movf	(voltage@z),w
  1881  0619  00A6               	movwf	(?___ftge)
  1882  061A  0856               	movf	(voltage@z+1),w
  1883  061B  00A7               	movwf	(?___ftge+1)
  1884  061C  0857               	movf	(voltage@z+2),w
  1885  061D  00A8               	movwf	(?___ftge+2)
  1886  061E  3000               	movlw	0x0
  1887  061F  00A9               	movwf	0+(?___ftge)+03h
  1888  0620  3020               	movlw	0x20
  1889  0621  00AA               	movwf	1+(?___ftge)+03h
  1890  0622  3040               	movlw	0x40
  1891  0623  00AB               	movwf	2+(?___ftge)+03h
  1892  0624  120A  158A  272C   	fcall	___ftge
              120A  118A         
  1893  0629  1C03               	btfss	status,0
  1894  062A  2E2C               	goto	u2271
  1895  062B  2E2D               	goto	u2270
  1896  062C                     u2271:
  1897  062C  2F04               	goto	l30001224
  1898  062D                     u2270:
  1899                           	
  1900  062D                     l30001211:	
  1901                           	line	98
  1902                           ;Vref 2.50.c: 95: {
  1903                           ;Vref 2.50.c: 97: float m;
  1904                           ;Vref 2.50.c: 98: m=z;
  1905  062D  1283               	bcf	status, 5	;RP0=0, select bank0
  1906  062E  1303               	bcf	status, 6	;RP1=0, select bank0
  1907  062F  0855               	movf	(voltage@z),w
  1908  0630  00CC               	movwf	(voltage@m)
  1909  0631  0856               	movf	(voltage@z+1),w
  1910  0632  00CD               	movwf	(voltage@m+1)
  1911  0633  0857               	movf	(voltage@z+2),w
  1912  0634  00CE               	movwf	(voltage@m+2)
  1913                           	
  1914  0635                     l30001212:	
  1915                           	line	99
  1916                           ;Vref 2.50.c: 99: m=m-2.5;
  1917  0635  084C               	movf	(voltage@m),w
  1918  0636  00AB               	movwf	(?___ftadd)
  1919  0637  084D               	movf	(voltage@m+1),w
  1920  0638  00AC               	movwf	(?___ftadd+1)
  1921  0639  084E               	movf	(voltage@m+2),w
  1922  063A  00AD               	movwf	(?___ftadd+2)
  1923  063B  3000               	movlw	0x0
  1924  063C  00AE               	movwf	0+(?___ftadd)+03h
  1925  063D  3020               	movlw	0x20
  1926  063E  00AF               	movwf	1+(?___ftadd)+03h
  1927  063F  30C0               	movlw	0xc0
  1928  0640  00B0               	movwf	2+(?___ftadd)+03h
  1929  0641  120A  118A  2488   	fcall	___ftadd
              120A  118A         
  1930  0646  1383               	bcf	status, 7	;select IRP bank0
  1931  0647  1283               	bcf	status, 5	;RP0=0, select bank0
  1932  0648  1303               	bcf	status, 6	;RP1=0, select bank0
  1933  0649  082B               	movf	(0+(?___ftadd)),w
  1934  064A  00CC               	movwf	(voltage@m)
  1935  064B  082C               	movf	(1+(?___ftadd)),w
  1936  064C  00CD               	movwf	(voltage@m+1)
  1937  064D  082D               	movf	(2+(?___ftadd)),w
  1938  064E  00CE               	movwf	(voltage@m+2)
  1939                           	
  1940  064F                     l30001213:	
  1941                           	line	101
  1942                           ;Vref 2.50.c: 101: d=m*100;
  1943  064F  084C               	movf	(voltage@m),w
  1944  0650  00B3               	movwf	(?___ftmul)
  1945  0651  084D               	movf	(voltage@m+1),w
  1946  0652  00B4               	movwf	(?___ftmul+1)
  1947  0653  084E               	movf	(voltage@m+2),w
  1948  0654  00B5               	movwf	(?___ftmul+2)
  1949  0655  3000               	movlw	0x0
  1950  0656  00B6               	movwf	0+(?___ftmul)+03h
  1951  0657  30C8               	movlw	0xc8
  1952  0658  00B7               	movwf	1+(?___ftmul)+03h
  1953  0659  3042               	movlw	0x42
  1954  065A  00B8               	movwf	2+(?___ftmul)+03h
  1955  065B  120A  118A  23AC   	fcall	___ftmul
              120A  118A         
  1956  0660  1383               	bcf	status, 7	;select IRP bank0
  1957  0661  1283               	bcf	status, 5	;RP0=0, select bank0
  1958  0662  1303               	bcf	status, 6	;RP1=0, select bank0
  1959  0663  0833               	movf	(0+(?___ftmul)),w
  1960  0664  00C2               	movwf	(?___fttol)
  1961  0665  0834               	movf	(1+(?___ftmul)),w
  1962  0666  00C3               	movwf	(?___fttol+1)
  1963  0667  0835               	movf	(2+(?___ftmul)),w
  1964  0668  00C4               	movwf	(?___fttol+2)
  1965  0669  120A  118A  212E   	fcall	___fttol
              120A  118A         
  1966  066E  1383               	bcf	status, 7	;select IRP bank0
  1967  066F  1283               	bcf	status, 5	;RP0=0, select bank0
  1968  0670  1303               	bcf	status, 6	;RP1=0, select bank0
  1969  0671  0843               	movf	(1+(?___fttol)),w
  1970  0672  01D9               	clrf	(voltage@d+1)
  1971  0673  07D9               	addwf	(voltage@d+1)
  1972  0674  0842               	movf	(0+(?___fttol)),w
  1973  0675  01D8               	clrf	(voltage@d)
  1974  0676  07D8               	addwf	(voltage@d)
  1975                           
  1976                           	
  1977  0677                     l30001214:	
  1978                           	line	102
  1979                           ;Vref 2.50.c: 102: a=d/100;
  1980  0677  0859               	movf	(voltage@d+1),w
  1981  0678  01AB               	clrf	(?___awdiv+1)
  1982  0679  07AB               	addwf	(?___awdiv+1)
  1983  067A  0858               	movf	(voltage@d),w
  1984  067B  01AA               	clrf	(?___awdiv)
  1985  067C  07AA               	addwf	(?___awdiv)
  1986                           
  1987  067D  3064               	movlw	low(064h)
  1988  067E  00AC               	movwf	0+(?___awdiv)+02h
  1989  067F  3000               	movlw	high(064h)
  1990  0680  00AD               	movwf	(0+(?___awdiv)+02h)+1
  1991  0681  120A  118A  2040   	fcall	___awdiv
              120A  118A         
  1992  0686  1383               	bcf	status, 7	;select IRP bank0
  1993  0687  1283               	bcf	status, 5	;RP0=0, select bank0
  1994  0688  1303               	bcf	status, 6	;RP1=0, select bank0
  1995  0689  082B               	movf	(1+(?___awdiv)),w
  1996  068A  01D2               	clrf	(voltage@a+1)
  1997  068B  07D2               	addwf	(voltage@a+1)
  1998  068C  082A               	movf	(0+(?___awdiv)),w
  1999  068D  01D1               	clrf	(voltage@a)
  2000  068E  07D1               	addwf	(voltage@a)
  2001                           
  2002                           	
  2003  068F                     l30001215:	
  2004                           	line	103
  2005                           ;Vref 2.50.c: 103: b=(d%100)/10;
  2006  068F  0859               	movf	(voltage@d+1),w
  2007  0690  01A3               	clrf	(?___awmod+1)
  2008  0691  07A3               	addwf	(?___awmod+1)
  2009  0692  0858               	movf	(voltage@d),w
  2010  0693  01A2               	clrf	(?___awmod)
  2011  0694  07A2               	addwf	(?___awmod)
  2012                           
  2013  0695  3064               	movlw	low(064h)
  2014  0696  00A4               	movwf	0+(?___awmod)+02h
  2015  0697  3000               	movlw	high(064h)
  2016  0698  00A5               	movwf	(0+(?___awmod)+02h)+1
  2017  0699  120A  158A  26CA   	fcall	___awmod
              120A  118A         
  2018  069E  1383               	bcf	status, 7	;select IRP bank0
  2019  069F  1283               	bcf	status, 5	;RP0=0, select bank0
  2020  06A0  1303               	bcf	status, 6	;RP1=0, select bank0
  2021  06A1  0823               	movf	(1+(?___awmod)),w
  2022  06A2  01AB               	clrf	(?___awdiv+1)
  2023  06A3  07AB               	addwf	(?___awdiv+1)
  2024  06A4  0822               	movf	(0+(?___awmod)),w
  2025  06A5  01AA               	clrf	(?___awdiv)
  2026  06A6  07AA               	addwf	(?___awdiv)
  2027                           
  2028  06A7  300A               	movlw	low(0Ah)
  2029  06A8  00AC               	movwf	0+(?___awdiv)+02h
  2030  06A9  3000               	movlw	high(0Ah)
  2031  06AA  00AD               	movwf	(0+(?___awdiv)+02h)+1
  2032  06AB  120A  118A  2040   	fcall	___awdiv
              120A  118A         
  2033  06B0  1383               	bcf	status, 7	;select IRP bank0
  2034  06B1  1283               	bcf	status, 5	;RP0=0, select bank0
  2035  06B2  1303               	bcf	status, 6	;RP1=0, select bank0
  2036  06B3  082B               	movf	(1+(?___awdiv)),w
  2037  06B4  01D4               	clrf	(voltage@b+1)
  2038  06B5  07D4               	addwf	(voltage@b+1)
  2039  06B6  082A               	movf	(0+(?___awdiv)),w
  2040  06B7  01D3               	clrf	(voltage@b)
  2041  06B8  07D3               	addwf	(voltage@b)
  2042                           
  2043                           	
  2044  06B9                     l30001216:	
  2045                           	line	104
  2046                           ;Vref 2.50.c: 104: c=d%10;
  2047  06B9  0859               	movf	(voltage@d+1),w
  2048  06BA  01A3               	clrf	(?___awmod+1)
  2049  06BB  07A3               	addwf	(?___awmod+1)
  2050  06BC  0858               	movf	(voltage@d),w
  2051  06BD  01A2               	clrf	(?___awmod)
  2052  06BE  07A2               	addwf	(?___awmod)
  2053                           
  2054  06BF  300A               	movlw	low(0Ah)
  2055  06C0  00A4               	movwf	0+(?___awmod)+02h
  2056  06C1  3000               	movlw	high(0Ah)
  2057  06C2  00A5               	movwf	(0+(?___awmod)+02h)+1
  2058  06C3  120A  158A  26CA   	fcall	___awmod
              120A  118A         
  2059  06C8  1383               	bcf	status, 7	;select IRP bank0
  2060  06C9  1283               	bcf	status, 5	;RP0=0, select bank0
  2061  06CA  1303               	bcf	status, 6	;RP1=0, select bank0
  2062  06CB  0823               	movf	(1+(?___awmod)),w
  2063  06CC  01D0               	clrf	(voltage@c+1)
  2064  06CD  07D0               	addwf	(voltage@c+1)
  2065  06CE  0822               	movf	(0+(?___awmod)),w
  2066  06CF  01CF               	clrf	(voltage@c)
  2067  06D0  07CF               	addwf	(voltage@c)
  2068                           
  2069                           	
  2070  06D1                     l30001217:	
  2071                           	line	106
  2072                           ;Vref 2.50.c: 106: data(0X2B);
  2073  06D1  302B               	movlw	(02Bh)
  2074  06D2  120A  118A  2005   	fcall	_data
              120A  118A         
  2075                           	
  2076  06D7                     l30001218:	
  2077                           	line	107
  2078                           ;Vref 2.50.c: 107: data(a+48);
  2079  06D7  1283               	bcf	status, 5	;RP0=0, select bank0
  2080  06D8  1303               	bcf	status, 6	;RP1=0, select bank0
  2081  06D9  0851               	movf	(voltage@a),w
  2082  06DA  3E30               	addlw	030h
  2083  06DB  120A  118A  2005   	fcall	_data
              120A  118A         
  2084                           	
  2085  06E0                     l30001219:	
  2086                           	line	108
  2087                           ;Vref 2.50.c: 108: data(0X2E);
  2088  06E0  302E               	movlw	(02Eh)
  2089  06E1  120A  118A  2005   	fcall	_data
              120A  118A         
  2090                           	
  2091  06E6                     l30001220:	
  2092                           	line	109
  2093                           ;Vref 2.50.c: 109: data(b+48);
  2094  06E6  1283               	bcf	status, 5	;RP0=0, select bank0
  2095  06E7  1303               	bcf	status, 6	;RP1=0, select bank0
  2096  06E8  0853               	movf	(voltage@b),w
  2097  06E9  3E30               	addlw	030h
  2098  06EA  120A  118A  2005   	fcall	_data
              120A  118A         
  2099                           	
  2100  06EF                     l30001221:	
  2101                           	line	110
  2102                           ;Vref 2.50.c: 110: data(c+48);
  2103  06EF  1283               	bcf	status, 5	;RP0=0, select bank0
  2104  06F0  1303               	bcf	status, 6	;RP1=0, select bank0
  2105  06F1  084F               	movf	(voltage@c),w
  2106  06F2  3E30               	addlw	030h
  2107  06F3  120A  118A  2005   	fcall	_data
              120A  118A         
  2108                           	
  2109  06F8                     l30001222:	
  2110                           	line	111
  2111                           ;Vref 2.50.c: 111: data(0X20);
  2112  06F8  3020               	movlw	(020h)
  2113  06F9  120A  118A  2005   	fcall	_data
              120A  118A         
  2114                           	
  2115  06FE                     l30001223:	
  2116                           	line	112
  2117                           ;Vref 2.50.c: 112: data(0X56);
  2118  06FE  3056               	movlw	(056h)
  2119  06FF  120A  118A  2005   	fcall	_data
              120A  118A         
  2120                           	
  2121  0704                     l30001224:	
  2122                           	line	115
  2123                           ;Vref 2.50.c: 113: }
  2124                           ;Vref 2.50.c: 115: if(z<2.5)
  2125  0704  1283               	bcf	status, 5	;RP0=0, select bank0
  2126  0705  1303               	bcf	status, 6	;RP1=0, select bank0
  2127  0706  0855               	movf	(voltage@z),w
  2128  0707  00A6               	movwf	(?___ftge)
  2129  0708  0856               	movf	(voltage@z+1),w
  2130  0709  00A7               	movwf	(?___ftge+1)
  2131  070A  0857               	movf	(voltage@z+2),w
  2132  070B  00A8               	movwf	(?___ftge+2)
  2133  070C  3000               	movlw	0x0
  2134  070D  00A9               	movwf	0+(?___ftge)+03h
  2135  070E  3020               	movlw	0x20
  2136  070F  00AA               	movwf	1+(?___ftge)+03h
  2137  0710  3040               	movlw	0x40
  2138  0711  00AB               	movwf	2+(?___ftge)+03h
  2139  0712  120A  158A  272C   	fcall	___ftge
              120A  118A         
  2140  0717  1803               	btfsc	status,0
  2141  0718  2F1A               	goto	u2281
  2142  0719  2F1B               	goto	u2280
  2143  071A                     u2281:
  2144  071A  2FFF               	goto	l17
  2145  071B                     u2280:
  2146                           	
  2147  071B                     l30001225:	
  2148                           	line	118
  2149                           ;Vref 2.50.c: 116: {
  2150                           ;Vref 2.50.c: 117: float n;
  2151                           ;Vref 2.50.c: 118: n=z;
  2152  071B  1283               	bcf	status, 5	;RP0=0, select bank0
  2153  071C  1303               	bcf	status, 6	;RP1=0, select bank0
  2154  071D  0855               	movf	(voltage@z),w
  2155  071E  00C9               	movwf	(voltage@n)
  2156  071F  0856               	movf	(voltage@z+1),w
  2157  0720  00CA               	movwf	(voltage@n+1)
  2158  0721  0857               	movf	(voltage@z+2),w
  2159  0722  00CB               	movwf	(voltage@n+2)
  2160                           	
  2161  0723                     l30001226:	
  2162                           	line	119
  2163                           ;Vref 2.50.c: 119: n=2.5-n;
  2164  0723  0849               	movf	(voltage@n),w
  2165  0724  00F0               	movwf	(?___ftneg)
  2166  0725  084A               	movf	(voltage@n+1),w
  2167  0726  00F1               	movwf	(?___ftneg+1)
  2168  0727  084B               	movf	(voltage@n+2),w
  2169  0728  00F2               	movwf	(?___ftneg+2)
  2170  0729  120A  158A  2680   	fcall	___ftneg
              120A  118A         
  2171  072E  0870               	movf	(0+(?___ftneg)),w
  2172  072F  1283               	bcf	status, 5	;RP0=0, select bank0
  2173  0730  1303               	bcf	status, 6	;RP1=0, select bank0
  2174  0731  00AB               	movwf	(?___ftadd)
  2175  0732  0871               	movf	(1+(?___ftneg)),w
  2176  0733  00AC               	movwf	(?___ftadd+1)
  2177  0734  0872               	movf	(2+(?___ftneg)),w
  2178  0735  00AD               	movwf	(?___ftadd+2)
  2179  0736  3000               	movlw	0x0
  2180  0737  00AE               	movwf	0+(?___ftadd)+03h
  2181  0738  3020               	movlw	0x20
  2182  0739  00AF               	movwf	1+(?___ftadd)+03h
  2183  073A  3040               	movlw	0x40
  2184  073B  00B0               	movwf	2+(?___ftadd)+03h
  2185  073C  120A  118A  2488   	fcall	___ftadd
              120A  118A         
  2186  0741  1383               	bcf	status, 7	;select IRP bank0
  2187  0742  1283               	bcf	status, 5	;RP0=0, select bank0
  2188  0743  1303               	bcf	status, 6	;RP1=0, select bank0
  2189  0744  082B               	movf	(0+(?___ftadd)),w
  2190  0745  00C9               	movwf	(voltage@n)
  2191  0746  082C               	movf	(1+(?___ftadd)),w
  2192  0747  00CA               	movwf	(voltage@n+1)
  2193  0748  082D               	movf	(2+(?___ftadd)),w
  2194  0749  00CB               	movwf	(voltage@n+2)
  2195                           	
  2196  074A                     l30001227:	
  2197                           	line	121
  2198                           ;Vref 2.50.c: 121: d=n*100;
  2199  074A  0849               	movf	(voltage@n),w
  2200  074B  00B3               	movwf	(?___ftmul)
  2201  074C  084A               	movf	(voltage@n+1),w
  2202  074D  00B4               	movwf	(?___ftmul+1)
  2203  074E  084B               	movf	(voltage@n+2),w
  2204  074F  00B5               	movwf	(?___ftmul+2)
  2205  0750  3000               	movlw	0x0
  2206  0751  00B6               	movwf	0+(?___ftmul)+03h
  2207  0752  30C8               	movlw	0xc8
  2208  0753  00B7               	movwf	1+(?___ftmul)+03h
  2209  0754  3042               	movlw	0x42
  2210  0755  00B8               	movwf	2+(?___ftmul)+03h
  2211  0756  120A  118A  23AC   	fcall	___ftmul
              120A  118A         
  2212  075B  1383               	bcf	status, 7	;select IRP bank0
  2213  075C  1283               	bcf	status, 5	;RP0=0, select bank0
  2214  075D  1303               	bcf	status, 6	;RP1=0, select bank0
  2215  075E  0833               	movf	(0+(?___ftmul)),w
  2216  075F  00C2               	movwf	(?___fttol)
  2217  0760  0834               	movf	(1+(?___ftmul)),w
  2218  0761  00C3               	movwf	(?___fttol+1)
  2219  0762  0835               	movf	(2+(?___ftmul)),w
  2220  0763  00C4               	movwf	(?___fttol+2)
  2221  0764  120A  118A  212E   	fcall	___fttol
              120A  118A         
  2222  0769  1383               	bcf	status, 7	;select IRP bank0
  2223  076A  1283               	bcf	status, 5	;RP0=0, select bank0
  2224  076B  1303               	bcf	status, 6	;RP1=0, select bank0
  2225  076C  0843               	movf	(1+(?___fttol)),w
  2226  076D  01D9               	clrf	(voltage@d+1)
  2227  076E  07D9               	addwf	(voltage@d+1)
  2228  076F  0842               	movf	(0+(?___fttol)),w
  2229  0770  01D8               	clrf	(voltage@d)
  2230  0771  07D8               	addwf	(voltage@d)
  2231                           
  2232                           	
  2233  0772                     l30001228:	
  2234                           	line	122
  2235                           ;Vref 2.50.c: 122: a=d/100;
  2236  0772  0859               	movf	(voltage@d+1),w
  2237  0773  01AB               	clrf	(?___awdiv+1)
  2238  0774  07AB               	addwf	(?___awdiv+1)
  2239  0775  0858               	movf	(voltage@d),w
  2240  0776  01AA               	clrf	(?___awdiv)
  2241  0777  07AA               	addwf	(?___awdiv)
  2242                           
  2243  0778  3064               	movlw	low(064h)
  2244  0779  00AC               	movwf	0+(?___awdiv)+02h
  2245  077A  3000               	movlw	high(064h)
  2246  077B  00AD               	movwf	(0+(?___awdiv)+02h)+1
  2247  077C  120A  118A  2040   	fcall	___awdiv
              120A  118A         
  2248  0781  1383               	bcf	status, 7	;select IRP bank0
  2249  0782  1283               	bcf	status, 5	;RP0=0, select bank0
  2250  0783  1303               	bcf	status, 6	;RP1=0, select bank0
  2251  0784  082B               	movf	(1+(?___awdiv)),w
  2252  0785  01D2               	clrf	(voltage@a+1)
  2253  0786  07D2               	addwf	(voltage@a+1)
  2254  0787  082A               	movf	(0+(?___awdiv)),w
  2255  0788  01D1               	clrf	(voltage@a)
  2256  0789  07D1               	addwf	(voltage@a)
  2257                           
  2258                           	
  2259  078A                     l30001229:	
  2260                           	line	123
  2261                           ;Vref 2.50.c: 123: b=(d%100)/10;
  2262  078A  0859               	movf	(voltage@d+1),w
  2263  078B  01A3               	clrf	(?___awmod+1)
  2264  078C  07A3               	addwf	(?___awmod+1)
  2265  078D  0858               	movf	(voltage@d),w
  2266  078E  01A2               	clrf	(?___awmod)
  2267  078F  07A2               	addwf	(?___awmod)
  2268                           
  2269  0790  3064               	movlw	low(064h)
  2270  0791  00A4               	movwf	0+(?___awmod)+02h
  2271  0792  3000               	movlw	high(064h)
  2272  0793  00A5               	movwf	(0+(?___awmod)+02h)+1
  2273  0794  120A  158A  26CA   	fcall	___awmod
              120A  118A         
  2274  0799  1383               	bcf	status, 7	;select IRP bank0
  2275  079A  1283               	bcf	status, 5	;RP0=0, select bank0
  2276  079B  1303               	bcf	status, 6	;RP1=0, select bank0
  2277  079C  0823               	movf	(1+(?___awmod)),w
  2278  079D  01AB               	clrf	(?___awdiv+1)
  2279  079E  07AB               	addwf	(?___awdiv+1)
  2280  079F  0822               	movf	(0+(?___awmod)),w
  2281  07A0  01AA               	clrf	(?___awdiv)
  2282  07A1  07AA               	addwf	(?___awdiv)
  2283                           
  2284  07A2  300A               	movlw	low(0Ah)
  2285  07A3  00AC               	movwf	0+(?___awdiv)+02h
  2286  07A4  3000               	movlw	high(0Ah)
  2287  07A5  00AD               	movwf	(0+(?___awdiv)+02h)+1
  2288  07A6  120A  118A  2040   	fcall	___awdiv
              120A  118A         
  2289  07AB  1383               	bcf	status, 7	;select IRP bank0
  2290  07AC  1283               	bcf	status, 5	;RP0=0, select bank0
  2291  07AD  1303               	bcf	status, 6	;RP1=0, select bank0
  2292  07AE  082B               	movf	(1+(?___awdiv)),w
  2293  07AF  01D4               	clrf	(voltage@b+1)
  2294  07B0  07D4               	addwf	(voltage@b+1)
  2295  07B1  082A               	movf	(0+(?___awdiv)),w
  2296  07B2  01D3               	clrf	(voltage@b)
  2297  07B3  07D3               	addwf	(voltage@b)
  2298                           
  2299                           	
  2300  07B4                     l30001230:	
  2301                           	line	124
  2302                           ;Vref 2.50.c: 124: c=d%10;
  2303  07B4  0859               	movf	(voltage@d+1),w
  2304  07B5  01A3               	clrf	(?___awmod+1)
  2305  07B6  07A3               	addwf	(?___awmod+1)
  2306  07B7  0858               	movf	(voltage@d),w
  2307  07B8  01A2               	clrf	(?___awmod)
  2308  07B9  07A2               	addwf	(?___awmod)
  2309                           
  2310  07BA  300A               	movlw	low(0Ah)
  2311  07BB  00A4               	movwf	0+(?___awmod)+02h
  2312  07BC  3000               	movlw	high(0Ah)
  2313  07BD  00A5               	movwf	(0+(?___awmod)+02h)+1
  2314  07BE  120A  158A  26CA   	fcall	___awmod
              120A  118A         
  2315  07C3  1383               	bcf	status, 7	;select IRP bank0
  2316  07C4  1283               	bcf	status, 5	;RP0=0, select bank0
  2317  07C5  1303               	bcf	status, 6	;RP1=0, select bank0
  2318  07C6  0823               	movf	(1+(?___awmod)),w
  2319  07C7  01D0               	clrf	(voltage@c+1)
  2320  07C8  07D0               	addwf	(voltage@c+1)
  2321  07C9  0822               	movf	(0+(?___awmod)),w
  2322  07CA  01CF               	clrf	(voltage@c)
  2323  07CB  07CF               	addwf	(voltage@c)
  2324                           
  2325                           	
  2326  07CC                     l30001231:	
  2327                           	line	126
  2328                           ;Vref 2.50.c: 126: data(0X2D);
  2329  07CC  302D               	movlw	(02Dh)
  2330  07CD  120A  118A  2005   	fcall	_data
              120A  118A         
  2331                           	
  2332  07D2                     l30001232:	
  2333                           	line	127
  2334                           ;Vref 2.50.c: 127: data(a+48);
  2335  07D2  1283               	bcf	status, 5	;RP0=0, select bank0
  2336  07D3  1303               	bcf	status, 6	;RP1=0, select bank0
  2337  07D4  0851               	movf	(voltage@a),w
  2338  07D5  3E30               	addlw	030h
  2339  07D6  120A  118A  2005   	fcall	_data
              120A  118A         
  2340                           	
  2341  07DB                     l30001233:	
  2342                           	line	128
  2343                           ;Vref 2.50.c: 128: data(0X2E);
  2344  07DB  302E               	movlw	(02Eh)
  2345  07DC  120A  118A  2005   	fcall	_data
              120A  118A         
  2346                           	
  2347  07E1                     l30001234:	
  2348                           	line	129
  2349                           ;Vref 2.50.c: 129: data(b+48);
  2350  07E1  1283               	bcf	status, 5	;RP0=0, select bank0
  2351  07E2  1303               	bcf	status, 6	;RP1=0, select bank0
  2352  07E3  0853               	movf	(voltage@b),w
  2353  07E4  3E30               	addlw	030h
  2354  07E5  120A  118A  2005   	fcall	_data
              120A  118A         
  2355                           	
  2356  07EA                     l30001235:	
  2357                           	line	130
  2358                           ;Vref 2.50.c: 130: data(c+48);
  2359  07EA  1283               	bcf	status, 5	;RP0=0, select bank0
  2360  07EB  1303               	bcf	status, 6	;RP1=0, select bank0
  2361  07EC  084F               	movf	(voltage@c),w
  2362  07ED  3E30               	addlw	030h
  2363  07EE  120A  118A  2005   	fcall	_data
              120A  118A         
  2364                           	
  2365  07F3                     l30001236:	
  2366                           	line	131
  2367                           ;Vref 2.50.c: 131: data(0X20);
  2368  07F3  3020               	movlw	(020h)
  2369  07F4  120A  118A  2005   	fcall	_data
              120A  118A         
  2370                           	
  2371  07F9                     l30001237:	
  2372                           	line	132
  2373                           ;Vref 2.50.c: 132: data(0X56);
  2374  07F9  3056               	movlw	(056h)
  2375  07FA  120A  118A  2005   	fcall	_data
              120A  118A         
  2376                           	
  2377  07FF                     l17:	
  2378  07FF  0008               	return
  2379                           	opt stack 0
  2380                           GLOBAL	__end_of_voltage
  2381  0800                     	__end_of_voltage:
  2382                           ; =============== function _voltage ends ============
  2383                           
  2384                           psect	text112,local,class=CODE,delta=2
  2385                           global __ptext112
  2386  03AC                     __ptext112:
  2387                           	line	137
  2388                           	signat	_voltage,88
  2389                           	global	___ftmul
  2390                           
  2391                           ; *************** function ___ftmul *****************
  2392                           ; Defined at:
  2393                           ;		line 52 in file "C:\Program Files (x86)\HI-TECH Software\PICC\9.70\sources\ftmul.c"
  2394                           ; Parameters:    Size  Location     Type
  2395                           ;  f1              3   19[BANK0 ] float 
  2396                           ;  f2              3   22[BANK0 ] float 
  2397                           ; Auto vars:     Size  Location     Type
  2398                           ;  f3_as_produc    3   14[BANK0 ] unsigned um
  2399                           ;  sign            1   18[BANK0 ] unsigned char 
  2400                           ;  cntr            1   17[BANK0 ] unsigned char 
  2401                           ;  exp             1   13[BANK0 ] unsigned char 
  2402                           ; Return value:  Size  Location     Type
  2403                           ;                  3   19[BANK0 ] float 
  2404                           ; Registers used:
  2405                           ;		wreg, status,2, status,0, pclath, cstack
  2406                           ; Tracked objects:
  2407                           ;		On entry : 0/0
  2408                           ;		On exit  : 0/0
  2409                           ;		Unchanged: 0/0
  2410                           ; Data sizes:     COMMON   BANK0   BANK1   BANK3   BANK2
  2411                           ;      Locals:         0      16       0       0       0
  2412                           ;      Temp:     4
  2413                           ;      Total:   16
  2414                           ; This function calls:
  2415                           ;		___ftpack
  2416                           ; This function is called by:
  2417                           ;		_voltage
  2418                           ; This function uses a non-reentrant model
  2419                           ; 
  2420                           psect	text112
  2421                           	file	"C:\Program Files (x86)\HI-TECH Software\PICC\9.70\sources\ftmul.c"
  2422                           	line	52
  2423                           	global	__size_of___ftmul
  2424  00DC                     	__size_of___ftmul	equ	__end_of___ftmul-___ftmul
  2425                           	
  2426  03AC                     ___ftmul:	
  2427                           	opt stack 6
  2428                           ; Regs used in ___ftmul: [wreg+status,2+status,0+pclath+cstack]
  2429                           	line	56
  2430                           	
  2431  03AC                     l30001185:	
  2432  03AC  1283               	bcf	status, 5	;RP0=0, select bank0
  2433  03AD  1303               	bcf	status, 6	;RP1=0, select bank0
  2434  03AE  0833               	movf	(___ftmul@f1),w
  2435  03AF  00A9               	movwf	(??___ftmul+0+0)
  2436  03B0  0834               	movf	(___ftmul@f1+1),w
  2437  03B1  00AA               	movwf	(??___ftmul+0+0+1)
  2438  03B2  0835               	movf	(___ftmul@f1+2),w
  2439  03B3  00AB               	movwf	(??___ftmul+0+0+2)
  2440  03B4  1003               	clrc
  2441  03B5  0D2A               	rlf	(??___ftmul+0+1),w
  2442  03B6  0D2B               	rlf	(??___ftmul+0+2),w
  2443  03B7  00AD               	movwf	(___ftmul@exp)
  2444  03B8  08AD               	movf	((___ftmul@exp))&07fh,f
  2445  03B9  1D03               	skipz
  2446  03BA  2BBC               	goto	u2131
  2447  03BB  2BBD               	goto	u2130
  2448  03BC                     u2131:
  2449  03BC  2BC4               	goto	l30001188
  2450  03BD                     u2130:
  2451                           	
  2452  03BD                     l30001186:	
  2453                           	line	57
  2454  03BD  3000               	movlw	0x0
  2455  03BE  00B3               	movwf	(?___ftmul)
  2456  03BF  3000               	movlw	0x0
  2457  03C0  00B4               	movwf	(?___ftmul+1)
  2458  03C1  3000               	movlw	0x0
  2459  03C2  00B5               	movwf	(?___ftmul+2)
  2460  03C3  2C87               	goto	l102
  2461                           	
  2462  03C4                     l30001188:	
  2463                           	line	58
  2464  03C4  0836               	movf	(___ftmul@f2),w
  2465  03C5  00A9               	movwf	(??___ftmul+0+0)
  2466  03C6  0837               	movf	(___ftmul@f2+1),w
  2467  03C7  00AA               	movwf	(??___ftmul+0+0+1)
  2468  03C8  0838               	movf	(___ftmul@f2+2),w
  2469  03C9  00AB               	movwf	(??___ftmul+0+0+2)
  2470  03CA  1003               	clrc
  2471  03CB  0D2A               	rlf	(??___ftmul+0+1),w
  2472  03CC  0D2B               	rlf	(??___ftmul+0+2),w
  2473  03CD  00B2               	movwf	(___ftmul@sign)
  2474  03CE  08B2               	movf	((___ftmul@sign))&07fh,f
  2475  03CF  1D03               	skipz
  2476  03D0  2BD2               	goto	u2141
  2477  03D1  2BD3               	goto	u2140
  2478  03D2                     u2141:
  2479  03D2  2BDA               	goto	l30001191
  2480  03D3                     u2140:
  2481                           	
  2482  03D3                     l30001189:	
  2483                           	line	59
  2484  03D3  3000               	movlw	0x0
  2485  03D4  00B3               	movwf	(?___ftmul)
  2486  03D5  3000               	movlw	0x0
  2487  03D6  00B4               	movwf	(?___ftmul+1)
  2488  03D7  3000               	movlw	0x0
  2489  03D8  00B5               	movwf	(?___ftmul+2)
  2490  03D9  2C87               	goto	l102
  2491                           	
  2492  03DA                     l30001191:	
  2493                           	line	60
  2494  03DA  0832               	movf	(___ftmul@sign),w
  2495  03DB  3E7B               	addlw	07Bh
  2496  03DC  00A9               	movwf	(??___ftmul+0+0)
  2497  03DD  0829               	movf	(??___ftmul+0+0),w
  2498  03DE  07AD               	addwf	(___ftmul@exp),f
  2499                           	line	61
  2500  03DF  0833               	movf	(___ftmul@f1),w
  2501  03E0  00A9               	movwf	(??___ftmul+0+0)
  2502  03E1  0834               	movf	(___ftmul@f1+1),w
  2503  03E2  00AA               	movwf	(??___ftmul+0+0+1)
  2504  03E3  0835               	movf	(___ftmul@f1+2),w
  2505  03E4  00AB               	movwf	(??___ftmul+0+0+2)
  2506  03E5  3010               	movlw	010h
  2507  03E6                     u2155:
  2508  03E6  1003               	clrc
  2509  03E7  0CAB               	rrf	(??___ftmul+0+2),f
  2510  03E8  0CAA               	rrf	(??___ftmul+0+1),f
  2511  03E9  0CA9               	rrf	(??___ftmul+0+0),f
  2512  03EA                     u2150:
  2513  03EA  3EFF               	addlw	-1
  2514  03EB  1D03               	skipz
  2515  03EC  2BE6               	goto	u2155
  2516  03ED  0829               	movf	0+(??___ftmul+0+0),w
  2517  03EE  00B2               	movwf	(___ftmul@sign)
  2518                           	line	62
  2519  03EF  0836               	movf	(___ftmul@f2),w
  2520  03F0  00A9               	movwf	(??___ftmul+0+0)
  2521  03F1  0837               	movf	(___ftmul@f2+1),w
  2522  03F2  00AA               	movwf	(??___ftmul+0+0+1)
  2523  03F3  0838               	movf	(___ftmul@f2+2),w
  2524  03F4  00AB               	movwf	(??___ftmul+0+0+2)
  2525  03F5  3010               	movlw	010h
  2526  03F6                     u2165:
  2527  03F6  1003               	clrc
  2528  03F7  0CAB               	rrf	(??___ftmul+0+2),f
  2529  03F8  0CAA               	rrf	(??___ftmul+0+1),f
  2530  03F9  0CA9               	rrf	(??___ftmul+0+0),f
  2531  03FA                     u2160:
  2532  03FA  3EFF               	addlw	-1
  2533  03FB  1D03               	skipz
  2534  03FC  2BF6               	goto	u2165
  2535  03FD  0829               	movf	0+(??___ftmul+0+0),w
  2536  03FE  00AC               	movwf	(??___ftmul+3+0)
  2537  03FF  082C               	movf	(??___ftmul+3+0),w
  2538  0400  06B2               	xorwf	(___ftmul@sign),f
  2539                           	line	63
  2540  0401  3080               	movlw	(080h)
  2541  0402  00A9               	movwf	(??___ftmul+0+0)
  2542  0403  0829               	movf	(??___ftmul+0+0),w
  2543  0404  05B2               	andwf	(___ftmul@sign),f
  2544                           	
  2545  0405                     l30001192:	
  2546                           	line	64
  2547  0405  17B4               	bsf	(___ftmul@f1)+(15/8),(15)&7
  2548                           	
  2549  0406                     l30001193:	
  2550                           	line	66
  2551  0406  17B7               	bsf	(___ftmul@f2)+(15/8),(15)&7
  2552                           	
  2553  0407                     l30001194:	
  2554                           	line	67
  2555  0407  30FF               	movlw	0FFh
  2556  0408  05B6               	andwf	(___ftmul@f2),f
  2557  0409  30FF               	movlw	0FFh
  2558  040A  05B7               	andwf	(___ftmul@f2+1),f
  2559  040B  3000               	movlw	0
  2560  040C  05B8               	andwf	(___ftmul@f2+2),f
  2561                           	
  2562  040D                     l30001195:	
  2563                           	line	68
  2564  040D  3000               	movlw	0
  2565  040E  00AE               	movwf	(___ftmul@f3_as_product)
  2566  040F  3000               	movlw	0
  2567  0410  00AF               	movwf	(___ftmul@f3_as_product+1)
  2568  0411  3000               	movlw	0
  2569  0412  00B0               	movwf	(___ftmul@f3_as_product+2)
  2570                           	
  2571  0413                     l30001196:	
  2572                           	line	69
  2573  0413  3007               	movlw	(07h)
  2574  0414  00B1               	movwf	(___ftmul@cntr)
  2575                           	
  2576  0415                     l30001197:	
  2577                           	line	71
  2578  0415  1C33               	btfss	(___ftmul@f1),(0)&7
  2579  0416  2C18               	goto	u2171
  2580  0417  2C19               	goto	u2170
  2581  0418                     u2171:
  2582  0418  2C29               	goto	l30001199
  2583  0419                     u2170:
  2584                           	
  2585  0419                     l30001198:	
  2586                           	line	72
  2587  0419  0836               	movf	(___ftmul@f2),w
  2588  041A  07AE               	addwf	(___ftmul@f3_as_product),f
  2589  041B  0837               	movf	(___ftmul@f2+1),w
  2590  041C  1103               	clrz
  2591  041D  1803               	skipnc
  2592  041E  0A37               	incf	(___ftmul@f2+1),w
  2593  041F  1903               	skipnz
  2594  0420  2C22               	goto	u2181
  2595  0421  07AF               	addwf	(___ftmul@f3_as_product+1),f
  2596  0422                     u2181:
  2597  0422  0838               	movf	(___ftmul@f2+2),w
  2598  0423  1103               	clrz
  2599  0424  1803               	skipnc
  2600  0425  0A38               	incf	(___ftmul@f2+2),w
  2601  0426  1903               	skipnz
  2602  0427  2C29               	goto	u2182
  2603  0428  07B0               	addwf	(___ftmul@f3_as_product+2),f
  2604  0429                     u2182:
  2605                           
  2606                           	
  2607  0429                     l30001199:	
  2608                           	line	73
  2609  0429  3001               	movlw	01h
  2610  042A                     u2195:
  2611  042A  1003               	clrc
  2612  042B  0CB5               	rrf	(___ftmul@f1+2),f
  2613  042C  0CB4               	rrf	(___ftmul@f1+1),f
  2614  042D  0CB3               	rrf	(___ftmul@f1),f
  2615  042E  3EFF               	addlw	-1
  2616  042F  1D03               	skipz
  2617  0430  2C2A               	goto	u2195
  2618                           
  2619                           	
  2620  0431                     l30001200:	
  2621                           	line	74
  2622  0431  3001               	movlw	01h
  2623  0432                     u2205:
  2624  0432  1003               	clrc
  2625  0433  0DB6               	rlf	(___ftmul@f2),f
  2626  0434  0DB7               	rlf	(___ftmul@f2+1),f
  2627  0435  0DB8               	rlf	(___ftmul@f2+2),f
  2628  0436  3EFF               	addlw	-1
  2629  0437  1D03               	skipz
  2630  0438  2C32               	goto	u2205
  2631                           	
  2632  0439                     l30001201:	
  2633                           	line	75
  2634  0439  3001               	movlw	low(01h)
  2635  043A  02B1               	subwf	(___ftmul@cntr),f
  2636  043B  1D03               	btfss	status,2
  2637  043C  2C3E               	goto	u2211
  2638  043D  2C3F               	goto	u2210
  2639  043E                     u2211:
  2640  043E  2C15               	goto	l30001197
  2641  043F                     u2210:
  2642                           	
  2643  043F                     l30001202:	
  2644                           	line	76
  2645  043F  3009               	movlw	(09h)
  2646  0440  00B1               	movwf	(___ftmul@cntr)
  2647                           	
  2648  0441                     l30001203:	
  2649                           	line	78
  2650  0441  1C33               	btfss	(___ftmul@f1),(0)&7
  2651  0442  2C44               	goto	u2221
  2652  0443  2C45               	goto	u2220
  2653  0444                     u2221:
  2654  0444  2C55               	goto	l30001205
  2655  0445                     u2220:
  2656                           	
  2657  0445                     l30001204:	
  2658                           	line	79
  2659  0445  0836               	movf	(___ftmul@f2),w
  2660  0446  07AE               	addwf	(___ftmul@f3_as_product),f
  2661  0447  0837               	movf	(___ftmul@f2+1),w
  2662  0448  1103               	clrz
  2663  0449  1803               	skipnc
  2664  044A  0A37               	incf	(___ftmul@f2+1),w
  2665  044B  1903               	skipnz
  2666  044C  2C4E               	goto	u2231
  2667  044D  07AF               	addwf	(___ftmul@f3_as_product+1),f
  2668  044E                     u2231:
  2669  044E  0838               	movf	(___ftmul@f2+2),w
  2670  044F  1103               	clrz
  2671  0450  1803               	skipnc
  2672  0451  0A38               	incf	(___ftmul@f2+2),w
  2673  0452  1903               	skipnz
  2674  0453  2C55               	goto	u2232
  2675  0454  07B0               	addwf	(___ftmul@f3_as_product+2),f
  2676  0455                     u2232:
  2677                           
  2678                           	
  2679  0455                     l30001205:	
  2680                           	line	80
  2681  0455  3001               	movlw	01h
  2682  0456                     u2245:
  2683  0456  1003               	clrc
  2684  0457  0CB5               	rrf	(___ftmul@f1+2),f
  2685  0458  0CB4               	rrf	(___ftmul@f1+1),f
  2686  0459  0CB3               	rrf	(___ftmul@f1),f
  2687  045A  3EFF               	addlw	-1
  2688  045B  1D03               	skipz
  2689  045C  2C56               	goto	u2245
  2690                           
  2691                           	
  2692  045D                     l30001206:	
  2693                           	line	81
  2694  045D  3001               	movlw	01h
  2695  045E                     u2255:
  2696  045E  1003               	clrc
  2697  045F  0CB0               	rrf	(___ftmul@f3_as_product+2),f
  2698  0460  0CAF               	rrf	(___ftmul@f3_as_product+1),f
  2699  0461  0CAE               	rrf	(___ftmul@f3_as_product),f
  2700  0462  3EFF               	addlw	-1
  2701  0463  1D03               	skipz
  2702  0464  2C5E               	goto	u2255
  2703                           
  2704                           	
  2705  0465                     l30001207:	
  2706                           	line	82
  2707  0465  3001               	movlw	low(01h)
  2708  0466  02B1               	subwf	(___ftmul@cntr),f
  2709  0467  1D03               	btfss	status,2
  2710  0468  2C6A               	goto	u2261
  2711  0469  2C6B               	goto	u2260
  2712  046A                     u2261:
  2713  046A  2C41               	goto	l30001203
  2714  046B                     u2260:
  2715                           	
  2716  046B                     l30001208:	
  2717                           	line	83
  2718  046B  082E               	movf	(___ftmul@f3_as_product),w
  2719  046C  00A0               	movwf	(?___ftpack)
  2720  046D  082F               	movf	(___ftmul@f3_as_product+1),w
  2721  046E  00A1               	movwf	(?___ftpack+1)
  2722  046F  0830               	movf	(___ftmul@f3_as_product+2),w
  2723  0470  00A2               	movwf	(?___ftpack+2)
  2724  0471  082D               	movf	(___ftmul@exp),w
  2725  0472  00A9               	movwf	(??___ftmul+0+0)
  2726  0473  0829               	movf	(??___ftmul+0+0),w
  2727  0474  00A3               	movwf	0+(?___ftpack)+03h
  2728  0475  0832               	movf	(___ftmul@sign),w
  2729  0476  00AA               	movwf	(??___ftmul+1+0)
  2730  0477  082A               	movf	(??___ftmul+1+0),w
  2731  0478  00A4               	movwf	0+(?___ftpack)+04h
  2732  0479  120A  118A  20B2   	fcall	___ftpack
              120A  118A         
  2733  047E  1383               	bcf	status, 7	;select IRP bank0
  2734  047F  1283               	bcf	status, 5	;RP0=0, select bank0
  2735  0480  1303               	bcf	status, 6	;RP1=0, select bank0
  2736  0481  0820               	movf	(0+(?___ftpack)),w
  2737  0482  00B3               	movwf	(?___ftmul)
  2738  0483  0821               	movf	(1+(?___ftpack)),w
  2739  0484  00B4               	movwf	(?___ftmul+1)
  2740  0485  0822               	movf	(2+(?___ftpack)),w
  2741  0486  00B5               	movwf	(?___ftmul+2)
  2742                           	
  2743  0487                     l102:	
  2744  0487  0008               	return
  2745                           	opt stack 0
  2746                           GLOBAL	__end_of___ftmul
  2747  0488                     	__end_of___ftmul:
  2748                           ; =============== function ___ftmul ends ============
  2749                           
  2750                           psect	text113,local,class=CODE,delta=2
  2751                           global __ptext113
  2752  02F1                     __ptext113:
  2753                           	line	84
  2754                           	signat	___ftmul,8315
  2755                           	global	___ftdiv
  2756                           
  2757                           ; *************** function ___ftdiv *****************
  2758                           ; Defined at:
  2759                           ;		line 50 in file "C:\Program Files (x86)\HI-TECH Software\PICC\9.70\sources\ftdiv.c"
  2760                           ; Parameters:    Size  Location     Type
  2761                           ;  f1              3   35[BANK0 ] float 
  2762                           ;  f2              3   38[BANK0 ] float 
  2763                           ; Auto vars:     Size  Location     Type
  2764                           ;  f3              3   30[BANK0 ] float 
  2765                           ;  sign            1   34[BANK0 ] unsigned char 
  2766                           ;  exp             1   33[BANK0 ] unsigned char 
  2767                           ;  cntr            1   29[BANK0 ] unsigned char 
  2768                           ; Return value:  Size  Location     Type
  2769                           ;                  3   35[BANK0 ] float 
  2770                           ; Registers used:
  2771                           ;		wreg, status,2, status,0, pclath, cstack
  2772                           ; Tracked objects:
  2773                           ;		On entry : 0/0
  2774                           ;		On exit  : 0/0
  2775                           ;		Unchanged: 0/0
  2776                           ; Data sizes:     COMMON   BANK0   BANK1   BANK3   BANK2
  2777                           ;      Locals:         0      16       0       0       0
  2778                           ;      Temp:     4
  2779                           ;      Total:   16
  2780                           ; This function calls:
  2781                           ;		___ftpack
  2782                           ; This function is called by:
  2783                           ;		_voltage
  2784                           ; This function uses a non-reentrant model
  2785                           ; 
  2786                           psect	text113
  2787                           	file	"C:\Program Files (x86)\HI-TECH Software\PICC\9.70\sources\ftdiv.c"
  2788                           	line	50
  2789                           	global	__size_of___ftdiv
  2790  00BB                     	__size_of___ftdiv	equ	__end_of___ftdiv-___ftdiv
  2791                           	
  2792  02F1                     ___ftdiv:	
  2793                           	opt stack 6
  2794                           ; Regs used in ___ftdiv: [wreg+status,2+status,0+pclath+cstack]
  2795                           	line	55
  2796                           	
  2797  02F1                     l30000919:	
  2798  02F1  1283               	bcf	status, 5	;RP0=0, select bank0
  2799  02F2  1303               	bcf	status, 6	;RP1=0, select bank0
  2800  02F3  0843               	movf	(___ftdiv@f1),w
  2801  02F4  00B9               	movwf	(??___ftdiv+0+0)
  2802  02F5  0844               	movf	(___ftdiv@f1+1),w
  2803  02F6  00BA               	movwf	(??___ftdiv+0+0+1)
  2804  02F7  0845               	movf	(___ftdiv@f1+2),w
  2805  02F8  00BB               	movwf	(??___ftdiv+0+0+2)
  2806  02F9  1003               	clrc
  2807  02FA  0D3A               	rlf	(??___ftdiv+0+1),w
  2808  02FB  0D3B               	rlf	(??___ftdiv+0+2),w
  2809  02FC  00C1               	movwf	(___ftdiv@exp)
  2810  02FD  08C1               	movf	((___ftdiv@exp))&07fh,f
  2811  02FE  1D03               	skipz
  2812  02FF  2B01               	goto	u1071
  2813  0300  2B02               	goto	u1070
  2814  0301                     u1071:
  2815  0301  2B09               	goto	l30000922
  2816  0302                     u1070:
  2817                           	
  2818  0302                     l30000920:	
  2819                           	line	56
  2820  0302  3000               	movlw	0x0
  2821  0303  00C3               	movwf	(?___ftdiv)
  2822  0304  3000               	movlw	0x0
  2823  0305  00C4               	movwf	(?___ftdiv+1)
  2824  0306  3000               	movlw	0x0
  2825  0307  00C5               	movwf	(?___ftdiv+2)
  2826  0308  2BAB               	goto	l95
  2827                           	
  2828  0309                     l30000922:	
  2829                           	line	57
  2830  0309  0846               	movf	(___ftdiv@f2),w
  2831  030A  00B9               	movwf	(??___ftdiv+0+0)
  2832  030B  0847               	movf	(___ftdiv@f2+1),w
  2833  030C  00BA               	movwf	(??___ftdiv+0+0+1)
  2834  030D  0848               	movf	(___ftdiv@f2+2),w
  2835  030E  00BB               	movwf	(??___ftdiv+0+0+2)
  2836  030F  1003               	clrc
  2837  0310  0D3A               	rlf	(??___ftdiv+0+1),w
  2838  0311  0D3B               	rlf	(??___ftdiv+0+2),w
  2839  0312  00C2               	movwf	(___ftdiv@sign)
  2840  0313  08C2               	movf	((___ftdiv@sign))&07fh,f
  2841  0314  1D03               	skipz
  2842  0315  2B17               	goto	u1081
  2843  0316  2B18               	goto	u1080
  2844  0317                     u1081:
  2845  0317  2B1F               	goto	l30000925
  2846  0318                     u1080:
  2847                           	
  2848  0318                     l30000923:	
  2849                           	line	58
  2850  0318  3000               	movlw	0x0
  2851  0319  00C3               	movwf	(?___ftdiv)
  2852  031A  3000               	movlw	0x0
  2853  031B  00C4               	movwf	(?___ftdiv+1)
  2854  031C  3000               	movlw	0x0
  2855  031D  00C5               	movwf	(?___ftdiv+2)
  2856  031E  2BAB               	goto	l95
  2857                           	
  2858  031F                     l30000925:	
  2859                           	line	59
  2860  031F  3000               	movlw	0
  2861  0320  00BE               	movwf	(___ftdiv@f3)
  2862  0321  3000               	movlw	0
  2863  0322  00BF               	movwf	(___ftdiv@f3+1)
  2864  0323  3000               	movlw	0
  2865  0324  00C0               	movwf	(___ftdiv@f3+2)
  2866                           	
  2867  0325                     l30000926:	
  2868                           	line	60
  2869  0325  0842               	movf	(___ftdiv@sign),w
  2870  0326  3E89               	addlw	089h
  2871  0327  00B9               	movwf	(??___ftdiv+0+0)
  2872  0328  0839               	movf	(??___ftdiv+0+0),w
  2873  0329  02C1               	subwf	(___ftdiv@exp),f
  2874                           	
  2875  032A                     l30000927:	
  2876                           	line	61
  2877  032A  0843               	movf	(___ftdiv@f1),w
  2878  032B  00B9               	movwf	(??___ftdiv+0+0)
  2879  032C  0844               	movf	(___ftdiv@f1+1),w
  2880  032D  00BA               	movwf	(??___ftdiv+0+0+1)
  2881  032E  0845               	movf	(___ftdiv@f1+2),w
  2882  032F  00BB               	movwf	(??___ftdiv+0+0+2)
  2883  0330  3010               	movlw	010h
  2884  0331                     u1095:
  2885  0331  1003               	clrc
  2886  0332  0CBB               	rrf	(??___ftdiv+0+2),f
  2887  0333  0CBA               	rrf	(??___ftdiv+0+1),f
  2888  0334  0CB9               	rrf	(??___ftdiv+0+0),f
  2889  0335                     u1090:
  2890  0335  3EFF               	addlw	-1
  2891  0336  1D03               	skipz
  2892  0337  2B31               	goto	u1095
  2893  0338  0839               	movf	0+(??___ftdiv+0+0),w
  2894  0339  00C2               	movwf	(___ftdiv@sign)
  2895                           	
  2896  033A                     l30000928:	
  2897                           	line	62
  2898  033A  0846               	movf	(___ftdiv@f2),w
  2899  033B  00B9               	movwf	(??___ftdiv+0+0)
  2900  033C  0847               	movf	(___ftdiv@f2+1),w
  2901  033D  00BA               	movwf	(??___ftdiv+0+0+1)
  2902  033E  0848               	movf	(___ftdiv@f2+2),w
  2903  033F  00BB               	movwf	(??___ftdiv+0+0+2)
  2904  0340  3010               	movlw	010h
  2905  0341                     u1105:
  2906  0341  1003               	clrc
  2907  0342  0CBB               	rrf	(??___ftdiv+0+2),f
  2908  0343  0CBA               	rrf	(??___ftdiv+0+1),f
  2909  0344  0CB9               	rrf	(??___ftdiv+0+0),f
  2910  0345                     u1100:
  2911  0345  3EFF               	addlw	-1
  2912  0346  1D03               	skipz
  2913  0347  2B41               	goto	u1105
  2914  0348  0839               	movf	0+(??___ftdiv+0+0),w
  2915  0349  00BC               	movwf	(??___ftdiv+3+0)
  2916  034A  083C               	movf	(??___ftdiv+3+0),w
  2917  034B  06C2               	xorwf	(___ftdiv@sign),f
  2918                           	
  2919  034C                     l30000929:	
  2920                           	line	63
  2921  034C  3080               	movlw	(080h)
  2922  034D  00B9               	movwf	(??___ftdiv+0+0)
  2923  034E  0839               	movf	(??___ftdiv+0+0),w
  2924  034F  05C2               	andwf	(___ftdiv@sign),f
  2925                           	
  2926  0350                     l30000930:	
  2927                           	line	64
  2928  0350  17C4               	bsf	(___ftdiv@f1)+(15/8),(15)&7
  2929                           	line	65
  2930  0351  30FF               	movlw	0FFh
  2931  0352  05C3               	andwf	(___ftdiv@f1),f
  2932  0353  30FF               	movlw	0FFh
  2933  0354  05C4               	andwf	(___ftdiv@f1+1),f
  2934  0355  3000               	movlw	0
  2935  0356  05C5               	andwf	(___ftdiv@f1+2),f
  2936                           	
  2937  0357                     l30000931:	
  2938                           	line	66
  2939  0357  17C7               	bsf	(___ftdiv@f2)+(15/8),(15)&7
  2940                           	line	67
  2941  0358  30FF               	movlw	0FFh
  2942  0359  05C6               	andwf	(___ftdiv@f2),f
  2943  035A  30FF               	movlw	0FFh
  2944  035B  05C7               	andwf	(___ftdiv@f2+1),f
  2945  035C  3000               	movlw	0
  2946  035D  05C8               	andwf	(___ftdiv@f2+2),f
  2947                           	line	68
  2948  035E  3018               	movlw	(018h)
  2949  035F  00BD               	movwf	(___ftdiv@cntr)
  2950                           	
  2951  0360                     l30000932:	
  2952                           	line	70
  2953  0360  3001               	movlw	01h
  2954  0361                     u1115:
  2955  0361  1003               	clrc
  2956  0362  0DBE               	rlf	(___ftdiv@f3),f
  2957  0363  0DBF               	rlf	(___ftdiv@f3+1),f
  2958  0364  0DC0               	rlf	(___ftdiv@f3+2),f
  2959  0365  3EFF               	addlw	-1
  2960  0366  1D03               	skipz
  2961  0367  2B61               	goto	u1115
  2962                           	
  2963  0368                     l30000933:	
  2964                           	line	71
  2965  0368  0848               	movf	(___ftdiv@f2+2),w
  2966  0369  0245               	subwf	(___ftdiv@f1+2),w
  2967  036A  1D03               	skipz
  2968  036B  2B72               	goto	u1125
  2969  036C  0847               	movf	(___ftdiv@f2+1),w
  2970  036D  0244               	subwf	(___ftdiv@f1+1),w
  2971  036E  1D03               	skipz
  2972  036F  2B72               	goto	u1125
  2973  0370  0846               	movf	(___ftdiv@f2),w
  2974  0371  0243               	subwf	(___ftdiv@f1),w
  2975  0372                     u1125:
  2976  0372  1C03               	skipc
  2977  0373  2B75               	goto	u1121
  2978  0374  2B76               	goto	u1120
  2979  0375                     u1121:
  2980  0375  2B81               	goto	l30000936
  2981  0376                     u1120:
  2982                           	
  2983  0376                     l30000934:	
  2984                           	line	72
  2985  0376  0846               	movf	(___ftdiv@f2),w
  2986  0377  02C3               	subwf	(___ftdiv@f1),f
  2987  0378  0847               	movf	(___ftdiv@f2+1),w
  2988  0379  1C03               	skipc
  2989  037A  0F47               	incfsz	(___ftdiv@f2+1),w
  2990  037B  02C4               	subwf	(___ftdiv@f1+1),f
  2991  037C  0848               	movf	(___ftdiv@f2+2),w
  2992  037D  1C03               	skipc
  2993  037E  0A48               	incf	(___ftdiv@f2+2),w
  2994  037F  02C5               	subwf	(___ftdiv@f1+2),f
  2995                           	
  2996  0380                     l30000935:	
  2997                           	line	73
  2998  0380  143E               	bsf	(___ftdiv@f3)+(0/8),(0)&7
  2999                           	
  3000  0381                     l30000936:	
  3001                           	line	75
  3002  0381  3001               	movlw	01h
  3003  0382                     u1135:
  3004  0382  1003               	clrc
  3005  0383  0DC3               	rlf	(___ftdiv@f1),f
  3006  0384  0DC4               	rlf	(___ftdiv@f1+1),f
  3007  0385  0DC5               	rlf	(___ftdiv@f1+2),f
  3008  0386  3EFF               	addlw	-1
  3009  0387  1D03               	skipz
  3010  0388  2B82               	goto	u1135
  3011                           	
  3012  0389                     l30000937:	
  3013                           	line	76
  3014  0389  3001               	movlw	low(01h)
  3015  038A  02BD               	subwf	(___ftdiv@cntr),f
  3016  038B  1D03               	btfss	status,2
  3017  038C  2B8E               	goto	u1141
  3018  038D  2B8F               	goto	u1140
  3019  038E                     u1141:
  3020  038E  2B60               	goto	l30000932
  3021  038F                     u1140:
  3022                           	
  3023  038F                     l30000938:	
  3024                           	line	77
  3025  038F  083E               	movf	(___ftdiv@f3),w
  3026  0390  00A0               	movwf	(?___ftpack)
  3027  0391  083F               	movf	(___ftdiv@f3+1),w
  3028  0392  00A1               	movwf	(?___ftpack+1)
  3029  0393  0840               	movf	(___ftdiv@f3+2),w
  3030  0394  00A2               	movwf	(?___ftpack+2)
  3031  0395  0841               	movf	(___ftdiv@exp),w
  3032  0396  00B9               	movwf	(??___ftdiv+0+0)
  3033  0397  0839               	movf	(??___ftdiv+0+0),w
  3034  0398  00A3               	movwf	0+(?___ftpack)+03h
  3035  0399  0842               	movf	(___ftdiv@sign),w
  3036  039A  00BA               	movwf	(??___ftdiv+1+0)
  3037  039B  083A               	movf	(??___ftdiv+1+0),w
  3038  039C  00A4               	movwf	0+(?___ftpack)+04h
  3039  039D  120A  118A  20B2   	fcall	___ftpack
              120A  118A         
  3040  03A2  1383               	bcf	status, 7	;select IRP bank0
  3041  03A3  1283               	bcf	status, 5	;RP0=0, select bank0
  3042  03A4  1303               	bcf	status, 6	;RP1=0, select bank0
  3043  03A5  0820               	movf	(0+(?___ftpack)),w
  3044  03A6  00C3               	movwf	(?___ftdiv)
  3045  03A7  0821               	movf	(1+(?___ftpack)),w
  3046  03A8  00C4               	movwf	(?___ftdiv+1)
  3047  03A9  0822               	movf	(2+(?___ftpack)),w
  3048  03AA  00C5               	movwf	(?___ftdiv+2)
  3049                           	
  3050  03AB                     l95:	
  3051  03AB  0008               	return
  3052                           	opt stack 0
  3053                           GLOBAL	__end_of___ftdiv
  3054  03AC                     	__end_of___ftdiv:
  3055                           ; =============== function ___ftdiv ends ============
  3056                           
  3057                           psect	text114,local,class=CODE,delta=2
  3058                           global __ptext114
  3059  0011                     __ptext114:
  3060                           	line	78
  3061                           	signat	___ftdiv,8315
  3062                           	global	___awtoft
  3063                           
  3064                           ; *************** function ___awtoft *****************
  3065                           ; Defined at:
  3066                           ;		line 33 in file "C:\Program Files (x86)\HI-TECH Software\PICC\9.70\sources\awtoft.c"
  3067                           ; Parameters:    Size  Location     Type
  3068                           ;  c               2    6[BANK0 ] int 
  3069                           ; Auto vars:     Size  Location     Type
  3070                           ;  sign            1    5[BANK0 ] unsigned char 
  3071                           ; Return value:  Size  Location     Type
  3072                           ;                  3    6[BANK0 ] float 
  3073                           ; Registers used:
  3074                           ;		wreg, status,2, status,0, pclath, cstack
  3075                           ; Tracked objects:
  3076                           ;		On entry : 0/0
  3077                           ;		On exit  : 0/0
  3078                           ;		Unchanged: 0/0
  3079                           ; Data sizes:     COMMON   BANK0   BANK1   BANK3   BANK2
  3080                           ;      Locals:         2       4       0       0       0
  3081                           ;      Temp:     2
  3082                           ;      Total:    6
  3083                           ; This function calls:
  3084                           ;		___ftpack
  3085                           ; This function is called by:
  3086                           ;		_voltage
  3087                           ; This function uses a non-reentrant model
  3088                           ; 
  3089                           psect	text114
  3090                           	file	"C:\Program Files (x86)\HI-TECH Software\PICC\9.70\sources\awtoft.c"
  3091                           	line	33
  3092                           	global	__size_of___awtoft
  3093  002F                     	__size_of___awtoft	equ	__end_of___awtoft-___awtoft
  3094                           	
  3095  0011                     ___awtoft:	
  3096                           	opt stack 6
  3097                           ; Regs used in ___awtoft: [wreg+status,2+status,0+pclath+cstack]
  3098                           	line	36
  3099                           	
  3100  0011                     l30001093:	
  3101  0011  1003               	clrc
  3102  0012  3000               	movlw	0
  3103  0013  1803               	btfsc	status,0
  3104  0014  3001               	movlw	1
  3105  0015  1283               	bcf	status, 5	;RP0=0, select bank0
  3106  0016  1303               	bcf	status, 6	;RP1=0, select bank0
  3107  0017  00A5               	movwf	(___awtoft@sign)
  3108                           	
  3109  0018                     l30001094:	
  3110                           	line	37
  3111  0018  1FA7               	btfss	(___awtoft@c+1),7
  3112  0019  281B               	goto	u1861
  3113  001A  281C               	goto	u1860
  3114  001B                     u1861:
  3115  001B  2824               	goto	l30001096
  3116  001C                     u1860:
  3117                           	
  3118  001C                     l30001095:	
  3119                           	line	38
  3120  001C  09A6               	comf	(___awtoft@c),f
  3121  001D  09A7               	comf	(___awtoft@c+1),f
  3122  001E  0AA6               	incf	(___awtoft@c),f
  3123  001F  1903               	skipnz
  3124  0020  0AA7               	incf	(___awtoft@c+1),f
  3125                           	line	39
  3126  0021  01A5               	clrf	(___awtoft@sign)
  3127  0022  1403               	bsf	status,0
  3128  0023  0DA5               	rlf	(___awtoft@sign),f
  3129                           	
  3130  0024                     l30001096:	
  3131                           	line	41
  3132  0024  0826               	movf	(___awtoft@c),w
  3133  0025  00A0               	movwf	(?___ftpack)
  3134  0026  0827               	movf	(___awtoft@c+1),w
  3135  0027  00A1               	movwf	(?___ftpack+1)
  3136  0028  01A2               	clrf	(?___ftpack+2)
  3137  0029  308E               	movlw	(08Eh)
  3138  002A  00F3               	movwf	(??___awtoft+0+0)
  3139  002B  0873               	movf	(??___awtoft+0+0),w
  3140  002C  00A3               	movwf	0+(?___ftpack)+03h
  3141  002D  0825               	movf	(___awtoft@sign),w
  3142  002E  00F4               	movwf	(??___awtoft+1+0)
  3143  002F  0874               	movf	(??___awtoft+1+0),w
  3144  0030  00A4               	movwf	0+(?___ftpack)+04h
  3145  0031  120A  118A  20B2   	fcall	___ftpack
              120A  118A         
  3146  0036  1383               	bcf	status, 7	;select IRP bank0
  3147  0037  1283               	bcf	status, 5	;RP0=0, select bank0
  3148  0038  1303               	bcf	status, 6	;RP1=0, select bank0
  3149  0039  0820               	movf	(0+(?___ftpack)),w
  3150  003A  00A6               	movwf	(?___awtoft)
  3151  003B  0821               	movf	(1+(?___ftpack)),w
  3152  003C  00A7               	movwf	(?___awtoft+1)
  3153  003D  0822               	movf	(2+(?___ftpack)),w
  3154  003E  00A8               	movwf	(?___awtoft+2)
  3155                           	
  3156  003F                     l171:	
  3157  003F  0008               	return
  3158                           	opt stack 0
  3159                           GLOBAL	__end_of___awtoft
  3160  0040                     	__end_of___awtoft:
  3161                           ; =============== function ___awtoft ends ============
  3162                           
  3163                           psect	text115,local,class=CODE,delta=2
  3164                           global __ptext115
  3165  0E80                     __ptext115:
  3166                           	line	42
  3167                           	signat	___awtoft,4219
  3168                           	global	___ftneg
  3169                           
  3170                           ; *************** function ___ftneg *****************
  3171                           ; Defined at:
  3172                           ;		line 16 in file "C:\Program Files (x86)\HI-TECH Software\PICC\9.70\sources\ftneg.c"
  3173                           ; Parameters:    Size  Location     Type
  3174                           ;  f1              3    0[COMMON] float 
  3175                           ; Auto vars:     Size  Location     Type
  3176                           ;		None
  3177                           ; Return value:  Size  Location     Type
  3178                           ;                  3    0[COMMON] float 
  3179                           ; Registers used:
  3180                           ;		wreg
  3181                           ; Tracked objects:
  3182                           ;		On entry : 0/0
  3183                           ;		On exit  : 0/0
  3184                           ;		Unchanged: 0/0
  3185                           ; Data sizes:     COMMON   BANK0   BANK1   BANK3   BANK2
  3186                           ;      Locals:         3       0       0       0       0
  3187                           ;      Temp:     0
  3188                           ;      Total:    3
  3189                           ; This function calls:
  3190                           ;		Nothing
  3191                           ; This function is called by:
  3192                           ;		_voltage
  3193                           ; This function uses a non-reentrant model
  3194                           ; 
  3195                           psect	text115
  3196                           	file	"C:\Program Files (x86)\HI-TECH Software\PICC\9.70\sources\ftneg.c"
  3197                           	line	16
  3198                           	global	__size_of___ftneg
  3199  000A                     	__size_of___ftneg	equ	__end_of___ftneg-___ftneg
  3200                           	
  3201  0E80                     ___ftneg:	
  3202                           	opt stack 6
  3203                           ; Regs used in ___ftneg: [wreg]
  3204                           	line	17
  3205                           	
  3206  0E80                     l30001161:	
  3207  0E80  0872               	movf	(___ftneg@f1+2),w
  3208  0E81  0471               	iorwf	(___ftneg@f1+1),w
  3209  0E82  0470               	iorwf	(___ftneg@f1),w
  3210  0E83  1903               	skipnz
  3211  0E84  2E86               	goto	u2121
  3212  0E85  2E87               	goto	u2120
  3213  0E86                     u2121:
  3214  0E86  2E89               	goto	l30001163
  3215  0E87                     u2120:
  3216                           	
  3217  0E87                     l30001162:	
  3218                           	line	18
  3219  0E87  3080               	movlw	080h
  3220  0E88  06F2               	xorwf	(___ftneg@f1+2),f
  3221                           	
  3222  0E89                     l30001163:	
  3223                           	line	19
  3224                           	
  3225  0E89                     l194:	
  3226  0E89  0008               	return
  3227                           	opt stack 0
  3228                           GLOBAL	__end_of___ftneg
  3229  0E8A                     	__end_of___ftneg:
  3230                           ; =============== function ___ftneg ends ============
  3231                           
  3232                           psect	text116,local,class=CODE,delta=2
  3233                           global __ptext116
  3234  0F2C                     __ptext116:
  3235                           	line	20
  3236                           	signat	___ftneg,4219
  3237                           	global	___ftge
  3238                           
  3239                           ; *************** function ___ftge *****************
  3240                           ; Defined at:
  3241                           ;		line 5 in file "C:\Program Files (x86)\HI-TECH Software\PICC\9.70\sources\ftge.c"
  3242                           ; Parameters:    Size  Location     Type
  3243                           ;  ff1             3    6[BANK0 ] float 
  3244                           ;  ff2             3    9[BANK0 ] float 
  3245                           ; Auto vars:     Size  Location     Type
  3246                           ;		None
  3247                           ; Return value:  Size  Location     Type
  3248                           ;		None               void
  3249                           ; Registers used:
  3250                           ;		wreg, status,2, status,0
  3251                           ; Tracked objects:
  3252                           ;		On entry : 0/0
  3253                           ;		On exit  : 0/0
  3254                           ;		Unchanged: 0/0
  3255                           ; Data sizes:     COMMON   BANK0   BANK1   BANK3   BANK2
  3256                           ;      Locals:         0      12       0       0       0
  3257                           ;      Temp:     6
  3258                           ;      Total:   12
  3259                           ; This function calls:
  3260                           ;		Nothing
  3261                           ; This function is called by:
  3262                           ;		_voltage
  3263                           ; This function uses a non-reentrant model
  3264                           ; 
  3265                           psect	text116
  3266                           	file	"C:\Program Files (x86)\HI-TECH Software\PICC\9.70\sources\ftge.c"
  3267                           	line	5
  3268                           	global	__size_of___ftge
  3269  0069                     	__size_of___ftge	equ	__end_of___ftge-___ftge
  3270                           	
  3271  0F2C                     ___ftge:	
  3272                           	opt stack 6
  3273                           ; Regs used in ___ftge: [wreg+status,2+status,0]
  3274                           	line	6
  3275                           	
  3276  0F2C                     l30000986:	
  3277  0F2C  1283               	bcf	status, 5	;RP0=0, select bank0
  3278  0F2D  1303               	bcf	status, 6	;RP1=0, select bank0
  3279  0F2E  1FA8               	btfss	(___ftge@ff1+2),(23)&7
  3280  0F2F  2F31               	goto	u1171
  3281  0F30  2F32               	goto	u1170
  3282  0F31                     u1171:
  3283  0F31  2F57               	goto	l30000988
  3284  0F32                     u1170:
  3285                           	
  3286  0F32                     l30000987:	
  3287                           	line	7
  3288  0F32  3000               	movlw	low(0800000h)
  3289  0F33  00A0               	movwf	(??___ftge+0+0)
  3290  0F34  3000               	movlw	high(0800000h)
  3291  0F35  00A1               	movwf	(??___ftge+0+0+1)
  3292  0F36  3080               	movlw	low highword(0800000h)
  3293  0F37  00A2               	movwf	(??___ftge+0+0+2)
  3294  0F38  0926               	comf	(___ftge@ff1),w
  3295  0F39  00A3               	movwf	(??___ftge+3+0)
  3296  0F3A  0927               	comf	(___ftge@ff1+1),w
  3297  0F3B  00A4               	movwf	(??___ftge+3+0+1)
  3298  0F3C  0928               	comf	(___ftge@ff1+2),w
  3299  0F3D  00A5               	movwf	(??___ftge+3+0+2)
  3300  0F3E  0AA3               	incf	(??___ftge+3+0),f
  3301  0F3F  1903               	skipnz
  3302  0F40  0AA4               	incf	(??___ftge+3+0+1),f
  3303  0F41  1903               	skipnz
  3304  0F42  0AA5               	incf	(??___ftge+3+0+2),f
  3305  0F43  0823               	movf	0+(??___ftge+3+0),w
  3306  0F44  07A0               	addwf	(??___ftge+0+0),f
  3307  0F45  0824               	movf	1+(??___ftge+3+0),w
  3308  0F46  1803               	skipnc
  3309  0F47  0F24               	incfsz	1+(??___ftge+3+0),w
  3310  0F48  2F4A               	goto	u1181
  3311  0F49  2F4B               	goto	u1182
  3312  0F4A                     u1181:
  3313  0F4A  07A1               	addwf	(??___ftge+0+1),f
  3314  0F4B                     u1182:
  3315  0F4B  0825               	movf	2+(??___ftge+3+0),w
  3316  0F4C  1803               	skipnc
  3317  0F4D  0F25               	incfsz	2+(??___ftge+3+0),w
  3318  0F4E  2F50               	goto	u1183
  3319  0F4F  2F51               	goto	u1184
  3320  0F50                     u1183:
  3321  0F50  07A2               	addwf	(??___ftge+0+2),f
  3322  0F51                     u1184:
  3323                           
  3324  0F51  0820               	movf	0+(??___ftge+0+0),w
  3325  0F52  00A6               	movwf	(___ftge@ff1)
  3326  0F53  0821               	movf	1+(??___ftge+0+0),w
  3327  0F54  00A7               	movwf	(___ftge@ff1+1)
  3328  0F55  0822               	movf	2+(??___ftge+0+0),w
  3329  0F56  00A8               	movwf	(___ftge@ff1+2)
  3330                           	
  3331  0F57                     l30000988:	
  3332                           	line	8
  3333  0F57  1FAB               	btfss	(___ftge@ff2+2),(23)&7
  3334  0F58  2F5A               	goto	u1191
  3335  0F59  2F5B               	goto	u1190
  3336  0F5A                     u1191:
  3337  0F5A  2F80               	goto	l30000990
  3338  0F5B                     u1190:
  3339                           	
  3340  0F5B                     l30000989:	
  3341                           	line	9
  3342  0F5B  3000               	movlw	low(0800000h)
  3343  0F5C  00A0               	movwf	(??___ftge+0+0)
  3344  0F5D  3000               	movlw	high(0800000h)
  3345  0F5E  00A1               	movwf	(??___ftge+0+0+1)
  3346  0F5F  3080               	movlw	low highword(0800000h)
  3347  0F60  00A2               	movwf	(??___ftge+0+0+2)
  3348  0F61  0929               	comf	(___ftge@ff2),w
  3349  0F62  00A3               	movwf	(??___ftge+3+0)
  3350  0F63  092A               	comf	(___ftge@ff2+1),w
  3351  0F64  00A4               	movwf	(??___ftge+3+0+1)
  3352  0F65  092B               	comf	(___ftge@ff2+2),w
  3353  0F66  00A5               	movwf	(??___ftge+3+0+2)
  3354  0F67  0AA3               	incf	(??___ftge+3+0),f
  3355  0F68  1903               	skipnz
  3356  0F69  0AA4               	incf	(??___ftge+3+0+1),f
  3357  0F6A  1903               	skipnz
  3358  0F6B  0AA5               	incf	(??___ftge+3+0+2),f
  3359  0F6C  0823               	movf	0+(??___ftge+3+0),w
  3360  0F6D  07A0               	addwf	(??___ftge+0+0),f
  3361  0F6E  0824               	movf	1+(??___ftge+3+0),w
  3362  0F6F  1803               	skipnc
  3363  0F70  0F24               	incfsz	1+(??___ftge+3+0),w
  3364  0F71  2F73               	goto	u1201
  3365  0F72  2F74               	goto	u1202
  3366  0F73                     u1201:
  3367  0F73  07A1               	addwf	(??___ftge+0+1),f
  3368  0F74                     u1202:
  3369  0F74  0825               	movf	2+(??___ftge+3+0),w
  3370  0F75  1803               	skipnc
  3371  0F76  0F25               	incfsz	2+(??___ftge+3+0),w
  3372  0F77  2F79               	goto	u1203
  3373  0F78  2F7A               	goto	u1204
  3374  0F79                     u1203:
  3375  0F79  07A2               	addwf	(??___ftge+0+2),f
  3376  0F7A                     u1204:
  3377                           
  3378  0F7A  0820               	movf	0+(??___ftge+0+0),w
  3379  0F7B  00A9               	movwf	(___ftge@ff2)
  3380  0F7C  0821               	movf	1+(??___ftge+0+0),w
  3381  0F7D  00AA               	movwf	(___ftge@ff2+1)
  3382  0F7E  0822               	movf	2+(??___ftge+0+0),w
  3383  0F7F  00AB               	movwf	(___ftge@ff2+2)
  3384                           	
  3385  0F80                     l30000990:	
  3386                           	line	10
  3387  0F80  3080               	movlw	080h
  3388  0F81  06A8               	xorwf	(___ftge@ff1+2),f
  3389                           	
  3390  0F82                     l30000991:	
  3391                           	line	11
  3392  0F82  3080               	movlw	080h
  3393  0F83  06AB               	xorwf	(___ftge@ff2+2),f
  3394                           	line	12
  3395  0F84  082B               	movf	(___ftge@ff2+2),w
  3396  0F85  0228               	subwf	(___ftge@ff1+2),w
  3397  0F86  1D03               	skipz
  3398  0F87  2F8E               	goto	u1215
  3399  0F88  082A               	movf	(___ftge@ff2+1),w
  3400  0F89  0227               	subwf	(___ftge@ff1+1),w
  3401  0F8A  1D03               	skipz
  3402  0F8B  2F8E               	goto	u1215
  3403  0F8C  0829               	movf	(___ftge@ff2),w
  3404  0F8D  0226               	subwf	(___ftge@ff1),w
  3405  0F8E                     u1215:
  3406  0F8E  1803               	skipnc
  3407  0F8F  2F91               	goto	u1227
  3408  0F90  2F93               	goto	u1228
  3409  0F91                     u1227:
  3410  0F91  1403               	bsf	status,0
  3411  0F92  2F94               	goto	u1229
  3412  0F93                     u1228:
  3413  0F93  1003               	bcf	status,0
  3414  0F94                     u1229:
  3415                           	
  3416  0F94                     l217:	
  3417  0F94  0008               	return
  3418                           	opt stack 0
  3419                           GLOBAL	__end_of___ftge
  3420  0F95                     	__end_of___ftge:
  3421                           ; =============== function ___ftge ends ============
  3422                           
  3423                           psect	text117,local,class=CODE,delta=2
  3424                           global __ptext117
  3425  0488                     __ptext117:
  3426                           	line	13
  3427                           	signat	___ftge,8312
  3428                           	global	___ftadd
  3429                           
  3430                           ; *************** function ___ftadd *****************
  3431                           ; Defined at:
  3432                           ;		line 87 in file "C:\Program Files (x86)\HI-TECH Software\PICC\9.70\sources\ftadd.c"
  3433                           ; Parameters:    Size  Location     Type
  3434                           ;  f1              3   11[BANK0 ] float 
  3435                           ;  f2              3   14[BANK0 ] float 
  3436                           ; Auto vars:     Size  Location     Type
  3437                           ;  exp1            1   10[BANK0 ] unsigned char 
  3438                           ;  exp2            1    9[BANK0 ] unsigned char 
  3439                           ;  sign            1    8[BANK0 ] unsigned char 
  3440                           ; Return value:  Size  Location     Type
  3441                           ;                  3   11[BANK0 ] float 
  3442                           ; Registers used:
  3443                           ;		wreg, status,2, status,0, pclath, cstack
  3444                           ; Tracked objects:
  3445                           ;		On entry : 0/0
  3446                           ;		On exit  : 0/0
  3447                           ;		Unchanged: 0/0
  3448                           ; Data sizes:     COMMON   BANK0   BANK1   BANK3   BANK2
  3449                           ;      Locals:         0      12       0       0       0
  3450                           ;      Temp:     3
  3451                           ;      Total:   12
  3452                           ; This function calls:
  3453                           ;		___ftpack
  3454                           ; This function is called by:
  3455                           ;		_voltage
  3456                           ; This function uses a non-reentrant model
  3457                           ; 
  3458                           psect	text117
  3459                           	file	"C:\Program Files (x86)\HI-TECH Software\PICC\9.70\sources\ftadd.c"
  3460                           	line	87
  3461                           	global	__size_of___ftadd
  3462  014C                     	__size_of___ftadd	equ	__end_of___ftadd-___ftadd
  3463                           	
  3464  0488                     ___ftadd:	
  3465                           	opt stack 6
  3466                           ; Regs used in ___ftadd: [wreg+status,2+status,0+pclath+cstack]
  3467                           	line	90
  3468                           	
  3469  0488                     l30000993:	
  3470  0488  1283               	bcf	status, 5	;RP0=0, select bank0
  3471  0489  1303               	bcf	status, 6	;RP1=0, select bank0
  3472  048A  082B               	movf	(___ftadd@f1),w
  3473  048B  00A5               	movwf	(??___ftadd+0+0)
  3474  048C  082C               	movf	(___ftadd@f1+1),w
  3475  048D  00A6               	movwf	(??___ftadd+0+0+1)
  3476  048E  082D               	movf	(___ftadd@f1+2),w
  3477  048F  00A7               	movwf	(??___ftadd+0+0+2)
  3478  0490  1003               	clrc
  3479  0491  0D26               	rlf	(??___ftadd+0+1),w
  3480  0492  0D27               	rlf	(??___ftadd+0+2),w
  3481  0493  00AA               	movwf	(___ftadd@exp1)
  3482                           	line	91
  3483  0494  082E               	movf	(___ftadd@f2),w
  3484  0495  00A5               	movwf	(??___ftadd+0+0)
  3485  0496  082F               	movf	(___ftadd@f2+1),w
  3486  0497  00A6               	movwf	(??___ftadd+0+0+1)
  3487  0498  0830               	movf	(___ftadd@f2+2),w
  3488  0499  00A7               	movwf	(??___ftadd+0+0+2)
  3489  049A  1003               	clrc
  3490  049B  0D26               	rlf	(??___ftadd+0+1),w
  3491  049C  0D27               	rlf	(??___ftadd+0+2),w
  3492  049D  00A9               	movwf	(___ftadd@exp2)
  3493                           	
  3494  049E                     l30000994:	
  3495                           	line	92
  3496  049E  082A               	movf	(___ftadd@exp1),w
  3497  049F  1D03               	skipz
  3498  04A0  2CA2               	goto	u1230
  3499  04A1  2CB2               	goto	l30000997
  3500  04A2                     u1230:
  3501                           	
  3502  04A2                     l30000995:	
  3503  04A2  0829               	movf	(___ftadd@exp2),w
  3504  04A3  022A               	subwf	(___ftadd@exp1),w
  3505  04A4  1803               	skipnc
  3506  04A5  2CA7               	goto	u1241
  3507  04A6  2CA8               	goto	u1240
  3508  04A7                     u1241:
  3509  04A7  2CB9               	goto	l30000999
  3510  04A8                     u1240:
  3511                           	
  3512  04A8                     l30000996:	
  3513  04A8  032A               	decf	(___ftadd@exp1),w
  3514  04A9  3AFF               	xorlw	0ffh
  3515  04AA  0729               	addwf	(___ftadd@exp2),w
  3516  04AB  00A5               	movwf	(??___ftadd+0+0)
  3517  04AC  3019               	movlw	low(019h)
  3518  04AD  0225               	subwf	(??___ftadd+0+0),w
  3519  04AE  1C03               	skipc
  3520  04AF  2CB1               	goto	u1251
  3521  04B0  2CB2               	goto	u1250
  3522  04B1                     u1251:
  3523  04B1  2CB9               	goto	l30000999
  3524  04B2                     u1250:
  3525                           	
  3526  04B2                     l30000997:	
  3527                           	line	93
  3528  04B2  082E               	movf	(___ftadd@f2),w
  3529  04B3  00AB               	movwf	(?___ftadd)
  3530  04B4  082F               	movf	(___ftadd@f2+1),w
  3531  04B5  00AC               	movwf	(?___ftadd+1)
  3532  04B6  0830               	movf	(___ftadd@f2+2),w
  3533  04B7  00AD               	movwf	(?___ftadd+2)
  3534  04B8  2DD3               	goto	l66
  3535                           	
  3536  04B9                     l30000999:	
  3537                           	line	94
  3538  04B9  0829               	movf	(___ftadd@exp2),w
  3539  04BA  1D03               	skipz
  3540  04BB  2CBD               	goto	u1260
  3541  04BC  2CCD               	goto	l30001002
  3542  04BD                     u1260:
  3543                           	
  3544  04BD                     l30001000:	
  3545  04BD  082A               	movf	(___ftadd@exp1),w
  3546  04BE  0229               	subwf	(___ftadd@exp2),w
  3547  04BF  1803               	skipnc
  3548  04C0  2CC2               	goto	u1271
  3549  04C1  2CC3               	goto	u1270
  3550  04C2                     u1271:
  3551  04C2  2CD4               	goto	l30001004
  3552  04C3                     u1270:
  3553                           	
  3554  04C3                     l30001001:	
  3555  04C3  0329               	decf	(___ftadd@exp2),w
  3556  04C4  3AFF               	xorlw	0ffh
  3557  04C5  072A               	addwf	(___ftadd@exp1),w
  3558  04C6  00A5               	movwf	(??___ftadd+0+0)
  3559  04C7  3019               	movlw	low(019h)
  3560  04C8  0225               	subwf	(??___ftadd+0+0),w
  3561  04C9  1C03               	skipc
  3562  04CA  2CCC               	goto	u1281
  3563  04CB  2CCD               	goto	u1280
  3564  04CC                     u1281:
  3565  04CC  2CD4               	goto	l30001004
  3566  04CD                     u1280:
  3567                           	
  3568  04CD                     l30001002:	
  3569                           	line	95
  3570  04CD  082B               	movf	(___ftadd@f1),w
  3571  04CE  00AB               	movwf	(?___ftadd)
  3572  04CF  082C               	movf	(___ftadd@f1+1),w
  3573  04D0  00AC               	movwf	(?___ftadd+1)
  3574  04D1  082D               	movf	(___ftadd@f1+2),w
  3575  04D2  00AD               	movwf	(?___ftadd+2)
  3576  04D3  2DD3               	goto	l66
  3577                           	
  3578  04D4                     l30001004:	
  3579                           	line	96
  3580  04D4  3006               	movlw	(06h)
  3581  04D5  00A8               	movwf	(___ftadd@sign)
  3582                           	
  3583  04D6                     l30001005:	
  3584                           	line	97
  3585  04D6  1FAD               	btfss	(___ftadd@f1+2),(23)&7
  3586  04D7  2CD9               	goto	u1291
  3587  04D8  2CDA               	goto	u1290
  3588  04D9                     u1291:
  3589  04D9  2CDB               	goto	l69
  3590  04DA                     u1290:
  3591                           	
  3592  04DA                     l30001006:	
  3593                           	line	98
  3594  04DA  17A8               	bsf	(___ftadd@sign)+(7/8),(7)&7
  3595                           	
  3596  04DB                     l69:	
  3597                           	line	99
  3598  04DB  1FB0               	btfss	(___ftadd@f2+2),(23)&7
  3599  04DC  2CDE               	goto	u1301
  3600  04DD  2CDF               	goto	u1300
  3601  04DE                     u1301:
  3602  04DE  2CE0               	goto	l70
  3603  04DF                     u1300:
  3604                           	
  3605  04DF                     l30001007:	
  3606                           	line	100
  3607  04DF  1728               	bsf	(___ftadd@sign)+(6/8),(6)&7
  3608                           	
  3609  04E0                     l70:	
  3610                           	line	101
  3611  04E0  17AC               	bsf	(___ftadd@f1)+(15/8),(15)&7
  3612                           	
  3613  04E1                     l30001008:	
  3614                           	line	102
  3615  04E1  30FF               	movlw	0FFh
  3616  04E2  05AB               	andwf	(___ftadd@f1),f
  3617  04E3  30FF               	movlw	0FFh
  3618  04E4  05AC               	andwf	(___ftadd@f1+1),f
  3619  04E5  3000               	movlw	0
  3620  04E6  05AD               	andwf	(___ftadd@f1+2),f
  3621                           	
  3622  04E7                     l30001009:	
  3623                           	line	103
  3624  04E7  17AF               	bsf	(___ftadd@f2)+(15/8),(15)&7
  3625                           	line	104
  3626  04E8  30FF               	movlw	0FFh
  3627  04E9  05AE               	andwf	(___ftadd@f2),f
  3628  04EA  30FF               	movlw	0FFh
  3629  04EB  05AF               	andwf	(___ftadd@f2+1),f
  3630  04EC  3000               	movlw	0
  3631  04ED  05B0               	andwf	(___ftadd@f2+2),f
  3632                           	line	106
  3633  04EE  0829               	movf	(___ftadd@exp2),w
  3634  04EF  022A               	subwf	(___ftadd@exp1),w
  3635  04F0  1803               	skipnc
  3636  04F1  2CF3               	goto	u1311
  3637  04F2  2CF4               	goto	u1310
  3638  04F3                     u1311:
  3639  04F3  2D20               	goto	l30001015
  3640  04F4                     u1310:
  3641                           	
  3642  04F4                     l30001010:	
  3643                           	line	110
  3644  04F4  3001               	movlw	01h
  3645  04F5                     u1325:
  3646  04F5  1003               	clrc
  3647  04F6  0DAE               	rlf	(___ftadd@f2),f
  3648  04F7  0DAF               	rlf	(___ftadd@f2+1),f
  3649  04F8  0DB0               	rlf	(___ftadd@f2+2),f
  3650  04F9  3EFF               	addlw	-1
  3651  04FA  1D03               	skipz
  3652  04FB  2CF5               	goto	u1325
  3653                           	line	111
  3654  04FC  3001               	movlw	low(01h)
  3655  04FD  02A9               	subwf	(___ftadd@exp2),f
  3656                           	
  3657  04FE                     l30001011:	
  3658                           	line	112
  3659  04FE  0829               	movf	(___ftadd@exp2),w
  3660  04FF  062A               	xorwf	(___ftadd@exp1),w
  3661  0500  1903               	skipnz
  3662  0501  2D03               	goto	u1331
  3663  0502  2D04               	goto	u1330
  3664  0503                     u1331:
  3665  0503  2D19               	goto	l30001014
  3666  0504                     u1330:
  3667                           	
  3668  0504                     l30001012:	
  3669  0504  3001               	movlw	low(01h)
  3670  0505  02A8               	subwf	(___ftadd@sign),f
  3671  0506  0828               	movf	((___ftadd@sign))&07fh,w
  3672  0507  3907               	andlw	07h
  3673  0508  1D03               	btfss	status,2
  3674  0509  2D0B               	goto	u1341
  3675  050A  2D0C               	goto	u1340
  3676  050B                     u1341:
  3677  050B  2CF4               	goto	l30001010
  3678  050C                     u1340:
  3679  050C  2D19               	goto	l30001014
  3680                           	
  3681  050D                     l30001013:	
  3682                           	line	114
  3683  050D  3001               	movlw	01h
  3684  050E                     u1355:
  3685  050E  1003               	clrc
  3686  050F  0CAD               	rrf	(___ftadd@f1+2),f
  3687  0510  0CAC               	rrf	(___ftadd@f1+1),f
  3688  0511  0CAB               	rrf	(___ftadd@f1),f
  3689  0512  3EFF               	addlw	-1
  3690  0513  1D03               	skipz
  3691  0514  2D0E               	goto	u1355
  3692                           
  3693                           	line	115
  3694  0515  3001               	movlw	(01h)
  3695  0516  00A5               	movwf	(??___ftadd+0+0)
  3696  0517  0825               	movf	(??___ftadd+0+0),w
  3697  0518  07AA               	addwf	(___ftadd@exp1),f
  3698                           	
  3699  0519                     l30001014:	
  3700                           	line	113
  3701  0519  082A               	movf	(___ftadd@exp1),w
  3702  051A  0629               	xorwf	(___ftadd@exp2),w
  3703  051B  1D03               	skipz
  3704  051C  2D1E               	goto	u1361
  3705  051D  2D1F               	goto	u1360
  3706  051E                     u1361:
  3707  051E  2D0D               	goto	l30001013
  3708  051F                     u1360:
  3709  051F  2D51               	goto	l78
  3710                           	
  3711  0520                     l30001015:	
  3712                           	line	117
  3713  0520  082A               	movf	(___ftadd@exp1),w
  3714  0521  0229               	subwf	(___ftadd@exp2),w
  3715  0522  1803               	skipnc
  3716  0523  2D25               	goto	u1371
  3717  0524  2D26               	goto	u1370
  3718  0525                     u1371:
  3719  0525  2D51               	goto	l78
  3720  0526                     u1370:
  3721                           	
  3722  0526                     l30001016:	
  3723                           	line	121
  3724  0526  3001               	movlw	01h
  3725  0527                     u1385:
  3726  0527  1003               	clrc
  3727  0528  0DAB               	rlf	(___ftadd@f1),f
  3728  0529  0DAC               	rlf	(___ftadd@f1+1),f
  3729  052A  0DAD               	rlf	(___ftadd@f1+2),f
  3730  052B  3EFF               	addlw	-1
  3731  052C  1D03               	skipz
  3732  052D  2D27               	goto	u1385
  3733                           	line	122
  3734  052E  3001               	movlw	low(01h)
  3735  052F  02AA               	subwf	(___ftadd@exp1),f
  3736                           	
  3737  0530                     l30001017:	
  3738                           	line	123
  3739  0530  0829               	movf	(___ftadd@exp2),w
  3740  0531  062A               	xorwf	(___ftadd@exp1),w
  3741  0532  1903               	skipnz
  3742  0533  2D35               	goto	u1391
  3743  0534  2D36               	goto	u1390
  3744  0535                     u1391:
  3745  0535  2D4B               	goto	l30001020
  3746  0536                     u1390:
  3747                           	
  3748  0536                     l30001018:	
  3749  0536  3001               	movlw	low(01h)
  3750  0537  02A8               	subwf	(___ftadd@sign),f
  3751  0538  0828               	movf	((___ftadd@sign))&07fh,w
  3752  0539  3907               	andlw	07h
  3753  053A  1D03               	btfss	status,2
  3754  053B  2D3D               	goto	u1401
  3755  053C  2D3E               	goto	u1400
  3756  053D                     u1401:
  3757  053D  2D26               	goto	l30001016
  3758  053E                     u1400:
  3759  053E  2D4B               	goto	l30001020
  3760                           	
  3761  053F                     l30001019:	
  3762                           	line	125
  3763  053F  3001               	movlw	01h
  3764  0540                     u1415:
  3765  0540  1003               	clrc
  3766  0541  0CB0               	rrf	(___ftadd@f2+2),f
  3767  0542  0CAF               	rrf	(___ftadd@f2+1),f
  3768  0543  0CAE               	rrf	(___ftadd@f2),f
  3769  0544  3EFF               	addlw	-1
  3770  0545  1D03               	skipz
  3771  0546  2D40               	goto	u1415
  3772                           
  3773                           	line	126
  3774  0547  3001               	movlw	(01h)
  3775  0548  00A5               	movwf	(??___ftadd+0+0)
  3776  0549  0825               	movf	(??___ftadd+0+0),w
  3777  054A  07A9               	addwf	(___ftadd@exp2),f
  3778                           	
  3779  054B                     l30001020:	
  3780                           	line	124
  3781  054B  082A               	movf	(___ftadd@exp1),w
  3782  054C  0629               	xorwf	(___ftadd@exp2),w
  3783  054D  1D03               	skipz
  3784  054E  2D50               	goto	u1421
  3785  054F  2D51               	goto	u1420
  3786  0550                     u1421:
  3787  0550  2D3F               	goto	l30001019
  3788  0551                     u1420:
  3789                           	
  3790  0551                     l78:	
  3791                           	line	129
  3792  0551  1FA8               	btfss	(___ftadd@sign),(7)&7
  3793  0552  2D54               	goto	u1431
  3794  0553  2D55               	goto	u1430
  3795  0554                     u1431:
  3796  0554  2D6B               	goto	l30001022
  3797  0555                     u1430:
  3798                           	
  3799  0555                     l30001021:	
  3800                           	line	131
  3801  0555  30FF               	movlw	0FFh
  3802  0556  06AB               	xorwf	(___ftadd@f1),f
  3803  0557  30FF               	movlw	0FFh
  3804  0558  06AC               	xorwf	(___ftadd@f1+1),f
  3805  0559  30FF               	movlw	0FFh
  3806  055A  06AD               	xorwf	(___ftadd@f1+2),f
  3807                           	line	132
  3808  055B  3001               	movlw	01h
  3809  055C  07AB               	addwf	(___ftadd@f1),f
  3810  055D  3000               	movlw	0
  3811  055E  1103               	clrz
  3812  055F  1803               	skipnc
  3813  0560  3E01               	addlw	1
  3814  0561  1903               	skipnz
  3815  0562  2D64               	goto	u1441
  3816  0563  07AC               	addwf	(___ftadd@f1+1),f
  3817  0564                     u1441:
  3818  0564  3000               	movlw	0
  3819  0565  1103               	clrz
  3820  0566  1803               	skipnc
  3821  0567  3E01               	addlw	1
  3822  0568  1903               	skipnz
  3823  0569  2D6B               	goto	u1442
  3824  056A  07AD               	addwf	(___ftadd@f1+2),f
  3825  056B                     u1442:
  3826                           
  3827                           	
  3828  056B                     l30001022:	
  3829                           	line	134
  3830  056B  1F28               	btfss	(___ftadd@sign),(6)&7
  3831  056C  2D6E               	goto	u1451
  3832  056D  2D6F               	goto	u1450
  3833  056E                     u1451:
  3834  056E  2D85               	goto	l30001024
  3835  056F                     u1450:
  3836                           	
  3837  056F                     l30001023:	
  3838                           	line	136
  3839  056F  30FF               	movlw	0FFh
  3840  0570  06AE               	xorwf	(___ftadd@f2),f
  3841  0571  30FF               	movlw	0FFh
  3842  0572  06AF               	xorwf	(___ftadd@f2+1),f
  3843  0573  30FF               	movlw	0FFh
  3844  0574  06B0               	xorwf	(___ftadd@f2+2),f
  3845                           	line	137
  3846  0575  3001               	movlw	01h
  3847  0576  07AE               	addwf	(___ftadd@f2),f
  3848  0577  3000               	movlw	0
  3849  0578  1103               	clrz
  3850  0579  1803               	skipnc
  3851  057A  3E01               	addlw	1
  3852  057B  1903               	skipnz
  3853  057C  2D7E               	goto	u1461
  3854  057D  07AF               	addwf	(___ftadd@f2+1),f
  3855  057E                     u1461:
  3856  057E  3000               	movlw	0
  3857  057F  1103               	clrz
  3858  0580  1803               	skipnc
  3859  0581  3E01               	addlw	1
  3860  0582  1903               	skipnz
  3861  0583  2D85               	goto	u1462
  3862  0584  07B0               	addwf	(___ftadd@f2+2),f
  3863  0585                     u1462:
  3864                           
  3865                           	
  3866  0585                     l30001024:	
  3867                           	line	139
  3868  0585  1003               	clrc
  3869  0586  3000               	movlw	0
  3870  0587  1803               	btfsc	status,0
  3871  0588  3001               	movlw	1
  3872  0589  00A8               	movwf	(___ftadd@sign)
  3873                           	
  3874  058A                     l30001025:	
  3875                           	line	140
  3876  058A  082B               	movf	(___ftadd@f1),w
  3877  058B  07AE               	addwf	(___ftadd@f2),f
  3878  058C  082C               	movf	(___ftadd@f1+1),w
  3879  058D  1103               	clrz
  3880  058E  1803               	skipnc
  3881  058F  0A2C               	incf	(___ftadd@f1+1),w
  3882  0590  1903               	skipnz
  3883  0591  2D93               	goto	u1471
  3884  0592  07AF               	addwf	(___ftadd@f2+1),f
  3885  0593                     u1471:
  3886  0593  082D               	movf	(___ftadd@f1+2),w
  3887  0594  1103               	clrz
  3888  0595  1803               	skipnc
  3889  0596  0A2D               	incf	(___ftadd@f1+2),w
  3890  0597  1903               	skipnz
  3891  0598  2D9A               	goto	u1472
  3892  0599  07B0               	addwf	(___ftadd@f2+2),f
  3893  059A                     u1472:
  3894                           
  3895                           	
  3896  059A                     l30001026:	
  3897                           	line	141
  3898  059A  1FB0               	btfss	(___ftadd@f2+2),(23)&7
  3899  059B  2D9D               	goto	u1481
  3900  059C  2D9E               	goto	u1480
  3901  059D                     u1481:
  3902  059D  2DB7               	goto	l30001029
  3903  059E                     u1480:
  3904                           	
  3905  059E                     l30001027:	
  3906                           	line	142
  3907  059E  30FF               	movlw	0FFh
  3908  059F  06AE               	xorwf	(___ftadd@f2),f
  3909  05A0  30FF               	movlw	0FFh
  3910  05A1  06AF               	xorwf	(___ftadd@f2+1),f
  3911  05A2  30FF               	movlw	0FFh
  3912  05A3  06B0               	xorwf	(___ftadd@f2+2),f
  3913                           	line	143
  3914  05A4  3001               	movlw	01h
  3915  05A5  07AE               	addwf	(___ftadd@f2),f
  3916  05A6  3000               	movlw	0
  3917  05A7  1103               	clrz
  3918  05A8  1803               	skipnc
  3919  05A9  3E01               	addlw	1
  3920  05AA  1903               	skipnz
  3921  05AB  2DAD               	goto	u1491
  3922  05AC  07AF               	addwf	(___ftadd@f2+1),f
  3923  05AD                     u1491:
  3924  05AD  3000               	movlw	0
  3925  05AE  1103               	clrz
  3926  05AF  1803               	skipnc
  3927  05B0  3E01               	addlw	1
  3928  05B1  1903               	skipnz
  3929  05B2  2DB4               	goto	u1492
  3930  05B3  07B0               	addwf	(___ftadd@f2+2),f
  3931  05B4                     u1492:
  3932                           
  3933                           	
  3934  05B4                     l30001028:	
  3935                           	line	144
  3936  05B4  01A8               	clrf	(___ftadd@sign)
  3937  05B5  1403               	bsf	status,0
  3938  05B6  0DA8               	rlf	(___ftadd@sign),f
  3939                           	
  3940  05B7                     l30001029:	
  3941                           	line	146
  3942  05B7  082E               	movf	(___ftadd@f2),w
  3943  05B8  00A0               	movwf	(?___ftpack)
  3944  05B9  082F               	movf	(___ftadd@f2+1),w
  3945  05BA  00A1               	movwf	(?___ftpack+1)
  3946  05BB  0830               	movf	(___ftadd@f2+2),w
  3947  05BC  00A2               	movwf	(?___ftpack+2)
  3948  05BD  082A               	movf	(___ftadd@exp1),w
  3949  05BE  00A5               	movwf	(??___ftadd+0+0)
  3950  05BF  0825               	movf	(??___ftadd+0+0),w
  3951  05C0  00A3               	movwf	0+(?___ftpack)+03h
  3952  05C1  0828               	movf	(___ftadd@sign),w
  3953  05C2  00A6               	movwf	(??___ftadd+1+0)
  3954  05C3  0826               	movf	(??___ftadd+1+0),w
  3955  05C4  00A4               	movwf	0+(?___ftpack)+04h
  3956  05C5  120A  118A  20B2   	fcall	___ftpack
              120A  118A         
  3957  05CA  1383               	bcf	status, 7	;select IRP bank0
  3958  05CB  1283               	bcf	status, 5	;RP0=0, select bank0
  3959  05CC  1303               	bcf	status, 6	;RP1=0, select bank0
  3960  05CD  0820               	movf	(0+(?___ftpack)),w
  3961  05CE  00AB               	movwf	(?___ftadd)
  3962  05CF  0821               	movf	(1+(?___ftpack)),w
  3963  05D0  00AC               	movwf	(?___ftadd+1)
  3964  05D1  0822               	movf	(2+(?___ftpack)),w
  3965  05D2  00AD               	movwf	(?___ftadd+2)
  3966                           	
  3967  05D3                     l66:	
  3968  05D3  0008               	return
  3969                           	opt stack 0
  3970                           GLOBAL	__end_of___ftadd
  3971  05D4                     	__end_of___ftadd:
  3972                           ; =============== function ___ftadd ends ============
  3973                           
  3974                           psect	text118,local,class=CODE,delta=2
  3975                           global __ptext118
  3976  0240                     __ptext118:
  3977                           	line	148
  3978                           	signat	___ftadd,8315
  3979                           	global	_count
  3980                           
  3981                           ; *************** function _count *****************
  3982                           ; Defined at:
  3983                           ;		line 38 in file "C:\Users\gowth\Documents\PIC Programs\ADC\Vref 2.5\Vref 2.50.c"
  3984                           ; Parameters:    Size  Location     Type
  3985                           ;  i               2   22[BANK0 ] int 
  3986                           ; Auto vars:     Size  Location     Type
  3987                           ;  f               2   16[BANK0 ] int 
  3988                           ;  e               2   14[BANK0 ] int 
  3989                           ;  c               2   20[BANK0 ] int 
  3990                           ;  a               2   18[BANK0 ] int 
  3991                           ; Return value:  Size  Location     Type
  3992                           ;		None               void
  3993                           ; Registers used:
  3994                           ;		wreg, status,2, status,0, pclath, cstack
  3995                           ; Tracked objects:
  3996                           ;		On entry : 0/0
  3997                           ;		On exit  : 0/0
  3998                           ;		Unchanged: 0/0
  3999                           ; Data sizes:     COMMON   BANK0   BANK1   BANK3   BANK2
  4000                           ;      Locals:         0      10       0       0       0
  4001                           ;      Temp:     0
  4002                           ;      Total:   10
  4003                           ; This function calls:
  4004                           ;		___awdiv
  4005                           ;		___awmod
  4006                           ;		_command
  4007                           ;		_data
  4008                           ; This function is called by:
  4009                           ;		_adc
  4010                           ; This function uses a non-reentrant model
  4011                           ; 
  4012                           psect	text118
  4013                           	file	"C:\Users\gowth\Documents\PIC Programs\ADC\Vref 2.5\Vref 2.50.c"
  4014                           	line	38
  4015                           	global	__size_of_count
  4016  00B1                     	__size_of_count	equ	__end_of_count-_count
  4017                           ;Vref 2.50.c: 37: void count(int i)
  4018                           ;Vref 2.50.c: 38: {
  4019                           	
  4020  0240                     _count:	
  4021                           	opt stack 6
  4022                           ; Regs used in _count: [wreg+status,2+status,0+pclath+cstack]
  4023                           	line	41
  4024                           	
  4025  0240                     l30001116:	
  4026                           ;Vref 2.50.c: 39: int a,c,e,f;
  4027                           ;Vref 2.50.c: 41: a=i/1000;
  4028  0240  1283               	bcf	status, 5	;RP0=0, select bank0
  4029  0241  1303               	bcf	status, 6	;RP1=0, select bank0
  4030  0242  0837               	movf	(count@i+1),w
  4031  0243  01AB               	clrf	(?___awdiv+1)
  4032  0244  07AB               	addwf	(?___awdiv+1)
  4033  0245  0836               	movf	(count@i),w
  4034  0246  01AA               	clrf	(?___awdiv)
  4035  0247  07AA               	addwf	(?___awdiv)
  4036                           
  4037  0248  30E8               	movlw	low(03E8h)
  4038  0249  00AC               	movwf	0+(?___awdiv)+02h
  4039  024A  3003               	movlw	high(03E8h)
  4040  024B  00AD               	movwf	(0+(?___awdiv)+02h)+1
  4041  024C  120A  118A  2040   	fcall	___awdiv
              120A  118A         
  4042  0251  1383               	bcf	status, 7	;select IRP bank0
  4043  0252  1283               	bcf	status, 5	;RP0=0, select bank0
  4044  0253  1303               	bcf	status, 6	;RP1=0, select bank0
  4045  0254  082B               	movf	(1+(?___awdiv)),w
  4046  0255  01B3               	clrf	(count@a+1)
  4047  0256  07B3               	addwf	(count@a+1)
  4048  0257  082A               	movf	(0+(?___awdiv)),w
  4049  0258  01B2               	clrf	(count@a)
  4050  0259  07B2               	addwf	(count@a)
  4051                           
  4052                           	line	42
  4053                           ;Vref 2.50.c: 42: c=(i%1000)/100;
  4054  025A  0837               	movf	(count@i+1),w
  4055  025B  01A3               	clrf	(?___awmod+1)
  4056  025C  07A3               	addwf	(?___awmod+1)
  4057  025D  0836               	movf	(count@i),w
  4058  025E  01A2               	clrf	(?___awmod)
  4059  025F  07A2               	addwf	(?___awmod)
  4060                           
  4061  0260  30E8               	movlw	low(03E8h)
  4062  0261  00A4               	movwf	0+(?___awmod)+02h
  4063  0262  3003               	movlw	high(03E8h)
  4064  0263  00A5               	movwf	(0+(?___awmod)+02h)+1
  4065  0264  120A  158A  26CA   	fcall	___awmod
              120A  118A         
  4066  0269  1383               	bcf	status, 7	;select IRP bank0
  4067  026A  1283               	bcf	status, 5	;RP0=0, select bank0
  4068  026B  1303               	bcf	status, 6	;RP1=0, select bank0
  4069  026C  0823               	movf	(1+(?___awmod)),w
  4070  026D  01AB               	clrf	(?___awdiv+1)
  4071  026E  07AB               	addwf	(?___awdiv+1)
  4072  026F  0822               	movf	(0+(?___awmod)),w
  4073  0270  01AA               	clrf	(?___awdiv)
  4074  0271  07AA               	addwf	(?___awdiv)
  4075                           
  4076  0272  3064               	movlw	low(064h)
  4077  0273  00AC               	movwf	0+(?___awdiv)+02h
  4078  0274  3000               	movlw	high(064h)
  4079  0275  00AD               	movwf	(0+(?___awdiv)+02h)+1
  4080  0276  120A  118A  2040   	fcall	___awdiv
              120A  118A         
  4081  027B  1383               	bcf	status, 7	;select IRP bank0
  4082  027C  1283               	bcf	status, 5	;RP0=0, select bank0
  4083  027D  1303               	bcf	status, 6	;RP1=0, select bank0
  4084  027E  082B               	movf	(1+(?___awdiv)),w
  4085  027F  01B5               	clrf	(count@c+1)
  4086  0280  07B5               	addwf	(count@c+1)
  4087  0281  082A               	movf	(0+(?___awdiv)),w
  4088  0282  01B4               	clrf	(count@c)
  4089  0283  07B4               	addwf	(count@c)
  4090                           
  4091                           	line	43
  4092                           ;Vref 2.50.c: 43: e=(i%100)/10;
  4093  0284  0837               	movf	(count@i+1),w
  4094  0285  01A3               	clrf	(?___awmod+1)
  4095  0286  07A3               	addwf	(?___awmod+1)
  4096  0287  0836               	movf	(count@i),w
  4097  0288  01A2               	clrf	(?___awmod)
  4098  0289  07A2               	addwf	(?___awmod)
  4099                           
  4100  028A  3064               	movlw	low(064h)
  4101  028B  00A4               	movwf	0+(?___awmod)+02h
  4102  028C  3000               	movlw	high(064h)
  4103  028D  00A5               	movwf	(0+(?___awmod)+02h)+1
  4104  028E  120A  158A  26CA   	fcall	___awmod
              120A  118A         
  4105  0293  1383               	bcf	status, 7	;select IRP bank0
  4106  0294  1283               	bcf	status, 5	;RP0=0, select bank0
  4107  0295  1303               	bcf	status, 6	;RP1=0, select bank0
  4108  0296  0823               	movf	(1+(?___awmod)),w
  4109  0297  01AB               	clrf	(?___awdiv+1)
  4110  0298  07AB               	addwf	(?___awdiv+1)
  4111  0299  0822               	movf	(0+(?___awmod)),w
  4112  029A  01AA               	clrf	(?___awdiv)
  4113  029B  07AA               	addwf	(?___awdiv)
  4114                           
  4115  029C  300A               	movlw	low(0Ah)
  4116  029D  00AC               	movwf	0+(?___awdiv)+02h
  4117  029E  3000               	movlw	high(0Ah)
  4118  029F  00AD               	movwf	(0+(?___awdiv)+02h)+1
  4119  02A0  120A  118A  2040   	fcall	___awdiv
              120A  118A         
  4120  02A5  1383               	bcf	status, 7	;select IRP bank0
  4121  02A6  1283               	bcf	status, 5	;RP0=0, select bank0
  4122  02A7  1303               	bcf	status, 6	;RP1=0, select bank0
  4123  02A8  082B               	movf	(1+(?___awdiv)),w
  4124  02A9  01AF               	clrf	(count@e+1)
  4125  02AA  07AF               	addwf	(count@e+1)
  4126  02AB  082A               	movf	(0+(?___awdiv)),w
  4127  02AC  01AE               	clrf	(count@e)
  4128  02AD  07AE               	addwf	(count@e)
  4129                           
  4130                           	line	44
  4131                           ;Vref 2.50.c: 44: f=i%10;
  4132  02AE  0837               	movf	(count@i+1),w
  4133  02AF  01A3               	clrf	(?___awmod+1)
  4134  02B0  07A3               	addwf	(?___awmod+1)
  4135  02B1  0836               	movf	(count@i),w
  4136  02B2  01A2               	clrf	(?___awmod)
  4137  02B3  07A2               	addwf	(?___awmod)
  4138                           
  4139  02B4  300A               	movlw	low(0Ah)
  4140  02B5  00A4               	movwf	0+(?___awmod)+02h
  4141  02B6  3000               	movlw	high(0Ah)
  4142  02B7  00A5               	movwf	(0+(?___awmod)+02h)+1
  4143  02B8  120A  158A  26CA   	fcall	___awmod
              120A  118A         
  4144  02BD  1383               	bcf	status, 7	;select IRP bank0
  4145  02BE  1283               	bcf	status, 5	;RP0=0, select bank0
  4146  02BF  1303               	bcf	status, 6	;RP1=0, select bank0
  4147  02C0  0823               	movf	(1+(?___awmod)),w
  4148  02C1  01B1               	clrf	(count@f+1)
  4149  02C2  07B1               	addwf	(count@f+1)
  4150  02C3  0822               	movf	(0+(?___awmod)),w
  4151  02C4  01B0               	clrf	(count@f)
  4152  02C5  07B0               	addwf	(count@f)
  4153                           
  4154                           	line	46
  4155                           ;Vref 2.50.c: 46: command(0X80);
  4156  02C6  3080               	movlw	(080h)
  4157  02C7  120A  158A  2694   	fcall	_command
              120A  118A         
  4158                           	line	47
  4159                           ;Vref 2.50.c: 47: data(a+48);
  4160  02CC  1283               	bcf	status, 5	;RP0=0, select bank0
  4161  02CD  1303               	bcf	status, 6	;RP1=0, select bank0
  4162  02CE  0832               	movf	(count@a),w
  4163  02CF  3E30               	addlw	030h
  4164  02D0  120A  118A  2005   	fcall	_data
              120A  118A         
  4165                           	line	48
  4166                           ;Vref 2.50.c: 48: data(c+48);
  4167  02D5  1283               	bcf	status, 5	;RP0=0, select bank0
  4168  02D6  1303               	bcf	status, 6	;RP1=0, select bank0
  4169  02D7  0834               	movf	(count@c),w
  4170  02D8  3E30               	addlw	030h
  4171  02D9  120A  118A  2005   	fcall	_data
              120A  118A         
  4172                           	line	49
  4173                           ;Vref 2.50.c: 49: data(e+48);
  4174  02DE  1283               	bcf	status, 5	;RP0=0, select bank0
  4175  02DF  1303               	bcf	status, 6	;RP1=0, select bank0
  4176  02E0  082E               	movf	(count@e),w
  4177  02E1  3E30               	addlw	030h
  4178  02E2  120A  118A  2005   	fcall	_data
              120A  118A         
  4179                           	line	50
  4180                           ;Vref 2.50.c: 50: data(f+48);
  4181  02E7  1283               	bcf	status, 5	;RP0=0, select bank0
  4182  02E8  1303               	bcf	status, 6	;RP1=0, select bank0
  4183  02E9  0830               	movf	(count@f),w
  4184  02EA  3E30               	addlw	030h
  4185  02EB  120A  118A  2005   	fcall	_data
              120A  118A         
  4186                           	
  4187  02F0                     l8:	
  4188  02F0  0008               	return
  4189                           	opt stack 0
  4190                           GLOBAL	__end_of_count
  4191  02F1                     	__end_of_count:
  4192                           ; =============== function _count ends ============
  4193                           
  4194                           psect	text119,local,class=CODE,delta=2
  4195                           global __ptext119
  4196  012E                     __ptext119:
  4197                           	line	51
  4198                           	signat	_count,4216
  4199                           	global	___fttol
  4200                           
  4201                           ; *************** function ___fttol *****************
  4202                           ; Defined at:
  4203                           ;		line 45 in file "C:\Program Files (x86)\HI-TECH Software\PICC\9.70\sources\fttol.c"
  4204                           ; Parameters:    Size  Location     Type
  4205                           ;  f1              3   34[BANK0 ] float 
  4206                           ; Auto vars:     Size  Location     Type
  4207                           ;  lval            4   29[BANK0 ] unsigned long 
  4208                           ;  exp1            1   33[BANK0 ] unsigned char 
  4209                           ;  sign1           1   28[BANK0 ] unsigned char 
  4210                           ; Return value:  Size  Location     Type
  4211                           ;                  4   34[BANK0 ] long 
  4212                           ; Registers used:
  4213                           ;		wreg, status,2, status,0
  4214                           ; Tracked objects:
  4215                           ;		On entry : 0/0
  4216                           ;		On exit  : 0/0
  4217                           ;		Unchanged: 0/0
  4218                           ; Data sizes:     COMMON   BANK0   BANK1   BANK3   BANK2
  4219                           ;      Locals:         0      13       0       0       0
  4220                           ;      Temp:     3
  4221                           ;      Total:   13
  4222                           ; This function calls:
  4223                           ; This function is called by:
  4224                           ;		_voltage
  4225                           ; This function uses a non-reentrant model
  4226                           ; 
  4227                           psect	text119
  4228                           	file	"C:\Program Files (x86)\HI-TECH Software\PICC\9.70\sources\fttol.c"
  4229                           	line	45
  4230                           	global	__size_of___fttol
  4231  0087                     	__size_of___fttol	equ	__end_of___fttol-___fttol
  4232                           	
  4233  012E                     ___fttol:	
  4234                           	opt stack 6
  4235                           ; Regs used in ___fttol: [wreg+status,2+status,0]
  4236                           	line	49
  4237                           	
  4238  012E                     l30001031:	
  4239  012E  1283               	bcf	status, 5	;RP0=0, select bank0
  4240  012F  1303               	bcf	status, 6	;RP1=0, select bank0
  4241  0130  0842               	movf	(___fttol@f1),w
  4242  0131  00B9               	movwf	(??___fttol+0+0)
  4243  0132  0843               	movf	(___fttol@f1+1),w
  4244  0133  00BA               	movwf	(??___fttol+0+0+1)
  4245  0134  0844               	movf	(___fttol@f1+2),w
  4246  0135  00BB               	movwf	(??___fttol+0+0+2)
  4247  0136  1003               	clrc
  4248  0137  0D3A               	rlf	(??___fttol+0+1),w
  4249  0138  0D3B               	rlf	(??___fttol+0+2),w
  4250  0139  00C1               	movwf	(___fttol@exp1)
  4251  013A  08C1               	movf	((___fttol@exp1))&07fh,f
  4252  013B  1D03               	skipz
  4253  013C  293E               	goto	u1501
  4254  013D  293F               	goto	u1500
  4255  013E                     u1501:
  4256  013E  2948               	goto	l30001034
  4257  013F                     u1500:
  4258                           	
  4259  013F                     l30001032:	
  4260                           	line	50
  4261  013F  3000               	movlw	0
  4262  0140  00C5               	movwf	(?___fttol+3)
  4263  0141  3000               	movlw	0
  4264  0142  00C4               	movwf	(?___fttol+2)
  4265  0143  3000               	movlw	0
  4266  0144  00C3               	movwf	(?___fttol+1)
  4267  0145  3000               	movlw	0
  4268  0146  00C2               	movwf	(?___fttol)
  4269                           
  4270  0147  29B4               	goto	l155
  4271                           	
  4272  0148                     l30001034:	
  4273                           	line	51
  4274  0148  0842               	movf	(___fttol@f1),w
  4275  0149  00B9               	movwf	(??___fttol+0+0)
  4276  014A  0843               	movf	(___fttol@f1+1),w
  4277  014B  00BA               	movwf	(??___fttol+0+0+1)
  4278  014C  0844               	movf	(___fttol@f1+2),w
  4279  014D  00BB               	movwf	(??___fttol+0+0+2)
  4280  014E  3017               	movlw	017h
  4281  014F                     u1515:
  4282  014F  1003               	clrc
  4283  0150  0CBB               	rrf	(??___fttol+0+2),f
  4284  0151  0CBA               	rrf	(??___fttol+0+1),f
  4285  0152  0CB9               	rrf	(??___fttol+0+0),f
  4286  0153                     u1510:
  4287  0153  3EFF               	addlw	-1
  4288  0154  1D03               	skipz
  4289  0155  294F               	goto	u1515
  4290  0156  0839               	movf	0+(??___fttol+0+0),w
  4291  0157  00BC               	movwf	(___fttol@sign1)
  4292                           	
  4293  0158                     l30001035:	
  4294                           	line	52
  4295  0158  17C3               	bsf	(___fttol@f1)+(15/8),(15)&7
  4296                           	
  4297  0159                     l30001036:	
  4298                           	line	53
  4299  0159  30FF               	movlw	0FFh
  4300  015A  05C2               	andwf	(___fttol@f1),f
  4301  015B  30FF               	movlw	0FFh
  4302  015C  05C3               	andwf	(___fttol@f1+1),f
  4303  015D  3000               	movlw	0
  4304+ 015E  05C4               	andwf	(___fttol@f1+2),f
  4305+                          	
  4306+ 015F                     l30001037:	
  4307+                          	line	54
  4308+ 015F  0842               	movf	(___fttol@f1),w
  4309+ 0160  00BD               	movwf	(___fttol@lval)
  4310+ 0161  0843               	movf	(___fttol@f1+1),w
  4311+ 0162  00BE               	movwf	((___fttol@lval))+1
  4312+                          	
  4313+ 0163  0844               	movf	(___fttol@f1+2),w
  4314+ 0164  00BF               	movwf	((___fttol@lval))+2
  4315+                          	
  4316+ 0165  01C0               	clrf	3+(___fttol@lval)
  4317+                          	
  4318+ 0166                     l30001038:	
  4319+                          	line	55
  4320+ 0166  308E               	movlw	low(08Eh)
  4321+ 0167  02C1               	subwf	(___fttol@exp1),f
  4322+                          	
  4323+ 0168                     l30001039:	
  4324+                          	line	56
  4325+ 0168  1FC1               	btfss	(___fttol@exp1),7
  4326+ 0169  296B               	goto	u1521
  4327+ 016A  296C               	goto	u1520
  4328+ 016B                     u1521:
  4329+ 016B  2986               	goto	l30001044
  4330+ 016C                     u1520:
  4331+                          	
  4332+ 016C                     l30001040:	
  4333+                          	line	57
  4334+ 016C  0841               	movf	(___fttol@exp1),w
  4335+ 016D  3A80               	xorlw	80h
  4336+ 016E  3E8F               	addlw	-((-15)^80h)
  4337+ 016F  1803               	skipnc
  4338+ 0170  2972               	goto	u1531
  4339+ 0171  2973               	goto	u1530
  4340+ 0172                     u1531:
  4341+ 0172  2974               	goto	l30001043
  4342+ 0173                     u1530:
  4343+ 0173  293F               	goto	l30001032
  4344+                          	
  4345+ 0174                     l30001043:	
  4346+                          	line	60
  4347+ 0174  3001               	movlw	01h
  4348+ 0175                     u1545:
  4349+ 0175  1003               	clrc
  4350+ 0176  0CC0               	rrf	(___fttol@lval+3),f
  4351+ 0177  0CBF               	rrf	(___fttol@lval+2),f
  4352+ 0178  0CBE               	rrf	(___fttol@lval+1),f
  4353+ 0179  0CBD               	rrf	(___fttol@lval),f
  4354+ 017A  3EFF               	addlw	-1
  4355+ 017B  1D03               	skipz
  4356+ 017C  2975               	goto	u1545
  4357+                          
  4358+                          	line	61
  4359+ 017D  3001               	movlw	(01h)
  4360+ 017E  00B9               	movwf	(??___fttol+0+0)
  4361+ 017F  0839               	movf	(??___fttol+0+0),w
  4362+ 0180  07C1               	addwf	(___fttol@exp1),f
  4363+ 0181  1D03               	btfss	status,2
  4364+ 0182  2984               	goto	u1551
  4365+ 0183  2985               	goto	u1550
  4366+ 0184                     u1551:
  4367+ 0184  2974               	goto	l30001043
  4368+ 0185                     u1550:
  4369+ 0185  299D               	goto	l30001049
  4370+                          	
  4371+ 0186                     l30001044:	
  4372+                          	line	63
  4373+ 0186  3018               	movlw	(018h)
  4374+ 0187  0241               	subwf	(___fttol@exp1),w
  4375+ 0188  1C03               	skipc
  4376+ 0189  298B               	goto	u1561
  4377+ 018A  298C               	goto	u1560
  4378+ 018B                     u1561:
  4379+ 018B  2998               	goto	l30001048
  4380+ 018C                     u1560:
  4381+ 018C  293F               	goto	l30001032
  4382+                          	
  4383+ 018D                     l30001047:	
  4384+                          	line	66
  4385+ 018D  3001               	movlw	01h
  4386+ 018E  00B9               	movwf	(??___fttol+0+0)
  4387+ 018F                     u1575:
  4388+ 018F  1003               	clrc
  4389+ 0190  0DBD               	rlf	(___fttol@lval),f
  4390+ 0191  0DBE               	rlf	(___fttol@lval+1),f
  4391+ 0192  0DBF               	rlf	(___fttol@lval+2),f
  4392+ 0193  0DC0               	rlf	(___fttol@lval+3),f
  4393+ 0194  0BB9               	decfsz	(??___fttol+0+0)
  4394+ 0195  298F               	goto	u1575
  4395+                          	line	67
  4396+ 0196  3001               	movlw	low(01h)
  4397+ 0197  02C1               	subwf	(___fttol@exp1),f
  4398+                          	
  4399+ 0198                     l30001048:	
  4400+                          	line	65
  4401+ 0198  08C1               	movf	(___fttol@exp1),f
  4402+ 0199  1D03               	skipz
  4403+ 019A  299C               	goto	u1581
  4404+ 019B  299D               	goto	u1580
  4405+ 019C                     u1581:
  4406+ 019C  298D               	goto	l30001047
  4407+ 019D                     u1580:
  4408+                          	
  4409+ 019D                     l30001049:	
  4410+                          	line	70
  4411+ 019D  083C               	movf	(___fttol@sign1),w
  4412+ 019E  1D03               	skipz
  4413+ 019F  29A1               	goto	u1590
  4414+ 01A0  29AC               	goto	l30001051
  4415+ 01A1                     u1590:
  4416+                          	
  4417+ 01A1                     l30001050:	
  4418+                          	line	71
  4419+ 01A1  09BD               	comf	(___fttol@lval),f
  4420+ 01A2  09BE               	comf	(___fttol@lval+1),f
  4421+ 01A3  09BF               	comf	(___fttol@lval+2),f
  4422+ 01A4  09C0               	comf	(___fttol@lval+3),f
  4423+ 01A5  0ABD               	incf	(___fttol@lval),f
  4424+ 01A6  1903               	skipnz
  4425+ 01A7  0ABE               	incf	(___fttol@lval+1),f
  4426+ 01A8  1903               	skipnz
  4427+ 01A9  0ABF               	incf	(___fttol@lval+2),f
  4428+ 01AA  1903               	skipnz
  4429+ 01AB  0AC0               	incf	(___fttol@lval+3),f
  4430+                          	
  4431+ 01AC                     l30001051:	
  4432+                          	line	72
  4433+ 01AC  0840               	movf	(___fttol@lval+3),w
  4434+ 01AD  00C5               	movwf	(?___fttol+3)
  4435+ 01AE  083F               	movf	(___fttol@lval+2),w
  4436+ 01AF  00C4               	movwf	(?___fttol+2)
  4437+ 01B0  083E               	movf	(___fttol@lval+1),w
  4438+ 01B1  00C3               	movwf	(?___fttol+1)
  4439+ 01B2  083D               	movf	(___fttol@lval),w
  4440+ 01B3  00C2               	movwf	(?___fttol)
  4441+                          
  4442+                          	
  4443+ 01B4                     l155:	
  4444+ 01B4  0008               	return
  4445+                          	opt stack 0
  4446+                          GLOBAL	__end_of___fttol
  4447+ 01B5                     	__end_of___fttol:
  4448+                          ; =============== function ___fttol ends ============
  4449+                          
  4450+                          psect	text120,local,class=CODE,delta=2
  4451+                          global __ptext120
  4452+ 00B2                     __ptext120:
  4453+                          	line	73
  4454+                          	signat	___fttol,4220
  4455+                          	global	___ftpack
  4456+                          
  4457+                          ; *************** function ___ftpack *****************
  4458+                          ; Defined at:
  4459+                          ;		line 63 in file "C:\Program Files (x86)\HI-TECH Software\PICC\9.70\sources\float.c"
  4460+                          ; Parameters:    Size  Location     Type
  4461+                          ;  arg             3    0[BANK0 ] unsigned um
  4462+                          ;  exp             1    3[BANK0 ] unsigned char 
  4463+                          ;  sign            1    4[BANK0 ] unsigned char 
  4464+                          ; Auto vars:     Size  Location     Type
  4465+                          ;		None
  4466+                          ; Return value:  Size  Location     Type
  4467+                          ;                  3    0[BANK0 ] float 
  4468+                          ; Registers used:
  4469+                          ;		wreg, status,2, status,0
  4470+                          ; Tracked objects:
  4471+                          ;		On entry : 0/0
  4472+                          ;		On exit  : 0/0
  4473+                          ;		Unchanged: 0/0
  4474+                          ; Data sizes:     COMMON   BANK0   BANK1   BANK3   BANK2
  4475+                          ;      Locals:         3       5       0       0       0
  4476+                          ;      Temp:     3
  4477+                          ;      Total:    8
  4478+                          ; This function calls:
  4479+                          ;		Nothing
  4480+                          ; This function is called by:
  4481+                          ;		___ftadd
  4482+                          ;		___ftdiv
  4483+                          ;		___ftmul
  4484+                          ;		___awtoft
  4485+                          ; This function uses a non-reentrant model
  4486+                          ; 
  4487+                          psect	text120
  4488+                          	file	"C:\Program Files (x86)\HI-TECH Software\PICC\9.70\sources\float.c"
  4489+                          	line	63
  4490+                          	global	__size_of___ftpack
  4491+ 007C                     	__size_of___ftpack	equ	__end_of___ftpack-___ftpack
  4492+                          	
  4493+ 00B2                     ___ftpack:	
  4494+                          	opt stack 5
  4495+                          ; Regs used in ___ftpack: [wreg+status,2+status,0]
  4496+                          	line	64
  4497+                          	
  4498+ 00B2                     l30001053:	
  4499+ 00B2  1283               	bcf	status, 5	;RP0=0, select bank0
  4500+ 00B3  1303               	bcf	status, 6	;RP1=0, select bank0
  4501+ 00B4  0823               	movf	(___ftpack@exp),w
  4502+ 00B5  1D03               	skipz
  4503+ 00B6  28B8               	goto	u1600
  4504+ 00B7  28BF               	goto	l30001055
  4505+ 00B8                     u1600:
  4506+                          	
  4507+ 00B8                     l30001054:	
  4508+ 00B8  0822               	movf	(___ftpack@arg+2),w
  4509+ 00B9  0421               	iorwf	(___ftpack@arg+1),w
  4510+ 00BA  0420               	iorwf	(___ftpack@arg),w
  4511+ 00BB  1D03               	skipz
  4512+ 00BC  28BE               	goto	u1611
  4513+ 00BD  28BF               	goto	u1610
  4514+ 00BE                     u1611:
  4515+ 00BE  28D2               	goto	l30001058
  4516+ 00BF                     u1610:
  4517+                          	
  4518+ 00BF                     l30001055:	
  4519+                          	line	65
  4520+ 00BF  3000               	movlw	0x0
  4521+ 00C0  00A0               	movwf	(?___ftpack)
  4522+ 00C1  3000               	movlw	0x0
  4523+ 00C2  00A1               	movwf	(?___ftpack+1)
  4524+ 00C3  3000               	movlw	0x0
  4525+ 00C4  00A2               	movwf	(?___ftpack+2)
  4526+ 00C5  292D               	goto	l358
  4527+                          	
  4528+ 00C6                     l30001057:	
  4529+                          	line	67
  4530+ 00C6  3001               	movlw	(01h)
  4531+ 00C7  00F0               	movwf	(??___ftpack+0+0)
  4532+ 00C8  0870               	movf	(??___ftpack+0+0),w
  4533+ 00C9  07A3               	addwf	(___ftpack@exp),f
  4534+                          	line	68
  4535+ 00CA  3001               	movlw	01h
  4536+ 00CB                     u1625:
  4537+ 00CB  1003               	clrc
  4538+ 00CC  0CA2               	rrf	(___ftpack@arg+2),f
  4539+ 00CD  0CA1               	rrf	(___ftpack@arg+1),f
  4540+ 00CE  0CA0               	rrf	(___ftpack@arg),f
  4541+ 00CF  3EFF               	addlw	-1
  4542+ 00D0  1D03               	skipz
  4543+ 00D1  28CB               	goto	u1625
  4544+                          
  4545+                          	
  4546+ 00D2                     l30001058:	
  4547+                          	line	66
  4548+ 00D2  30FE               	movlw	low highword(0FE0000h)
  4549+ 00D3  0522               	andwf	(___ftpack@arg+2),w
  4550+ 00D4  1D03               	btfss	status,2
  4551+ 00D5  28D7               	goto	u1631
  4552+ 00D6  28D8               	goto	u1630
  4553+ 00D7                     u1631:
  4554+ 00D7  28C6               	goto	l30001057
  4555+ 00D8                     u1630:
  4556+ 00D8  28F5               	goto	l363
  4557+                          	
  4558+ 00D9                     l30001059:	
  4559+                          	line	71
  4560+ 00D9  3001               	movlw	(01h)
  4561+ 00DA  00F0               	movwf	(??___ftpack+0+0)
  4562+ 00DB  0870               	movf	(??___ftpack+0+0),w
  4563+ 00DC  07A3               	addwf	(___ftpack@exp),f
  4564+                          	
  4565+ 00DD                     l30001060:	
  4566+                          	line	72
  4567+ 00DD  3001               	movlw	01h
  4568+ 00DE  07A0               	addwf	(___ftpack@arg),f
  4569+ 00DF  3000               	movlw	0
  4570+ 00E0  1103               	clrz
  4571+ 00E1  1803               	skipnc
  4572+ 00E2  3E01               	addlw	1
  4573+ 00E3  1903               	skipnz
  4574+ 00E4  28E6               	goto	u1641
  4575+ 00E5  07A1               	addwf	(___ftpack@arg+1),f
  4576+ 00E6                     u1641:
  4577+ 00E6  3000               	movlw	0
  4578+ 00E7  1103               	clrz
  4579+ 00E8  1803               	skipnc
  4580+ 00E9  3E01               	addlw	1
  4581+ 00EA  1903               	skipnz
  4582+ 00EB  28ED               	goto	u1642
  4583+ 00EC  07A2               	addwf	(___ftpack@arg+2),f
  4584+ 00ED                     u1642:
  4585+                          
  4586+                          	
  4587+ 00ED                     l30001061:	
  4588+                          	line	73
  4589+ 00ED  3001               	movlw	01h
  4590+ 00EE                     u1655:
  4591+ 00EE  1003               	clrc
  4592+ 00EF  0CA2               	rrf	(___ftpack@arg+2),f
  4593+ 00F0  0CA1               	rrf	(___ftpack@arg+1),f
  4594+ 00F1  0CA0               	rrf	(___ftpack@arg),f
  4595+ 00F2  3EFF               	addlw	-1
  4596+ 00F3  1D03               	skipz
  4597+ 00F4  28EE               	goto	u1655
  4598+                          
  4599+                          	
  4600+ 00F5                     l363:	
  4601+                          	line	70
  4602+ 00F5  30FF               	movlw	low highword(0FF0000h)
  4603+ 00F6  0522               	andwf	(___ftpack@arg+2),w
  4604+ 00F7  1D03               	btfss	status,2
  4605+ 00F8  28FA               	goto	u1661
  4606+ 00F9  28FB               	goto	u1660
  4607+ 00FA                     u1661:
  4608+ 00FA  28D9               	goto	l30001059
  4609+ 00FB                     u1660:
  4610+ 00FB  2906               	goto	l30001063
  4611+                          	
  4612+ 00FC                     l30001062:	
  4613+                          	line	76
  4614+ 00FC  3001               	movlw	low(01h)
  4615+ 00FD  02A3               	subwf	(___ftpack@exp),f
  4616+                          	line	77
  4617+ 00FE  3001               	movlw	01h
  4618+ 00FF                     u1675:
  4619+ 00FF  1003               	clrc
  4620+ 0100  0DA0               	rlf	(___ftpack@arg),f
  4621+ 0101  0DA1               	rlf	(___ftpack@arg+1),f
  4622+ 0102  0DA2               	rlf	(___ftpack@arg+2),f
  4623+ 0103  3EFF               	addlw	-1
  4624+ 0104  1D03               	skipz
  4625+ 0105  28FF               	goto	u1675
  4626+                          	
  4627+ 0106                     l30001063:	
  4628+                          	line	75
  4629+ 0106  1FA1               	btfss	(___ftpack@arg+1),(15)&7
  4630+ 0107  2909               	goto	u1681
  4631+ 0108  290A               	goto	u1680
  4632+ 0109                     u1681:
  4633+ 0109  28FC               	goto	l30001062
  4634+ 010A                     u1680:
  4635+                          	
  4636+ 010A                     l368:	
  4637+                          	line	79
  4638+ 010A  1823               	btfsc	(___ftpack@exp),(0)&7
  4639+ 010B  290D               	goto	u1691
  4640+ 010C  290E               	goto	u1690
  4641+ 010D                     u1691:
  4642+ 010D  2914               	goto	l369
  4643+ 010E                     u1690:
  4644+                          	
  4645+ 010E                     l30001064:	
  4646+                          	line	80
  4647+ 010E  30FF               	movlw	0FFh
  4648+ 010F  05A0               	andwf	(___ftpack@arg),f
  4649+ 0110  307F               	movlw	07Fh
  4650+ 0111  05A1               	andwf	(___ftpack@arg+1),f
  4651+ 0112  30FF               	movlw	0FFh
  4652+ 0113  05A2               	andwf	(___ftpack@arg+2),f
  4653+                          	
  4654+ 0114                     l369:	
  4655+                          	line	81
  4656+ 0114  1003               	clrc
  4657+ 0115  0CA3               	rrf	(___ftpack@exp),f
  4658+                          
  4659+                          	
  4660+ 0116                     l30001065:	
  4661+                          	line	82
  4662+ 0116  0823               	movf	(___ftpack@exp),w
  4663+ 0117  00F0               	movwf	(??___ftpack+0+0)
  4664+ 0118  01F1               	clrf	(??___ftpack+0+0+1)
  4665+ 0119  01F2               	clrf	(??___ftpack+0+0+2)
  4666+ 011A  3010               	movlw	010h
  4667+ 011B                     u1705:
  4668+ 011B  1003               	clrc
  4669+ 011C  0DF0               	rlf	(??___ftpack+0+0),f
  4670+ 011D  0DF1               	rlf	(??___ftpack+0+1),f
  4671+ 011E  0DF2               	rlf	(??___ftpack+0+2),f
  4672+ 011F                     u1700:
  4673+ 011F  3EFF               	addlw	-1
  4674+ 0120  1D03               	skipz
  4675+ 0121  291B               	goto	u1705
  4676+ 0122  0870               	movf	0+(??___ftpack+0+0),w
  4677+ 0123  04A0               	iorwf	(___ftpack@arg),f
  4678+ 0124  0871               	movf	1+(??___ftpack+0+0),w
  4679+ 0125  04A1               	iorwf	(___ftpack@arg+1),f
  4680+ 0126  0872               	movf	2+(??___ftpack+0+0),w
  4681+ 0127  04A2               	iorwf	(___ftpack@arg+2),f
  4682+                          	
  4683+ 0128                     l30001066:	
  4684+                          	line	83
  4685+ 0128  0824               	movf	(___ftpack@sign),w
  4686+ 0129  1D03               	skipz
  4687+ 012A  292C               	goto	u1710
  4688+ 012B  292D               	goto	l370
  4689+ 012C                     u1710:
  4690+                          	
  4691+ 012C                     l30001067:	
  4692+                          	line	84
  4693+ 012C  17A2               	bsf	(___ftpack@arg)+(23/8),(23)&7
  4694+                          	
  4695+ 012D                     l370:	
  4696+                          	line	85
  4697+                          	
  4698+ 012D                     l358:	
  4699+ 012D  0008               	return
  4700+                          	opt stack 0
  4701+                          GLOBAL	__end_of___ftpack
  4702+ 012E                     	__end_of___ftpack:
  4703+                          ; =============== function ___ftpack ends ============
  4704+                          
  4705+                          psect	text121,local,class=CODE,delta=2
  4706+                          global __ptext121
  4707+ 0005                     __ptext121:
  4708+                          	line	86
  4709+                          	signat	___ftpack,12411
  4710+                          	global	_data
  4711+                          
  4712+                          ; *************** function _data *****************
  4713+                          ; Defined at:
  4714+                          ;		line 31 in file "C:\Users\gowth\Documents\PIC Programs\ADC\Vref 2.5\Vref 2.50.c"
  4715+                          ; Parameters:    Size  Location     Type
  4716+                          ;  data            1    wreg     unsigned char 
  4717+                          ; Auto vars:     Size  Location     Type
  4718+                          ;  data            1    2[COMMON] unsigned char 
  4719+                          ; Return value:  Size  Location     Type
  4720+                          ;		None               void
  4721+                          ; Registers used:
  4722+                          ;		wreg, status,2, status,0, pclath, cstack
  4723+                          ; Tracked objects:
  4724+                          ;		On entry : 0/0
  4725+                          ;		On exit  : 0/0
  4726+                          ;		Unchanged: 0/0
  4727+                          ; Data sizes:     COMMON   BANK0   BANK1   BANK3   BANK2
  4728+                          ;      Locals:         1       0       0       0       0
  4729+                          ;      Temp:     0
  4730+                          ;      Total:    1
  4731+                          ; This function calls:
  4732+                          ;		_pulse
  4733+                          ; This function is called by:
  4734+                          ;		_count
  4735+                          ;		_voltage
  4736+                          ;		_main
  4737+                          ; This function uses a non-reentrant model
  4738+                          ; 
  4739+                          psect	text121
  4740+                          	file	"C:\Users\gowth\Documents\PIC Programs\ADC\Vref 2.5\Vref 2.50.c"
  4741+                          	line	31
  4742+                          	global	__size_of_data
  4743+ 000C                     	__size_of_data	equ	__end_of_data-_data
  4744+                          ;Vref 2.50.c: 30: void data(char data)
  4745+                          ;Vref 2.50.c: 31: {
  4746+                          	
  4747+ 0005                     _data:	
  4748+                          	opt stack 5
  4749+                          ; Regs used in _data: [wreg+status,2+status,0+pclath+cstack]
  4750+                          ;data@data stored from wreg
  4751+ 0005  00F2               	movwf	(data@data)
  4752+                          	
  4753+ 0006                     l30001153:	
  4754+                          	line	32
  4755+                          ;Vref 2.50.c: 32: RE0=1;
  4756+ 0006  1283               	bcf	status, 5	;RP0=0, select bank0
  4757+ 0007  1303               	bcf	status, 6	;RP1=0, select bank0
  4758+ 0008  1409               	bsf	(72/8),(72)&7
  4759+                          	
  4760+ 0009                     l30001154:	
  4761+                          	line	33
  4762+                          ;Vref 2.50.c: 33: PORTD=data;
  4763+ 0009  0872               	movf	(data@data),w
  4764+ 000A  0088               	movwf	(8)	;volatile
  4765+                          	
  4766+ 000B                     l30001155:	
  4767+                          	line	34
  4768+                          ;Vref 2.50.c: 34: pulse();
  4769+ 000B  120A  158A  26B1   	fcall	_pulse
      +       120A  118A         
  4770+                          	
  4771+ 0010                     l7:	
  4772+ 0010  0008               	return
  4773+                          	opt stack 0
  4774+                          GLOBAL	__end_of_data
  4775+ 0011                     	__end_of_data:
  4776+                          ; =============== function _data ends ============
  4777+                          
  4778+                          psect	text122,local,class=CODE,delta=2
  4779+                          global __ptext122
  4780+ 0E94                     __ptext122:
  4781+                          	line	35
  4782+                          	signat	_data,4216
  4783+                          	global	_command
  4784+                          
  4785+                          ; *************** function _command *****************
  4786+                          ; Defined at:
  4787+                          ;		line 24 in file "C:\Users\gowth\Documents\PIC Programs\ADC\Vref 2.5\Vref 2.50.c"
  4788+                          ; Parameters:    Size  Location     Type
  4789+                          ;  data            1    wreg     unsigned char 
  4790+                          ; Auto vars:     Size  Location     Type
  4791+                          ;  data            1    2[COMMON] unsigned char 
  4792+                          ; Return value:  Size  Location     Type
  4793+                          ;		None               void
  4794+                          ; Registers used:
  4795+                          ;		wreg, status,2, status,0, pclath, cstack
  4796+                          ; Tracked objects:
  4797+                          ;		On entry : 0/0
  4798+                          ;		On exit  : 0/0
  4799+                          ;		Unchanged: 0/0
  4800+                          ; Data sizes:     COMMON   BANK0   BANK1   BANK3   BANK2
  4801+                          ;      Locals:         1       0       0       0       0
  4802+                          ;      Temp:     0
  4803+                          ;      Total:    1
  4804+                          ; This function calls:
  4805+                          ;		_pulse
  4806+                          ; This function is called by:
  4807+                          ;		_count
  4808+                          ;		_voltage
  4809+                          ;		_main
  4810+                          ; This function uses a non-reentrant model
  4811+                          ; 
  4812+                          psect	text122
  4813+                          	file	"C:\Users\gowth\Documents\PIC Programs\ADC\Vref 2.5\Vref 2.50.c"
  4814+                          	line	24
  4815+                          	global	__size_of_command
  4816+ 000C                     	__size_of_command	equ	__end_of_command-_command
  4817+                          ;Vref 2.50.c: 23: void command(char data)
  4818+                          ;Vref 2.50.c: 24: {
  4819+                          	
  4820+ 0E94                     _command:	
  4821+                          	opt stack 5
  4822+                          ; Regs used in _command: [wreg+status,2+status,0+pclath+cstack]
  4823+                          ;command@data stored from wreg
  4824+ 0E94  00F2               	movwf	(command@data)
  4825+                          	
  4826+ 0E95                     l30001150:	
  4827                           	line	25
  4828                           ;Vref 2.50.c: 25: RE0=0;
  4829  0E95  1283               	bcf	status, 5	;RP0=0, select bank0
  4830  0E96  1303               	bcf	status, 6	;RP1=0, select bank0
  4831  0E97  1009               	bcf	(72/8),(72)&7
  4832                           	
  4833  0E98                     l30001151:	
  4834                           	line	26
  4835                           ;Vref 2.50.c: 26: PORTD=data;
  4836  0E98  0872               	movf	(command@data),w
  4837  0E99  0088               	movwf	(8)	;volatile
  4838                           	
  4839  0E9A                     l30001152:	
  4840                           	line	27
  4841                           ;Vref 2.50.c: 27: pulse();
  4842  0E9A  120A  158A  26B1   	fcall	_pulse
              120A  158A         
  4843                           	
  4844  0E9F                     l6:	
  4845  0E9F  0008               	return
  4846                           	opt stack 0
  4847                           GLOBAL	__end_of_command
  4848  0EA0                     	__end_of_command:
  4849                           ; =============== function _command ends ============
  4850                           
  4851                           psect	text123,local,class=CODE,delta=2
  4852                           global __ptext123
  4853  0ECA                     __ptext123:
  4854                           	line	28
  4855                           	signat	_command,4216
  4856                           	global	___awmod
  4857                           
  4858                           ; *************** function ___awmod *****************
  4859                           ; Defined at:
  4860                           ;		line 5 in file "C:\Program Files (x86)\HI-TECH Software\PICC\9.70\sources\awmod.c"
  4861                           ; Parameters:    Size  Location     Type
  4862                           ;  dividend        2    2[BANK0 ] int 
  4863                           ;  divisor         2    4[BANK0 ] int 
  4864                           ; Auto vars:     Size  Location     Type
  4865                           ;  sign            1    0[BANK0 ] unsigned char 
  4866                           ;  counter         1    1[BANK0 ] unsigned char 
  4867                           ; Return value:  Size  Location     Type
  4868                           ;                  2    2[BANK0 ] int 
  4869                           ; Registers used:
  4870                           ;		wreg, status,2, status,0
  4871                           ; Tracked objects:
  4872                           ;		On entry : 0/0
  4873                           ;		On exit  : 0/0
  4874                           ;		Unchanged: 0/0
  4875                           ; Data sizes:     COMMON   BANK0   BANK1   BANK3   BANK2
  4876                           ;      Locals:         1       6       0       0       0
  4877                           ;      Temp:     1
  4878                           ;      Total:    7
  4879                           ; This function calls:
  4880                           ;		Nothing
  4881                           ; This function is called by:
  4882                           ;		_count
  4883                           ;		_voltage
  4884                           ; This function uses a non-reentrant model
  4885                           ; 
  4886                           psect	text123
  4887                           	file	"C:\Program Files (x86)\HI-TECH Software\PICC\9.70\sources\awmod.c"
  4888                           	line	5
  4889                           	global	__size_of___awmod
  4890  0062                     	__size_of___awmod	equ	__end_of___awmod-___awmod
  4891                           	
  4892  0ECA                     ___awmod:	
  4893                           	opt stack 5
  4894                           ; Regs used in ___awmod: [wreg+status,2+status,0]
  4895                           	line	8
  4896                           	
  4897  0ECA                     l30001098:	
  4898  0ECA  1003               	clrc
  4899  0ECB  3000               	movlw	0
  4900  0ECC  1803               	btfsc	status,0
  4901  0ECD  3001               	movlw	1
  4902  0ECE  1283               	bcf	status, 5	;RP0=0, select bank0
  4903  0ECF  1303               	bcf	status, 6	;RP1=0, select bank0
  4904  0ED0  00A0               	movwf	(___awmod@sign)
  4905                           	
  4906  0ED1                     l30001099:	
  4907                           	line	9
  4908  0ED1  1FA3               	btfss	(___awmod@dividend+1),7
  4909  0ED2  2ED4               	goto	u1871
  4910  0ED3  2ED5               	goto	u1870
  4911  0ED4                     u1871:
  4912  0ED4  2EDD               	goto	l30001101
  4913  0ED5                     u1870:
  4914                           	
  4915  0ED5                     l30001100:	
  4916                           	line	10
  4917  0ED5  09A2               	comf	(___awmod@dividend),f
  4918  0ED6  09A3               	comf	(___awmod@dividend+1),f
  4919  0ED7  0AA2               	incf	(___awmod@dividend),f
  4920  0ED8  1903               	skipnz
  4921  0ED9  0AA3               	incf	(___awmod@dividend+1),f
  4922                           	line	11
  4923  0EDA  01A0               	clrf	(___awmod@sign)
  4924  0EDB  1403               	bsf	status,0
  4925  0EDC  0DA0               	rlf	(___awmod@sign),f
  4926                           	
  4927  0EDD                     l30001101:	
  4928                           	line	13
  4929  0EDD  1FA5               	btfss	(___awmod@divisor+1),7
  4930  0EDE  2EE0               	goto	u1881
  4931  0EDF  2EE1               	goto	u1880
  4932  0EE0                     u1881:
  4933  0EE0  2EE6               	goto	l30001103
  4934  0EE1                     u1880:
  4935                           	
  4936  0EE1                     l30001102:	
  4937                           	line	14
  4938  0EE1  09A4               	comf	(___awmod@divisor),f
  4939  0EE2  09A5               	comf	(___awmod@divisor+1),f
  4940  0EE3  0AA4               	incf	(___awmod@divisor),f
  4941  0EE4  1903               	skipnz
  4942  0EE5  0AA5               	incf	(___awmod@divisor+1),f
  4943                           	
  4944  0EE6                     l30001103:	
  4945                           	line	15
  4946  0EE6  0825               	movf	(___awmod@divisor+1),w
  4947  0EE7  0424               	iorwf	(___awmod@divisor),w
  4948  0EE8  1903               	skipnz
  4949  0EE9  2EEB               	goto	u1891
  4950  0EEA  2EEC               	goto	u1890
  4951  0EEB                     u1891:
  4952  0EEB  2F1C               	goto	l30001112
  4953  0EEC                     u1890:
  4954                           	
  4955  0EEC                     l30001104:	
  4956                           	line	16
  4957  0EEC  01A1               	clrf	(___awmod@counter)
  4958  0EED  1403               	bsf	status,0
  4959  0EEE  0DA1               	rlf	(___awmod@counter),f
  4960  0EEF  2EFB               	goto	l30001107
  4961                           	
  4962  0EF0                     l30001105:	
  4963                           	line	18
  4964  0EF0  3001               	movlw	01h
  4965  0EF1                     u1905:
  4966  0EF1  1003               	clrc
  4967  0EF2  0DA4               	rlf	(___awmod@divisor),f
  4968  0EF3  0DA5               	rlf	(___awmod@divisor+1),f
  4969  0EF4  3EFF               	addlw	-1
  4970  0EF5  1D03               	skipz
  4971  0EF6  2EF1               	goto	u1905
  4972                           	
  4973  0EF7                     l30001106:	
  4974                           	line	19
  4975  0EF7  3001               	movlw	(01h)
  4976  0EF8  00F0               	movwf	(??___awmod+0+0)
  4977  0EF9  0870               	movf	(??___awmod+0+0),w
  4978  0EFA  07A1               	addwf	(___awmod@counter),f
  4979                           	
  4980  0EFB                     l30001107:	
  4981                           	line	17
  4982  0EFB  1FA5               	btfss	(___awmod@divisor+1),(15)&7
  4983  0EFC  2EFE               	goto	u1911
  4984  0EFD  2EFF               	goto	u1910
  4985  0EFE                     u1911:
  4986  0EFE  2EF0               	goto	l30001105
  4987  0EFF                     u1910:
  4988                           	
  4989  0EFF                     l30001108:	
  4990                           	line	22
  4991  0EFF  0825               	movf	(___awmod@divisor+1),w
  4992  0F00  0223               	subwf	(___awmod@dividend+1),w
  4993  0F01  1D03               	skipz
  4994  0F02  2F05               	goto	u1925
  4995  0F03  0824               	movf	(___awmod@divisor),w
  4996  0F04  0222               	subwf	(___awmod@dividend),w
  4997  0F05                     u1925:
  4998  0F05  1C03               	skipc
  4999  0F06  2F08               	goto	u1921
  5000  0F07  2F09               	goto	u1920
  5001  0F08                     u1921:
  5002  0F08  2F0F               	goto	l30001110
  5003  0F09                     u1920:
  5004                           	
  5005  0F09                     l30001109:	
  5006                           	line	23
  5007  0F09  0824               	movf	(___awmod@divisor),w
  5008  0F0A  02A2               	subwf	(___awmod@dividend),f
  5009  0F0B  0825               	movf	(___awmod@divisor+1),w
  5010  0F0C  1C03               	skipc
  5011  0F0D  03A3               	decf	(___awmod@dividend+1),f
  5012  0F0E  02A3               	subwf	(___awmod@dividend+1),f
  5013                           	
  5014  0F0F                     l30001110:	
  5015                           	line	24
  5016  0F0F  3001               	movlw	01h
  5017  0F10                     u1935:
  5018  0F10  1003               	clrc
  5019  0F11  0CA5               	rrf	(___awmod@divisor+1),f
  5020  0F12  0CA4               	rrf	(___awmod@divisor),f
  5021  0F13  3EFF               	addlw	-1
  5022  0F14  1D03               	skipz
  5023  0F15  2F10               	goto	u1935
  5024                           	
  5025  0F16                     l30001111:	
  5026                           	line	25
  5027  0F16  3001               	movlw	low(01h)
  5028  0F17  02A1               	subwf	(___awmod@counter),f
  5029  0F18  1D03               	btfss	status,2
  5030  0F19  2F1B               	goto	u1941
  5031  0F1A  2F1C               	goto	u1940
  5032  0F1B                     u1941:
  5033  0F1B  2EFF               	goto	l30001108
  5034  0F1C                     u1940:
  5035                           	
  5036  0F1C                     l30001112:	
  5037                           	line	27
  5038  0F1C  0820               	movf	(___awmod@sign),w
  5039  0F1D  1D03               	skipz
  5040  0F1E  2F20               	goto	u1950
  5041  0F1F  2F25               	goto	l30001114
  5042  0F20                     u1950:
  5043                           	
  5044  0F20                     l30001113:	
  5045                           	line	28
  5046  0F20  09A2               	comf	(___awmod@dividend),f
  5047  0F21  09A3               	comf	(___awmod@dividend+1),f
  5048  0F22  0AA2               	incf	(___awmod@dividend),f
  5049  0F23  1903               	skipnz
  5050  0F24  0AA3               	incf	(___awmod@dividend+1),f
  5051                           	
  5052  0F25                     l30001114:	
  5053                           	line	29
  5054  0F25  0823               	movf	(___awmod@dividend+1),w
  5055  0F26  01A3               	clrf	(?___awmod+1)
  5056  0F27  07A3               	addwf	(?___awmod+1)
  5057  0F28  0822               	movf	(___awmod@dividend),w
  5058  0F29  01A2               	clrf	(?___awmod)
  5059  0F2A  07A2               	addwf	(?___awmod)
  5060                           
  5061                           	
  5062  0F2B                     l253:	
  5063  0F2B  0008               	return
  5064                           	opt stack 0
  5065                           GLOBAL	__end_of___awmod
  5066  0F2C                     	__end_of___awmod:
  5067                           ; =============== function ___awmod ends ============
  5068                           
  5069                           psect	text124,local,class=CODE,delta=2
  5070                           global __ptext124
  5071  0040                     __ptext124:
  5072                           	line	30
  5073                           	signat	___awmod,8314
  5074                           	global	___awdiv
  5075                           
  5076                           ; *************** function ___awdiv *****************
  5077                           ; Defined at:
  5078                           ;		line 5 in file "C:\Program Files (x86)\HI-TECH Software\PICC\9.70\sources\awdiv.c"
  5079                           ; Parameters:    Size  Location     Type
  5080                           ;  dividend        2   10[BANK0 ] int 
  5081                           ;  divisor         2   12[BANK0 ] int 
  5082                           ; Auto vars:     Size  Location     Type
  5083                           ;  quotient        2    8[BANK0 ] int 
  5084                           ;  sign            1    7[BANK0 ] unsigned char 
  5085                           ;  counter         1    6[BANK0 ] unsigned char 
  5086                           ; Return value:  Size  Location     Type
  5087                           ;                  2   10[BANK0 ] int 
  5088                           ; Registers used:
  5089                           ;		wreg, status,2, status,0
  5090                           ; Tracked objects:
  5091                           ;		On entry : 0/0
  5092                           ;		On exit  : 0/0
  5093                           ;		Unchanged: 0/0
  5094                           ; Data sizes:     COMMON   BANK0   BANK1   BANK3   BANK2
  5095                           ;      Locals:         1       8       0       0       0
  5096                           ;      Temp:     1
  5097                           ;      Total:    9
  5098                           ; This function calls:
  5099                           ; This function is called by:
  5100                           ;		_count
  5101                           ;		_voltage
  5102                           ; This function uses a non-reentrant model
  5103                           ; 
  5104                           psect	text124
  5105                           	file	"C:\Program Files (x86)\HI-TECH Software\PICC\9.70\sources\awdiv.c"
  5106                           	line	5
  5107                           	global	__size_of___awdiv
  5108  0072                     	__size_of___awdiv	equ	__end_of___awdiv-___awdiv
  5109                           	
  5110  0040                     ___awdiv:	
  5111                           	opt stack 5
  5112                           ; Regs used in ___awdiv: [wreg+status,2+status,0]
  5113                           	line	9
  5114                           	
  5115  0040                     l30001131:	
  5116  0040  1003               	clrc
  5117  0041  3000               	movlw	0
  5118  0042  1803               	btfsc	status,0
  5119  0043  3001               	movlw	1
  5120  0044  1283               	bcf	status, 5	;RP0=0, select bank0
  5121  0045  1303               	bcf	status, 6	;RP1=0, select bank0
  5122  0046  00A7               	movwf	(___awdiv@sign)
  5123                           	
  5124  0047                     l30001132:	
  5125                           	line	10
  5126  0047  1FAD               	btfss	(___awdiv@divisor+1),7
  5127  0048  284A               	goto	u2011
  5128  0049  284B               	goto	u2010
  5129  004A                     u2011:
  5130  004A  2853               	goto	l30001134
  5131  004B                     u2010:
  5132                           	
  5133  004B                     l30001133:	
  5134                           	line	11
  5135  004B  09AC               	comf	(___awdiv@divisor),f
  5136  004C  09AD               	comf	(___awdiv@divisor+1),f
  5137  004D  0AAC               	incf	(___awdiv@divisor),f
  5138  004E  1903               	skipnz
  5139  004F  0AAD               	incf	(___awdiv@divisor+1),f
  5140                           	line	12
  5141  0050  01A7               	clrf	(___awdiv@sign)
  5142  0051  1403               	bsf	status,0
  5143  0052  0DA7               	rlf	(___awdiv@sign),f
  5144                           	
  5145  0053                     l30001134:	
  5146                           	line	14
  5147  0053  1FAB               	btfss	(___awdiv@dividend+1),7
  5148  0054  2856               	goto	u2021
  5149  0055  2857               	goto	u2020
  5150  0056                     u2021:
  5151  0056  2860               	goto	l175
  5152  0057                     u2020:
  5153                           	
  5154  0057                     l30001135:	
  5155                           	line	15
  5156  0057  09AA               	comf	(___awdiv@dividend),f
  5157  0058  09AB               	comf	(___awdiv@dividend+1),f
  5158  0059  0AAA               	incf	(___awdiv@dividend),f
  5159  005A  1903               	skipnz
  5160  005B  0AAB               	incf	(___awdiv@dividend+1),f
  5161                           	
  5162  005C                     l30001136:	
  5163                           	line	16
  5164  005C  3001               	movlw	(01h)
  5165  005D  00F1               	movwf	(??___awdiv+0+0)
  5166  005E  0871               	movf	(??___awdiv+0+0),w
  5167  005F  06A7               	xorwf	(___awdiv@sign),f
  5168                           	
  5169  0060                     l175:	
  5170                           	line	18
  5171  0060  3000               	movlw	low(0)
  5172  0061  00A8               	movwf	(___awdiv@quotient)
  5173  0062  3000               	movlw	high(0)
  5174  0063  00A9               	movwf	((___awdiv@quotient))+1
  5175                           	line	19
  5176  0064  082D               	movf	(___awdiv@divisor+1),w
  5177  0065  042C               	iorwf	(___awdiv@divisor),w
  5178  0066  1903               	skipnz
  5179  0067  2869               	goto	u2031
  5180  0068  286A               	goto	u2030
  5181  0069                     u2031:
  5182  0069  28A2               	goto	l30001146
  5183  006A                     u2030:
  5184                           	
  5185  006A                     l30001137:	
  5186                           	line	20
  5187  006A  01A6               	clrf	(___awdiv@counter)
  5188  006B  1403               	bsf	status,0
  5189  006C  0DA6               	rlf	(___awdiv@counter),f
  5190  006D  2879               	goto	l30001140
  5191                           	
  5192  006E                     l30001138:	
  5193                           	line	22
  5194  006E  3001               	movlw	01h
  5195  006F                     u2045:
  5196  006F  1003               	clrc
  5197  0070  0DAC               	rlf	(___awdiv@divisor),f
  5198  0071  0DAD               	rlf	(___awdiv@divisor+1),f
  5199  0072  3EFF               	addlw	-1
  5200  0073  1D03               	skipz
  5201  0074  286F               	goto	u2045
  5202                           	
  5203  0075                     l30001139:	
  5204                           	line	23
  5205  0075  3001               	movlw	(01h)
  5206  0076  00F1               	movwf	(??___awdiv+0+0)
  5207  0077  0871               	movf	(??___awdiv+0+0),w
  5208  0078  07A6               	addwf	(___awdiv@counter),f
  5209                           	
  5210  0079                     l30001140:	
  5211                           	line	21
  5212  0079  1FAD               	btfss	(___awdiv@divisor+1),(15)&7
  5213  007A  287C               	goto	u2051
  5214  007B  287D               	goto	u2050
  5215  007C                     u2051:
  5216  007C  286E               	goto	l30001138
  5217  007D                     u2050:
  5218                           	
  5219  007D                     l30001141:	
  5220                           	line	26
  5221  007D  3001               	movlw	01h
  5222  007E                     u2065:
  5223  007E  1003               	clrc
  5224  007F  0DA8               	rlf	(___awdiv@quotient),f
  5225  0080  0DA9               	rlf	(___awdiv@quotient+1),f
  5226  0081  3EFF               	addlw	-1
  5227  0082  1D03               	skipz
  5228  0083  287E               	goto	u2065
  5229                           	line	27
  5230  0084  082D               	movf	(___awdiv@divisor+1),w
  5231  0085  022B               	subwf	(___awdiv@dividend+1),w
  5232  0086  1D03               	skipz
  5233  0087  288A               	goto	u2075
  5234  0088  082C               	movf	(___awdiv@divisor),w
  5235  0089  022A               	subwf	(___awdiv@dividend),w
  5236  008A                     u2075:
  5237  008A  1C03               	skipc
  5238  008B  288D               	goto	u2071
  5239  008C  288E               	goto	u2070
  5240  008D                     u2071:
  5241  008D  2895               	goto	l30001144
  5242  008E                     u2070:
  5243                           	
  5244  008E                     l30001142:	
  5245                           	line	28
  5246  008E  082C               	movf	(___awdiv@divisor),w
  5247  008F  02AA               	subwf	(___awdiv@dividend),f
  5248  0090  082D               	movf	(___awdiv@divisor+1),w
  5249  0091  1C03               	skipc
  5250  0092  03AB               	decf	(___awdiv@dividend+1),f
  5251  0093  02AB               	subwf	(___awdiv@dividend+1),f
  5252                           	
  5253  0094                     l30001143:	
  5254                           	line	29
  5255  0094  1428               	bsf	(___awdiv@quotient)+(0/8),(0)&7
  5256                           	
  5257  0095                     l30001144:	
  5258                           	line	31
  5259  0095  3001               	movlw	01h
  5260  0096                     u2085:
  5261  0096  1003               	clrc
  5262  0097  0CAD               	rrf	(___awdiv@divisor+1),f
  5263  0098  0CAC               	rrf	(___awdiv@divisor),f
  5264  0099  3EFF               	addlw	-1
  5265  009A  1D03               	skipz
  5266  009B  2896               	goto	u2085
  5267                           	
  5268  009C                     l30001145:	
  5269                           	line	32
  5270  009C  3001               	movlw	low(01h)
  5271  009D  02A6               	subwf	(___awdiv@counter),f
  5272  009E  1D03               	btfss	status,2
  5273  009F  28A1               	goto	u2091
  5274  00A0  28A2               	goto	u2090
  5275  00A1                     u2091:
  5276  00A1  287D               	goto	l30001141
  5277  00A2                     u2090:
  5278                           	
  5279  00A2                     l30001146:	
  5280                           	line	34
  5281  00A2  0827               	movf	(___awdiv@sign),w
  5282  00A3  1D03               	skipz
  5283  00A4  28A6               	goto	u2100
  5284  00A5  28AB               	goto	l30001148
  5285  00A6                     u2100:
  5286                           	
  5287  00A6                     l30001147:	
  5288                           	line	35
  5289  00A6  09A8               	comf	(___awdiv@quotient),f
  5290  00A7  09A9               	comf	(___awdiv@quotient+1),f
  5291  00A8  0AA8               	incf	(___awdiv@quotient),f
  5292  00A9  1903               	skipnz
  5293  00AA  0AA9               	incf	(___awdiv@quotient+1),f
  5294                           	
  5295  00AB                     l30001148:	
  5296                           	line	36
  5297  00AB  0829               	movf	(___awdiv@quotient+1),w
  5298  00AC  01AB               	clrf	(?___awdiv+1)
  5299  00AD  07AB               	addwf	(?___awdiv+1)
  5300  00AE  0828               	movf	(___awdiv@quotient),w
  5301  00AF  01AA               	clrf	(?___awdiv)
  5302  00B0  07AA               	addwf	(?___awdiv)
  5303                           
  5304                           	
  5305  00B1                     l173:	
  5306  00B1  0008               	return
  5307                           	opt stack 0
  5308                           GLOBAL	__end_of___awdiv
  5309  00B2                     	__end_of___awdiv:
  5310                           ; =============== function ___awdiv ends ============
  5311                           
  5312                           psect	text125,local,class=CODE,delta=2
  5313                           global __ptext125
  5314  0EB1                     __ptext125:
  5315                           	line	37
  5316                           	signat	___awdiv,8314
  5317                           	global	_pulse
  5318                           
  5319                           ; *************** function _pulse *****************
  5320                           ; Defined at:
  5321                           ;		line 16 in file "C:\Users\gowth\Documents\PIC Programs\ADC\Vref 2.5\Vref 2.50.c"
  5322                           ; Parameters:    Size  Location     Type
  5323                           ;		None
  5324                           ; Auto vars:     Size  Location     Type
  5325                           ;		None
  5326                           ; Return value:  Size  Location     Type
  5327                           ;		None               void
  5328                           ; Registers used:
  5329                           ;		wreg, status,2, status,0, pclath, cstack
  5330                           ; Tracked objects:
  5331                           ;		On entry : 0/0
  5332                           ;		On exit  : 0/0
  5333                           ;		Unchanged: 0/0
  5334                           ; Data sizes:     COMMON   BANK0   BANK1   BANK3   BANK2
  5335                           ;      Locals:         0       0       0       0       0
  5336                           ;      Temp:     0
  5337                           ;      Total:    0
  5338                           ; This function calls:
  5339                           ;		_delay
  5340                           ; This function is called by:
  5341                           ;		_command
  5342                           ;		_data
  5343                           ; This function uses a non-reentrant model
  5344                           ; 
  5345                           psect	text125
  5346                           	file	"C:\Users\gowth\Documents\PIC Programs\ADC\Vref 2.5\Vref 2.50.c"
  5347                           	line	16
  5348                           	global	__size_of_pulse
  5349  0019                     	__size_of_pulse	equ	__end_of_pulse-_pulse
  5350                           ;Vref 2.50.c: 15: void pulse()
  5351                           ;Vref 2.50.c: 16: {
  5352                           	
  5353  0EB1                     _pulse:	
  5354                           	opt stack 4
  5355                           ; Regs used in _pulse: [wreg+status,2+status,0+pclath+cstack]
  5356                           	line	17
  5357                           	
  5358  0EB1                     l30001156:	
  5359                           ;Vref 2.50.c: 17: RE1=1;
  5360  0EB1  1283               	bcf	status, 5	;RP0=0, select bank0
  5361  0EB2  1303               	bcf	status, 6	;RP1=0, select bank0
  5362  0EB3  1489               	bsf	(73/8),(73)&7
  5363                           	
  5364  0EB4                     l30001157:	
  5365                           	line	18
  5366                           ;Vref 2.50.c: 18: delay(1000);
  5367  0EB4  30E8               	movlw	low(03E8h)
  5368  0EB5  00F0               	movwf	(?_delay)
  5369  0EB6  3003               	movlw	high(03E8h)
  5370  0EB7  00F1               	movwf	((?_delay))+1
  5371  0EB8  120A  158A  26A0   	fcall	_delay
              120A  158A         
  5372                           	
  5373  0EBD                     l30001158:	
  5374                           	line	19
  5375                           ;Vref 2.50.c: 19: RE1=0;
  5376  0EBD  1283               	bcf	status, 5	;RP0=0, select bank0
  5377  0EBE  1303               	bcf	status, 6	;RP1=0, select bank0
  5378  0EBF  1089               	bcf	(73/8),(73)&7
  5379                           	line	20
  5380                           ;Vref 2.50.c: 20: delay(1000);
  5381  0EC0  30E8               	movlw	low(03E8h)
  5382  0EC1  00F0               	movwf	(?_delay)
  5383  0EC2  3003               	movlw	high(03E8h)
  5384  0EC3  00F1               	movwf	((?_delay))+1
  5385  0EC4  120A  158A  26A0   	fcall	_delay
              120A  158A         
  5386                           	
  5387  0EC9                     l5:	
  5388  0EC9  0008               	return
  5389                           	opt stack 0
  5390                           GLOBAL	__end_of_pulse
  5391  0ECA                     	__end_of_pulse:
  5392                           ; =============== function _pulse ends ============
  5393                           
  5394                           psect	text126,local,class=CODE,delta=2
  5395                           global __ptext126
  5396  0EA0                     __ptext126:
  5397                           	line	21
  5398                           	signat	_pulse,88
  5399                           	global	_delay
  5400                           
  5401                           ; *************** function _delay *****************
  5402                           ; Defined at:
  5403                           ;		line 11 in file "C:\Users\gowth\Documents\PIC Programs\ADC\Vref 2.5\Vref 2.50.c"
  5404                           ; Parameters:    Size  Location     Type
  5405                           ;  x               2    0[COMMON] int 
  5406                           ; Auto vars:     Size  Location     Type
  5407                           ;		None
  5408                           ; Return value:  Size  Location     Type
  5409                           ;		None               void
  5410                           ; Registers used:
  5411                           ;		wreg
  5412                           ; Tracked objects:
  5413                           ;		On entry : 0/0
  5414                           ;		On exit  : 0/0
  5415                           ;		Unchanged: 0/0
  5416                           ; Data sizes:     COMMON   BANK0   BANK1   BANK3   BANK2
  5417                           ;      Locals:         2       0       0       0       0
  5418                           ;      Temp:     0
  5419                           ;      Total:    2
  5420                           ; This function calls:
  5421                           ;		Nothing
  5422                           ; This function is called by:
  5423                           ;		_pulse
  5424                           ; This function uses a non-reentrant model
  5425                           ; 
  5426                           psect	text126
  5427                           	file	"C:\Users\gowth\Documents\PIC Programs\ADC\Vref 2.5\Vref 2.50.c"
  5428                           	line	11
  5429                           	global	__size_of_delay
  5430  0011                     	__size_of_delay	equ	__end_of_delay-_delay
  5431                           ;pic16f887.h: 19: volatile unsigned char INDF @ 0x000;
  5432                           ;pic16f887.h: 20: volatile unsigned char TMR0 @ 0x001;
  5433                           ;pic16f887.h: 21: volatile unsigned char PCL @ 0x002;
  5434                           ;pic16f887.h: 22: volatile unsigned char STATUS @ 0x003;
  5435                           ;pic16f887.h: 23: unsigned char FSR @ 0x004;
  5436                           ;pic16f887.h: 24: volatile unsigned char PORTA @ 0x005;
  5437                           ;pic16f887.h: 25: volatile unsigned char PORTB @ 0x006;
  5438                           ;pic16f887.h: 26: volatile unsigned char PORTC @ 0x007;
  5439                           ;pic16f887.h: 28: volatile unsigned char PORTD @ 0x008;
  5440                           ;pic16f887.h: 30: volatile unsigned char PORTE @ 0x009;
  5441                           	
  5442  0EA0                     _delay:	
  5443                           	opt stack 3
  5444                           ; Regs used in _delay: [wreg]
  5445                           	
  5446  0EA0                     l30001159:	
  5447                           	
  5448  0EA0                     l30001160:	
  5449                           	line	12
  5450  0EA0  30FF               	movlw	low(-1)
  5451  0EA1  07F0               	addwf	(delay@x),f
  5452  0EA2  1803               	skipnc
  5453  0EA3  0AF1               	incf	(delay@x+1),f
  5454  0EA4  30FF               	movlw	high(-1)
  5455  0EA5  07F1               	addwf	(delay@x+1),f
  5456  0EA6  30FF               	movlw	high(-1)
  5457  0EA7  0671               	xorwf	((delay@x+1))&07fh,w
  5458  0EA8  1D03               	skipz
  5459  0EA9  2EAC               	goto	u2115
  5460  0EAA  30FF               	movlw	low(-1)
  5461  0EAB  0670               	xorwf	((delay@x))&07fh,w
  5462  0EAC                     u2115:
  5463                           
  5464  0EAC  1D03               	skipz
  5465  0EAD  2EAF               	goto	u2111
  5466  0EAE  2EB0               	goto	u2110
  5467  0EAF                     u2111:
  5468  0EAF  2EA0               	goto	l30001160
  5469  0EB0                     u2110:
  5470                           	
  5471  0EB0                     l1:	
  5472  0EB0  0008               	return
  5473                           	opt stack 0
  5474                           GLOBAL	__end_of_delay
  5475  0EB1                     	__end_of_delay:
  5476                           ; =============== function _delay ends ============
  5477                           
  5478                           psect	text127,local,class=CODE,delta=2
  5479                           global __ptext127
  5480  0003                     __ptext127:


HI-TECH Software PICC Macro Assembler V9.70 build 5239 
Symbol Table                                                                                   Thu Apr 06 14:42:35 2023

     ___awdiv@dividend 002A                      l1 0EB0                      l5 0EC9                      l6 0E9F  
                    l7 0010                      l8 02F0                      l9 023F         __size_of_delay 0011  
                   l10 01BD                     _DA 04A5                     _BF 04A0                     _DC 0019  
                   l17 07FF                     l70 04E0                     l66 05D3                     l69 04DB  
                   l78 0551                     l95 03AB                     _DV 0075                     _PD 001B  
       __size_of_count 00B1                     _RD 0C60                     _UA 04A1                     _TO 001C  
                   _RW 04A2                     _WR 0C61        __size_of___ftge 0069         __size_of_pulse 0019  
          __pbssCOMMON 0075                    l102 0487                    _C1R 083A                    _C2R 0842  
                  l217 0F94                    l155 01B4                    l171 003F                    l173 00B1  
                  l253 0F2B                    l175 0060                    l370 012D                    l194 0E89  
                  l363 00F5                    l358 012D                    l368 010A                    l369 0114  
                  _CKE 04A6               ___awtoft 0011                    _CKP 00A4                    _GIE 005F  
                  _BOR 0470                    _RA0 0028               ___ftpack 00B2                    _RA1 0029  
                  _RB0 0030                    _RA2 002A                    _RB1 0031                    _RA3 002B  
                  _RC0 0038                    _RB2 0032                    _RA4 002C                    _RC1 0039  
                  _RB3 0033                    _RA5 002D                    _RD0 0040                    _RC2 003A  
                  _RB4 0034                    _RA6 002E                    _RD1 0041                    _RC3 003B  
                  _RB5 0035                    _RA7 002F                    _RE0 0048                    _RD2 0042  
                  _RC4 003C                    _RB6 0036                    _RE1 0049                    _RD3 0043  
                  _RC5 003D                    _RB7 0037                    _RE2 004A                    _RD4 0044  
                  _RC6 003E                    _RE3 004B                    _RD5 0045                    _RC7 003F  
                  _RD6 0046                    _RD7 0047                    _FSR 0004                    _PCL 0002  
                  _PS0 0408                    _PR2 0092                    _PS1 0409                    _PS2 040A  
                  _PEN 048A                    _RP0 001D                    _IRP 001F                    _RP1 001E  
                  _HTS 047A                    _SR0 0C2E                    _SR1 0C2F                    _SEN 0488  
                  _SCS 0478                    _PSA 040B                    _LTS 0479                    _VR0 04B8  
                  _VR1 04B9                    _VR2 04BA                    _VR3 04BB                    _POR 0471  
                  _RX9 00C6                    _SMP 04A7                    _TX9 04C6                    _WUE 0C39  
                  _VRR 04BD                    _adc 01B5              ?___awtoft 0026              ?___ftpack 0020  
                  _low 005A       __size_of___awdiv 0072       __size_of___ftadd 014C       __size_of___awmod 0062  
     __size_of___ftdiv 00BB       __size_of___ftneg 000A       __size_of___ftmul 00DC       __size_of___fttol 0087  
           ??___awtoft 0073             ??___ftpack 0070                ??_delay 0070                ??_count 0072  
                 ?_adc 0075                   _C1IE 046D                   _C1IF 006D                   _C2IE 046E  
                 _C2IF 006E                   _C1OE 083D                   _C2OE 0845                   _C1ON 083F  
                 _C2ON 0847                   _ADIE 0466                   _ADIF 0066                   _ADFM 04FF  
     __size_of_command 000C                   _ADON 00F8                   _P1M0 00BE                   _CHS0 00FA  
                 _P1M1 00BF                   _CHS1 00FB                   _CHS2 00FC                   _CHS3 00FD  
                 _EEIE 046C                   _EEIF 006C                   _ANS0 0C40                   _BRG0 04C8  
                 _ANS1 0C41                   _BRG1 04C9                   _ANS2 0C42                   _BRG2 04CA  
                 _ANS3 0C43                   _BRG3 04CB                   _ANS4 0C44                   _BRG4 04CC  
                 _ANS5 0C45                   _BRG5 04CD                   _ANS6 0C46                   _GCEN 048F  
                 _BRG6 04CE                   _ANS7 0C47                   _BRG7 04CF                   _ANS8 0C48  
                 _BRG8 04D0                   _ANS9 0C49                   _BRG9 04D1                   _BRGH 04C2  
                 _T0IE 005D                   _T0IF 005A                   _CREN 00C4                   _T0CS 040D  
                 _FERR 00C2                   u1100 0345                   u1120 0376                   u2000 022A  
                 u1201 0F73                   u1121 0375                   u1105 0341                   u2001 0229  
                 u2010 004B                   u1202 0F74                   u2011 004A                   u1203 0F79  
                 u1115 0361                   u2100 00A6                   u2020 0057                   u1300 04DF  
                 u1204 0F7A                   u1140 038F                   u2021 0056                   u1301 04DE  
                 u1141 038E                   u1125 0372                   u2110 0EB0                   u2030 006A  
                 u1310 04F4                   u1230 04A2                   u1070 0302                   _PDC0 04D8  
                 u2111 0EAF                   u2031 0069                   u1311 04F3                   u1215 0F8E  
                 u1135 0382                   u1071 0301                   _PDC1 04D9                   u1400 053E  
                 u1240 04A8                   u2120 0E87                   u1080 0318                   _PDC2 04DA  
                 u1401 053D                   u1241 04A7                   u2121 0E86                   u1081 0317  
                 _PDC3 04DB                   u2050 007D                   u1330 0504                   u1250 04B2  
                 u1170 0F32                   u1090 0335                   u2210 043F                   u2130 03BD  
                 _PDC4 04DC                   u2115 0EAC                   u2051 007C                   u1331 0503  
                 u1251 04B1                   u1227 0F91                   u1171 0F31                   u2211 043E  
                 u2131 03BC                   _T0SE 040C                   _PDC5 04DD                   _CSRC 04C7  
                 u1500 013F                   u1420 0551                   u1340 050C                   u1260 04BD  
                 u1228 0F93                   u2220 0445                   u2140 03D3                   _PDC6 04DE  
                 _IOCB 0096                   u2045 006F                   u1501 013E                   u1421 0550  
                 u1341 050B                   u1325 04F5                   u1229 0F94                   u1181 0F4A  
                 u2221 0444                   u2205 0432                   u2141 03D2                   u2070 008E  
                 u1510 0153                   u1430 0555                   u1270 04C3                   u1190 0F5B  
                 u1182 0F4B                   u2150 03EA                   _INDF 0000                   u2071 008D  
                 u1431 0554                   u1415 0540                   u1271 04C2                   u1191 0F5A  
                 u1183 0F50                   u1095 0331                   u2231 044E                   u1600 00B8  
                 u1520 016C                   u1360 051F                   u1280 04CD                   u1184 0F51  
                 u2232 0455                   u2160 03FA                   u2065 007E                   u1521 016B  
                 u1441 0564                   u1361 051E                   u1281 04CC                   u2090 00A2  
                 u1610 00BF                   u1530 0173                   u1450 056F                   u1442 056B  
                 u1370 0526                   u1290 04DA                   u2170 0419                ??_pulse 0070  
                 u2091 00A1                   u2075 008A                   u1611 00BE                   u1531 0172  
                 u1515 014F                   u1451 056E                   u1371 0525                   u1355 050E  
                 u1291 04D9                   u2171 0418                   u2155 03E6                   u1700 011F  
                 u2260 046B                   u2085 0096                   u1461 057E                   u2261 046A  
                 u2245 0456                   u2181 0422                   u2165 03F6                   u1710 012C  
                 u1630 00D8                   u1550 0185                   u1462 0585                   u1390 0536  
                 u2182 0429                   u2270 062D                   u1631 00D7                   u1551 0184  
                 u1471 0593                   u1391 0535                   u2255 045E                   u2271 062C  
                 u1560 018C                   u1480 059E                   u1472 059A                   u2280 071B  
                 u1705 011B                   u1641 00E6                   u1625 00CB                   u1561 018B  
                 u1545 0175                   u1481 059D                   u1385 0527                   u2281 071A  
                 u1642 00ED                   u1491 05AD                   u2195 042A                   u1660 00FB  
                 u1580 019D                   u1492 05B4                   u1661 00FA                   u1581 019C  
                 u1910 0EFF                   u1590 01A1                   u1911 0EFE                   u1655 00EE  
                 u1575 018F                   _PIE1 008C                   u1920 0F09                   u1680 010A  
                 _PIE2 008D                   u1921 0F08                   u1905 0EF1                   u1681 0109  
                 u1690 010E                   u1691 010D                   u1675 00FF                   u1940 0F1C  
                 u1860 001C                   u1941 0F1B                   u1925 0F05                   u1861 001B  
                 u1950 0F20                   u1870 0ED5                   u1935 0F10                   u1871 0ED4  
                 u1880 0EE1                   u1960 01C2                   u1881 0EE0                   u1961 01C1  
                 u1890 0EEC                   u1970 01DA                   u1891 0EEB                   u1971 01D9  
                 _PEIE 005E                   u1980 01F2                   u1981 01F1                   _INTE 005C  
                 u1990 020E                   _INTF 0059                   u1991 020D                   _RBIE 005B  
                 _RBIF 0058                   _RCIE 0465                   _RCEN 048B                   _RCIF 0065  
                 _PCON 008E                   _PIR1 000C                   _PIR2 000D                   _OERR 00C1  
     ___awdiv@quotient 0028                   _SCKP 0C3C                   _RBPU 040F                   _RX9D 00C0  
                 _TMR0 0001                   _TMR2 0011                   _WCOL 00A7                   _SPEN 00C7  
                 _RSEN 0489                   _TX9D 04C0                   _SREN 00C5                   _OSTS 047B  
                 _TUN0 0480                   _TUN1 0481                   _TUN2 0482                   _TUN3 0483  
                 _TUN4 0484                   _STRA 04E8                   _STRB 04E9                   _STRC 04EA  
                 _VREN 04BF                   _STRD 04EB                   _TRMT 04C1                   _STOP 04A4  
                 _TXIE 0464                   _ZERO 001A                   _WREN 0C62                   _TXEN 04C5  
                 _TXIF 0064                   _VROE 04BE                   _SYNC 04C4                   _WPUB 0095  
                 _VRSS 04BC           ___awdiv@sign 0027                   _data 0005               data@data 0072  
                 _high 0077                   _main 0F95           ___ftadd@exp1 002A           ___ftadd@exp2 0029  
                 start 0000           ___ftadd@sign 0028      __size_of___awtoft 002F      __size_of___ftpack 007C  
     __size_of_voltage 022C    start_initialization 0E8A           ___awmod@sign 0020                ?___ftge 0026  
             ??___ftge 0020                  ??_adc 0073        __end_of___awdiv 00B2        __end_of___ftadd 05D4  
      __end_of___awmod 0F2C        __end_of___ftdiv 03AC        __end_of___ftneg 0E8A        __end_of___ftmul 0488  
      __end_of___fttol 01B5             ___ftadd@f1 002B             ___ftadd@f2 002E           ___ftdiv@cntr 003D  
              _CM1CON0 0107                _CM2CON0 0108                _CCP1CON 0017                _CM2CON1 0109  
              _CCP2CON 001D             ___ftge@ff1 0026             ___ftge@ff2 0029           ___ftdiv@sign 0042  
              _ACKSTAT 048E                _BAUDCTL 0187                _ECCPAS0 04E4                _ECCPAS1 04E5  
              _ECCPAS2 04E6                _ECCPASE 04E7                  _C1CH0 0838                  _C1CH1 0839  
                _C2CH0 0840                  _C2CH1 0841                  _DC1B0 00BC             ___ftdiv@f1 0043  
                _DC1B1 00BD             ___ftdiv@f2 0046             ___ftdiv@f3 003E                  _C1SEN 0C2D  
                ?_data 0073                  _C2REN 0C2C                  _C1POL 083C                  _C2POL 0844  
                _C1OUT 083E                  _C2OUT 0846                  _ABDEN 0C38                  _ADCS0 00FE  
                _ADCS1 00FF                  _ADDEN 00C3                  ?_main 005A                  _ACKEN 048C  
            __ptext110 01B5                  _ACKDT 048D              __ptext111 05D4              __ptext120 00B2  
            __ptext112 03AC              __ptext121 0005              __ptext113 02F1              __ptext122 0E94  
            __ptext114 0011              __ptext123 0ECA              __ptext115 0E80              __ptext124 0040  
            __ptext116 0F2C              __ptext125 0EB1              __ptext117 0488              __ptext109 0003  
            __ptext126 0EA0              __ptext118 0240              __ptext127 0003              __ptext119 012E  
                _BCLIE 046B                  _BCLIF 006B                  _CCP2X 00ED                  _CCP2Y 00EC  
                _EEADR 010D             ___ftneg@f1 0070                  _ANS10 0C4A                  _EEDAT 010C  
                _BRG10 04D2                  _ANS11 0C4B                  _BRG11 04D3                  _ANS12 0C4C  
                _BRG12 04D4                  _ANS13 0C4D                  _BRG13 04D5                  _BRG14 04D6  
                _BRG15 04D7                  _BRG16 0C3B          __end_of_delay 0EB1                  _CARRY 0018  
                _EEPGD 0C67                  _ANSEL 0188             ___awtoft@c 0026  ___ftmul@f3_as_product 002E  
                _T1CON 0010                  _IOCB0 04B0                  _T2CON 0012                  _IOCB1 04B1  
                _IOCB2 04B2                  _IOCB3 04B3                  _IOCB4 04B4                  _IOCB5 04B5  
                _IOCB6 04B6                  _IOCB7 04B7                  _T1GSS 0849                _T1CKPS0 0084  
              _T1CKPS1 0085                  _IRCF0 047C          __end_of_count 02F1                  _IRCF1 047D  
                _IRCF2 047E                _T2CKPS0 0090                _T2CKPS1 0091                  _RABIE 005B  
                _RABIF 0058                  _RABPU 040F        __end_of_command 0EA0                  _RCIDL 0C3E  
                _FVREN 0C28                  _VCFG0 04FC                  _VCFG1 04FD                  _RCREG 001A  
                _SENDB 04C3             ___ftmul@f1 0033             ___ftmul@f2 0036                  _RCSTA 0018  
                _OSFIE 046F                  _OSFIF 006F           ___ftpack@arg 0020                  _TMR1H 000F  
                _TMR1L 000E                  _SPBRG 0099                  _PORTA 0005                  _PORTB 0006  
              _T1OSCEN 0083                  _PORTC 0007                  _PORTD 0008                  _PORTE 0009  
         ___ftpack@exp 0023                  _PRSEN 04DF                  _SRCON 0185          __end_of_pulse 0ECA  
                _START 04A3                  _PULSR 0C2A                  _PULSS 0C2B                  _SSPM0 00A0  
                _SSPM1 00A1                  _SSPM2 00A2                  _SSPM3 00A3                  _TRISA 0085  
                _TRISB 0086                  _TRISC 0087                  _TRISD 0088                  _SSPIE 0463  
                _TRISE 0089                  _SSPIF 0063                  _SSPEN 00A5             ___fttol@f1 0042  
                _VRCON 0097                  _WPUB0 04A8                  _WPUB1 04A9                  _WPUB2 04AA  
                _WPUB3 04AB                  _WPUB4 04AC                  _SSPOV 00A6                  _WPUB5 04AD  
                _WPUB6 04AE                  _WPUB7 04AF                  _WRERR 0C63                  _TXREG 0019  
                _TXSTA 0098         __pcstackCOMMON 0070                _OSCTUNE 0090                _PWM1CON 009B  
                _delay 0EA0                  _count 0240           ___ftmul@cntr 0031           ___ftmul@sign 0032  
              _PSTRCON 009D                _SSPCON2 0091                  _pulse 0EB1                _ULPWUIE 046A  
              _ULPWUIF 006A                _SSPSTAT 0094                _TOUTPS0 0093                _TOUTPS1 0094  
              _TOUTPS2 0095                _TOUTPS3 0096        __end_of_voltage 0800                _STRSYNC 04EC  
         ___fttol@exp1 0041           ___fttol@lval 003D                  status 0003        ___awdiv@divisor 002C  
        __size_of_data 000C          __size_of_main 006B             __pbssBANK0 005A               l30001000 04BD  
             l30001001 04C3               l30001010 04F4               l30001002 04CD               l30001011 04FE  
             l30001100 0ED5               l30001020 054B               l30001012 0504               l30001004 04D4  
             l30001101 0EDD               l30001021 0555               l30001013 050D               l30001005 04D6  
             l30001110 0F0F               l30001102 0EE1               l30001022 056B               l30001014 0519  
             l30001006 04DA               l30001111 0F16               l30001103 0EE6               l30001031 012E  
             l30001023 056F               l30001015 0520               l30001007 04DF               l30001104 0EEC  
             l30001112 0F1C               l30001040 016C               l30001032 013F               l30001024 0585  
             l30001016 0526               l30001008 04E1               l30001200 0431               l30001120 01DA  
             l30001113 0F20               l30001105 0EF0               l30001025 058A               l30001017 0530  
             l30001009 04E7               l30001201 0439               l30001121 01E0               l30001114 0F25  
             l30001106 0EF7               l30001050 01A1               l30001034 0148               l30001026 059A  
             l30001018 0536               l30001202 043F               l30001210 05D4               l30001130 0234  
             l30001122 01EB               l30001131 0040               l30001107 0EFB               l30001051 01AC  
             l30001043 0174               l30001035 0158               l30001027 059E               l30001019 053F  
             l30001203 0441               l30001211 062D               l30001123 01F2               l30001140 0079  
             l30001132 0047               l30001108 0EFF               l30001060 00DD               l30001044 0186  
             l30001036 0159               l30001116 0240               l30001028 05B4               l30001204 0445  
             l30001220 06E6               l30001212 0635               l30001124 01FC               l30001141 007D  
             l30001133 004B               l30001109 0F09               l30001061 00ED               l30001053 00B2  
             l30001037 015F               l30001029 05B7               l30001205 0455               l30001221 06EF  
             l30001213 064F               l30001125 0207               l30001117 01B5        ___awdiv@counter 0026  
             l30001142 008E               l30001134 0053               l30001150 0E95               l30001062 00FC  
             l30001054 00B8               l30001038 0166               l30001206 045D               l30001230 07B4  
             l30001222 06F8               l30001214 0677               l30001126 020E               l30001118 01C2  
             l30001143 0094               l30001135 0057               l30001151 0E98               l30001063 0106  
             l30001055 00BF               l30001047 018D               l30001039 0168               l30001207 0465  
             l30001231 07CC               l30001223 06FE               l30001215 068F               l30001127 0218  
             l30001119 01D4               l30001160 0EA0               l30001144 0095               l30001136 005C  
             l30001152 0E9A               l30001064 010E               l30001048 0198               l30001208 046B  
             l30001232 07D2               l30001216 06B9               l30001224 0704               l30001128 0223  
             l30001240 0FA0               l30001145 009C               l30001137 006A               l30001153 0006  
             l30001065 0116               l30001057 00C6               l30001049 019D               l30001161 0E80  
             l30001233 07DB               l30001225 071B               l30001217 06D1               l30001129 022A  
             l30001241 0FA7               l30001138 006E               l30001146 00A2               l30001154 0009  
             l30001066 0128               l30001058 00D2               l30001162 0E87               l30001234 07E1  
             l30001226 0723               l30001218 06D7               l30001250 0FE6               l30001242 0FAE  
             l30001147 00A6               l30001139 0075               l30001155 000B               l30001067 012C  
             l30001059 00D9               l30001163 0E89               l30001235 07EA               l30001227 074A  
             l30001219 06E0               l30001251 0FEC               l30001243 0FB5               l30001156 0EB1  
             l30001148 00AB               l30001236 07F3               l30001228 0772               l30001252 0FF2  
             l30001244 0FBC               l30001157 0EB4               l30001093 0011               l30001237 07F9  
             l30001229 078A               l30001253 0FF7               l30001245 0FC3               l30001158 0EBD  
             l30001094 0018               l30001246 0FCF               l30001238 0F95               l30001159 0EA0  
             l30001095 001C               l30001191 03DA               l30001247 0FD4               l30001239 0F99  
             l30001096 0024               l30001192 0405               l30001248 0FDA               l30001193 0406  
             l30001185 03AC               l30001249 0FE0               l30001098 0ECA               l30001194 0407  
             l30001186 03BD               l30001099 0ED1               l30001195 040D               l30001196 0413  
             l30001188 03C4               l30001197 0415               l30001189 03D3               l30001198 0419  
             l30001199 0429               l30000920 0302               l30000930 0350               l30000922 0309  
             l30000931 0357               l30000923 0318               l30000932 0360               l30000933 0368  
             l30000925 031F               l30000934 0376               l30000926 0325               l30000935 0380  
             l30000927 032A               l30000919 02F1               l30000936 0381               l30000928 033A  
             l30000937 0389               l30000929 034C               l30000938 038F               l30000990 0F80  
             l30000991 0F82               l30000993 0488               l30000994 049E               l30000986 0F2C  
             l30000995 04A2               l30000987 0F32               l30000996 04A8               l30000988 0F57  
             l30000997 04B2               l30000989 0F5B               l30000999 04B9                ___awdiv 0040  
              ___ftadd 0488                ___awmod 0ECA                ___ftdiv 02F1                ___ftneg 0E80  
              ___ftmul 03AC                ___fttol 012E               ?___awdiv 002A               ?___ftadd 002B  
             ?___awmod 0022               ?___ftdiv 0043               ?___ftneg 0070               ?___ftmul 0033  
             ?___fttol 0042              ??___awdiv 0071              ??___ftadd 0025              ??___awmod 0070  
            ??___ftdiv 0039              ??___ftneg 0070              ??___ftmul 0029              ??___fttol 0039  
               ??_data 0070                 ??_main 0075       __end_of___awtoft 0040            command@data 0072  
     __end_of___ftpack 012E                _command 0E94               ?_command 0073             __pmaintext 0F95  
            ??_command 0070               voltage@a 0051               voltage@b 0053               voltage@c 004F  
             voltage@d 0058               voltage@m 004C               voltage@n 0049               voltage@z 0055  
               _C1RSEL 084D                 _C2RSEL 084C                 ?_delay 0070         __end_of___ftge 0F95  
               _C2SYNC 0848                 _ADCON0 001F                 _ADCON1 009F                 _ABDOVF 0C3F  
          ___ftdiv@exp 0041                 _CCP1M0 00B8                 _CCP1M1 00B9                 _CCP1M2 00BA  
               _CCP1M3 00BB                 _CCP2M0 00E8                 _CCP2M1 00E9                 _CCP2M2 00EA  
               _CCP2M3 00EB                 _CCP1IE 0462                 ?_count 0036                 _CCP1IF 0062  
               _CCP2IE 0468                 _CCP2IF 0068                 _ADRESH 001E                 _EEADRH 010F  
               _ADRESL 009E                 _EEADRL 010D                 _EEDATA 010C                 _ECCPAS 009C  
               _CCPR1H 0016                 _EEDATH 010E                 _CCPR2H 001C                 _CCPR1L 0015  
               _CCPR2L 001B                 _EECON1 018C                 _EECON2 018D           __end_of_data 0011  
               ?_pulse 0072                 _ANSELH 0189                 _MC1OUT 084F                 _MC2OUT 084E  
         __end_of_main 1000                _voltage 05D4                 _T1GINV 0087                 _GODONE 00F9  
 end_of_initialization 0E90               ?_voltage 005A                 _T1SYNC 0082                 _INTEDG 040E  
               _PCLATH 000A                 _INTCON 000B          __pcstackBANK0 0020          ___awtoft@sign 0025  
               _SBOREN 0474                 _OSCCON 008F              ??_voltage 0075                 _TMR1GE 0086  
               _TMR1IE 0460                 _TMR1IF 0060                 _TMR1CS 0081                 _TMR2IE 0461  
               _TMR2IF 0061                 _PSSAC0 04E2                 _PSSAC1 04E3                 _PSSBD0 04E0  
               _PSSBD1 04E1                 _SPBRGH 009A                 _OPTION 0081                 _TMR1ON 0080  
               _TMR2ON 0092                 _WDTCON 0105            ___ftmul@exp 002D                 _WDTPS0 0829  
               _WDTPS1 082A                 _WDTPS2 082B                 _WDTPS3 082C                 _SSPADD 0093  
               _TRISA0 0428                 _TRISA1 0429                 _TRISB0 0430                 _TRISA2 042A  
               _TRISB1 0431                 _TRISA3 042B                 _TRISC0 0438                 _TRISB2 0432  
               _TRISA4 042C                 _TRISC1 0439                 _TRISB3 0433                 _TRISA5 042D  
               _TRISD0 0440                 _TRISC2 043A                 _TRISB4 0434                 _TRISA6 042E  
               _TRISD1 0441                 _TRISC3 043B                 _TRISB5 0435                 _TRISA7 042F  
               _TRISE0 0448                 _TRISD2 0442                 _TRISC4 043C                 _TRISB6 0436  
               _TRISE1 0449                 _TRISD3 0443                 _TRISC5 043D                 _TRISB7 0437  
               _TRISE2 044A                 _TRISD4 0444                 _TRISC6 043E                 _TRISE3 044B  
               _TRISD5 0445                 _TRISC7 043F                 _TRISD6 0446                 _TRISD7 0447  
               _STATUS 0003          ___ftpack@sign 0024                 _SSPCON 0014                 _SSPBUF 0013  
               _SWDTEN 0828                 _ULPWUE 0475                 _SSPMSK 0093           __size_of_adc 008B  
               ___ftge 0F2C                 delay@x 0070            __end_of_adc 0240                 count@a 0032  
               count@c 0034                 count@e 002E                 count@f 0030                 count@i 0036  
        ___fttol@sign1 003C       ___awmod@dividend 0022        ___awmod@divisor 0024        ___awmod@counter 0021  
