opt subtitle "HI-TECH Software Omniscient Code Generator (Lite mode) build 5239"

opt pagewidth 120

	opt lm

	processor	16F887
clrc	macro
	bcf	3,0
	endm
clrz	macro
	bcf	3,2
	endm
setc	macro
	bsf	3,0
	endm
setz	macro
	bsf	3,2
	endm
skipc	macro
	btfss	3,0
	endm
skipz	macro
	btfss	3,2
	endm
skipnc	macro
	btfsc	3,0
	endm
skipnz	macro
	btfsc	3,2
	endm
indf	equ	0
indf0	equ	0
pc	equ	2
pcl	equ	2
status	equ	3
fsr	equ	4
fsr0	equ	4
c	equ	1
z	equ	0
pclath	equ	10
;COMMON:	_main->_delay
	FNCALL	_main,_delay
	FNROOT	_main
	FNCALL	_intr,i1_delay
	FNCALL	intlevel1,_intr
	global	intlevel1
	FNROOT	intlevel1
	global	_number
psect	idataBANK0,class=CODE,space=0,delta=2
global __pidataBANK0
__pidataBANK0:
	file	"C:\Users\gowth\Documents\PIC Programs\Interrupt\Interrupt Base 3\Interrupt Base 3.c"
	line	8

;initializer for _number
	retlw	03Fh
	retlw	06h
	retlw	05Bh
	retlw	04Fh
	retlw	066h
	retlw	06Dh
	retlw	07Dh
	retlw	07h
	retlw	07Fh
	retlw	067h
	global	_j
	global	_x
	global	_count
psect	nvBANK0,class=BANK0,space=1
global __pnvBANK0
__pnvBANK0:
_count:
       ds      2

	global	_i
psect	nvCOMMON,class=COMMON,space=1
global __pnvCOMMON
__pnvCOMMON:
_i:
       ds      2

	global	_ADCON0
_ADCON0  equ     31
	global	_ADRESH
_ADRESH  equ     30
	global	_CCP1CON
_CCP1CON  equ     23
	global	_CCP2CON
_CCP2CON  equ     29
	global	_CCPR1H
_CCPR1H  equ     22
	global	_CCPR1L
_CCPR1L  equ     21
	global	_CCPR2H
_CCPR2H  equ     28
	global	_CCPR2L
_CCPR2L  equ     27
	global	_FSR
_FSR  equ     4
	global	_INDF
_INDF  equ     0
	global	_INTCON
_INTCON  equ     11
	global	_PCL
_PCL  equ     2
	global	_PCLATH
_PCLATH  equ     10
	global	_PIR1
_PIR1  equ     12
	global	_PIR2
_PIR2  equ     13
	global	_PORTA
_PORTA  equ     5
	global	_PORTB
_PORTB  equ     6
	global	_PORTC
_PORTC  equ     7
	global	_PORTD
_PORTD  equ     8
	global	_PORTE
_PORTE  equ     9
	global	_RCREG
_RCREG  equ     26
	global	_RCSTA
_RCSTA  equ     24
	global	_SSPBUF
_SSPBUF  equ     19
	global	_SSPCON
_SSPCON  equ     20
	global	_STATUS
_STATUS  equ     3
	global	_T1CON
_T1CON  equ     16
	global	_T2CON
_T2CON  equ     18
	global	_TMR0
_TMR0  equ     1
	global	_TMR1H
_TMR1H  equ     15
	global	_TMR1L
_TMR1L  equ     14
	global	_TMR2
_TMR2  equ     17
	global	_TXREG
_TXREG  equ     25
	global	_ADCS0
_ADCS0  equ     254
	global	_ADCS1
_ADCS1  equ     255
	global	_ADDEN
_ADDEN  equ     195
	global	_ADIF
_ADIF  equ     102
	global	_ADON
_ADON  equ     248
	global	_BCLIF
_BCLIF  equ     107
	global	_C1IF
_C1IF  equ     109
	global	_C2IF
_C2IF  equ     110
	global	_CARRY
_CARRY  equ     24
	global	_CCP1IF
_CCP1IF  equ     98
	global	_CCP1M0
_CCP1M0  equ     184
	global	_CCP1M1
_CCP1M1  equ     185
	global	_CCP1M2
_CCP1M2  equ     186
	global	_CCP1M3
_CCP1M3  equ     187
	global	_CCP2IF
_CCP2IF  equ     104
	global	_CCP2M0
_CCP2M0  equ     232
	global	_CCP2M1
_CCP2M1  equ     233
	global	_CCP2M2
_CCP2M2  equ     234
	global	_CCP2M3
_CCP2M3  equ     235
	global	_CCP2X
_CCP2X  equ     237
	global	_CCP2Y
_CCP2Y  equ     236
	global	_CHS0
_CHS0  equ     250
	global	_CHS1
_CHS1  equ     251
	global	_CHS2
_CHS2  equ     252
	global	_CHS3
_CHS3  equ     253
	global	_CKP
_CKP  equ     164
	global	_CREN
_CREN  equ     196
	global	_DC
_DC  equ     25
	global	_DC1B0
_DC1B0  equ     188
	global	_DC1B1
_DC1B1  equ     189
	global	_EEIF
_EEIF  equ     108
	global	_FERR
_FERR  equ     194
	global	_GIE
_GIE  equ     95
	global	_GODONE
_GODONE  equ     249
	global	_INTE
_INTE  equ     92
	global	_INTF
_INTF  equ     89
	global	_IRP
_IRP  equ     31
	global	_OERR
_OERR  equ     193
	global	_OSFIF
_OSFIF  equ     111
	global	_P1M0
_P1M0  equ     190
	global	_P1M1
_P1M1  equ     191
	global	_PD
_PD  equ     27
	global	_PEIE
_PEIE  equ     94
	global	_RA0
_RA0  equ     40
	global	_RA1
_RA1  equ     41
	global	_RA2
_RA2  equ     42
	global	_RA3
_RA3  equ     43
	global	_RA4
_RA4  equ     44
	global	_RA5
_RA5  equ     45
	global	_RA6
_RA6  equ     46
	global	_RA7
_RA7  equ     47
	global	_RABIE
_RABIE  equ     91
	global	_RABIF
_RABIF  equ     88
	global	_RB0
_RB0  equ     48
	global	_RB1
_RB1  equ     49
	global	_RB2
_RB2  equ     50
	global	_RB3
_RB3  equ     51
	global	_RB4
_RB4  equ     52
	global	_RB5
_RB5  equ     53
	global	_RB6
_RB6  equ     54
	global	_RB7
_RB7  equ     55
	global	_RBIE
_RBIE  equ     91
	global	_RBIF
_RBIF  equ     88
	global	_RC0
_RC0  equ     56
	global	_RC1
_RC1  equ     57
	global	_RC2
_RC2  equ     58
	global	_RC3
_RC3  equ     59
	global	_RC4
_RC4  equ     60
	global	_RC5
_RC5  equ     61
	global	_RC6
_RC6  equ     62
	global	_RC7
_RC7  equ     63
	global	_RCIF
_RCIF  equ     101
	global	_RD0
_RD0  equ     64
	global	_RD1
_RD1  equ     65
	global	_RD2
_RD2  equ     66
	global	_RD3
_RD3  equ     67
	global	_RD4
_RD4  equ     68
	global	_RD5
_RD5  equ     69
	global	_RD6
_RD6  equ     70
	global	_RD7
_RD7  equ     71
	global	_RE0
_RE0  equ     72
	global	_RE1
_RE1  equ     73
	global	_RE2
_RE2  equ     74
	global	_RE3
_RE3  equ     75
	global	_RP0
_RP0  equ     29
	global	_RP1
_RP1  equ     30
	global	_RX9
_RX9  equ     198
	global	_RX9D
_RX9D  equ     192
	global	_SPEN
_SPEN  equ     199
	global	_SREN
_SREN  equ     197
	global	_SSPEN
_SSPEN  equ     165
	global	_SSPIF
_SSPIF  equ     99
	global	_SSPM0
_SSPM0  equ     160
	global	_SSPM1
_SSPM1  equ     161
	global	_SSPM2
_SSPM2  equ     162
	global	_SSPM3
_SSPM3  equ     163
	global	_SSPOV
_SSPOV  equ     166
	global	_T0IE
_T0IE  equ     93
	global	_T0IF
_T0IF  equ     90
	global	_T1CKPS0
_T1CKPS0  equ     132
	global	_T1CKPS1
_T1CKPS1  equ     133
	global	_T1GINV
_T1GINV  equ     135
	global	_T1OSCEN
_T1OSCEN  equ     131
	global	_T1SYNC
_T1SYNC  equ     130
	global	_T2CKPS0
_T2CKPS0  equ     144
	global	_T2CKPS1
_T2CKPS1  equ     145
	global	_TMR1CS
_TMR1CS  equ     129
	global	_TMR1GE
_TMR1GE  equ     134
	global	_TMR1IF
_TMR1IF  equ     96
	global	_TMR1ON
_TMR1ON  equ     128
	global	_TMR2IF
_TMR2IF  equ     97
	global	_TMR2ON
_TMR2ON  equ     146
	global	_TO
_TO  equ     28
	global	_TOUTPS0
_TOUTPS0  equ     147
	global	_TOUTPS1
_TOUTPS1  equ     148
	global	_TOUTPS2
_TOUTPS2  equ     149
	global	_TOUTPS3
_TOUTPS3  equ     150
	global	_TXIF
_TXIF  equ     100
	global	_ULPWUIF
_ULPWUIF  equ     106
	global	_WCOL
_WCOL  equ     167
	global	_ZERO
_ZERO  equ     26
	global	_ADCON1
_ADCON1  equ     159
	global	_ADRESL
_ADRESL  equ     158
	global	_ECCPAS
_ECCPAS  equ     156
	global	_IOCB
_IOCB  equ     150
	global	_OPTION
_OPTION  equ     129
	global	_OSCCON
_OSCCON  equ     143
	global	_OSCTUNE
_OSCTUNE  equ     144
	global	_PCON
_PCON  equ     142
	global	_PIE1
_PIE1  equ     140
	global	_PIE2
_PIE2  equ     141
	global	_PR2
_PR2  equ     146
	global	_PSTRCON
_PSTRCON  equ     157
	global	_PWM1CON
_PWM1CON  equ     155
	global	_SPBRG
_SPBRG  equ     153
	global	_SPBRGH
_SPBRGH  equ     154
	global	_SSPADD
_SSPADD  equ     147
	global	_SSPCON2
_SSPCON2  equ     145
	global	_SSPMSK
_SSPMSK  equ     147
	global	_SSPSTAT
_SSPSTAT  equ     148
	global	_TRISA
_TRISA  equ     133
	global	_TRISB
_TRISB  equ     134
	global	_TRISC
_TRISC  equ     135
	global	_TRISD
_TRISD  equ     136
	global	_TRISE
_TRISE  equ     137
	global	_TXSTA
_TXSTA  equ     152
	global	_VRCON
_VRCON  equ     151
	global	_WPUB
_WPUB  equ     149
	global	_ACKDT
_ACKDT  equ     1165
	global	_ACKEN
_ACKEN  equ     1164
	global	_ACKSTAT
_ACKSTAT  equ     1166
	global	_ADFM
_ADFM  equ     1279
	global	_ADIE
_ADIE  equ     1126
	global	_BCLIE
_BCLIE  equ     1131
	global	_BF
_BF  equ     1184
	global	_BOR
_BOR  equ     1136
	global	_BRG0
_BRG0  equ     1224
	global	_BRG1
_BRG1  equ     1225
	global	_BRG10
_BRG10  equ     1234
	global	_BRG11
_BRG11  equ     1235
	global	_BRG12
_BRG12  equ     1236
	global	_BRG13
_BRG13  equ     1237
	global	_BRG14
_BRG14  equ     1238
	global	_BRG15
_BRG15  equ     1239
	global	_BRG2
_BRG2  equ     1226
	global	_BRG3
_BRG3  equ     1227
	global	_BRG4
_BRG4  equ     1228
	global	_BRG5
_BRG5  equ     1229
	global	_BRG6
_BRG6  equ     1230
	global	_BRG7
_BRG7  equ     1231
	global	_BRG8
_BRG8  equ     1232
	global	_BRG9
_BRG9  equ     1233
	global	_BRGH
_BRGH  equ     1218
	global	_C1IE
_C1IE  equ     1133
	global	_C2IE
_C2IE  equ     1134
	global	_CCP1IE
_CCP1IE  equ     1122
	global	_CCP2IE
_CCP2IE  equ     1128
	global	_CKE
_CKE  equ     1190
	global	_CSRC
_CSRC  equ     1223
	global	_DA
_DA  equ     1189
	global	_ECCPAS0
_ECCPAS0  equ     1252
	global	_ECCPAS1
_ECCPAS1  equ     1253
	global	_ECCPAS2
_ECCPAS2  equ     1254
	global	_ECCPASE
_ECCPASE  equ     1255
	global	_EEIE
_EEIE  equ     1132
	global	_GCEN
_GCEN  equ     1167
	global	_HTS
_HTS  equ     1146
	global	_INTEDG
_INTEDG  equ     1038
	global	_IOCB0
_IOCB0  equ     1200
	global	_IOCB1
_IOCB1  equ     1201
	global	_IOCB2
_IOCB2  equ     1202
	global	_IOCB3
_IOCB3  equ     1203
	global	_IOCB4
_IOCB4  equ     1204
	global	_IOCB5
_IOCB5  equ     1205
	global	_IOCB6
_IOCB6  equ     1206
	global	_IOCB7
_IOCB7  equ     1207
	global	_IRCF0
_IRCF0  equ     1148
	global	_IRCF1
_IRCF1  equ     1149
	global	_IRCF2
_IRCF2  equ     1150
	global	_LTS
_LTS  equ     1145
	global	_OSFIE
_OSFIE  equ     1135
	global	_OSTS
_OSTS  equ     1147
	global	_PDC0
_PDC0  equ     1240
	global	_PDC1
_PDC1  equ     1241
	global	_PDC2
_PDC2  equ     1242
	global	_PDC3
_PDC3  equ     1243
	global	_PDC4
_PDC4  equ     1244
	global	_PDC5
_PDC5  equ     1245
	global	_PDC6
_PDC6  equ     1246
	global	_PEN
_PEN  equ     1162
	global	_POR
_POR  equ     1137
	global	_PRSEN
_PRSEN  equ     1247
	global	_PS0
_PS0  equ     1032
	global	_PS1
_PS1  equ     1033
	global	_PS2
_PS2  equ     1034
	global	_PSA
_PSA  equ     1035
	global	_PSSAC0
_PSSAC0  equ     1250
	global	_PSSAC1
_PSSAC1  equ     1251
	global	_PSSBD0
_PSSBD0  equ     1248
	global	_PSSBD1
_PSSBD1  equ     1249
	global	_RABPU
_RABPU  equ     1039
	global	_RBPU
_RBPU  equ     1039
	global	_RCEN
_RCEN  equ     1163
	global	_RCIE
_RCIE  equ     1125
	global	_RSEN
_RSEN  equ     1161
	global	_RW
_RW  equ     1186
	global	_SBOREN
_SBOREN  equ     1140
	global	_SCS
_SCS  equ     1144
	global	_SEN
_SEN  equ     1160
	global	_SENDB
_SENDB  equ     1219
	global	_SMP
_SMP  equ     1191
	global	_SSPIE
_SSPIE  equ     1123
	global	_START
_START  equ     1187
	global	_STOP
_STOP  equ     1188
	global	_STRA
_STRA  equ     1256
	global	_STRB
_STRB  equ     1257
	global	_STRC
_STRC  equ     1258
	global	_STRD
_STRD  equ     1259
	global	_STRSYNC
_STRSYNC  equ     1260
	global	_SYNC
_SYNC  equ     1220
	global	_T0CS
_T0CS  equ     1037
	global	_T0SE
_T0SE  equ     1036
	global	_TMR1IE
_TMR1IE  equ     1120
	global	_TMR2IE
_TMR2IE  equ     1121
	global	_TRISA0
_TRISA0  equ     1064
	global	_TRISA1
_TRISA1  equ     1065
	global	_TRISA2
_TRISA2  equ     1066
	global	_TRISA3
_TRISA3  equ     1067
	global	_TRISA4
_TRISA4  equ     1068
	global	_TRISA5
_TRISA5  equ     1069
	global	_TRISA6
_TRISA6  equ     1070
	global	_TRISA7
_TRISA7  equ     1071
	global	_TRISB0
_TRISB0  equ     1072
	global	_TRISB1
_TRISB1  equ     1073
	global	_TRISB2
_TRISB2  equ     1074
	global	_TRISB3
_TRISB3  equ     1075
	global	_TRISB4
_TRISB4  equ     1076
	global	_TRISB5
_TRISB5  equ     1077
	global	_TRISB6
_TRISB6  equ     1078
	global	_TRISB7
_TRISB7  equ     1079
	global	_TRISC0
_TRISC0  equ     1080
	global	_TRISC1
_TRISC1  equ     1081
	global	_TRISC2
_TRISC2  equ     1082
	global	_TRISC3
_TRISC3  equ     1083
	global	_TRISC4
_TRISC4  equ     1084
	global	_TRISC5
_TRISC5  equ     1085
	global	_TRISC6
_TRISC6  equ     1086
	global	_TRISC7
_TRISC7  equ     1087
	global	_TRISD0
_TRISD0  equ     1088
	global	_TRISD1
_TRISD1  equ     1089
	global	_TRISD2
_TRISD2  equ     1090
	global	_TRISD3
_TRISD3  equ     1091
	global	_TRISD4
_TRISD4  equ     1092
	global	_TRISD5
_TRISD5  equ     1093
	global	_TRISD6
_TRISD6  equ     1094
	global	_TRISD7
_TRISD7  equ     1095
	global	_TRISE0
_TRISE0  equ     1096
	global	_TRISE1
_TRISE1  equ     1097
	global	_TRISE2
_TRISE2  equ     1098
	global	_TRISE3
_TRISE3  equ     1099
	global	_TRMT
_TRMT  equ     1217
	global	_TUN0
_TUN0  equ     1152
	global	_TUN1
_TUN1  equ     1153
	global	_TUN2
_TUN2  equ     1154
	global	_TUN3
_TUN3  equ     1155
	global	_TUN4
_TUN4  equ     1156
	global	_TX9
_TX9  equ     1222
	global	_TX9D
_TX9D  equ     1216
	global	_TXEN
_TXEN  equ     1221
	global	_TXIE
_TXIE  equ     1124
	global	_UA
_UA  equ     1185
	global	_ULPWUE
_ULPWUE  equ     1141
	global	_ULPWUIE
_ULPWUIE  equ     1130
	global	_VCFG0
_VCFG0  equ     1276
	global	_VCFG1
_VCFG1  equ     1277
	global	_VR0
_VR0  equ     1208
	global	_VR1
_VR1  equ     1209
	global	_VR2
_VR2  equ     1210
	global	_VR3
_VR3  equ     1211
	global	_VREN
_VREN  equ     1215
	global	_VROE
_VROE  equ     1214
	global	_VRR
_VRR  equ     1213
	global	_VRSS
_VRSS  equ     1212
	global	_WPUB0
_WPUB0  equ     1192
	global	_WPUB1
_WPUB1  equ     1193
	global	_WPUB2
_WPUB2  equ     1194
	global	_WPUB3
_WPUB3  equ     1195
	global	_WPUB4
_WPUB4  equ     1196
	global	_WPUB5
_WPUB5  equ     1197
	global	_WPUB6
_WPUB6  equ     1198
	global	_WPUB7
_WPUB7  equ     1199
	global	_CM1CON0
_CM1CON0  equ     263
	global	_CM2CON0
_CM2CON0  equ     264
	global	_CM2CON1
_CM2CON1  equ     265
	global	_EEADR
_EEADR  equ     269
	global	_EEADRH
_EEADRH  equ     271
	global	_EEADRL
_EEADRL  equ     269
	global	_EEDAT
_EEDAT  equ     268
	global	_EEDATA
_EEDATA  equ     268
	global	_EEDATH
_EEDATH  equ     270
	global	_WDTCON
_WDTCON  equ     261
	global	_C1CH0
_C1CH0  equ     2104
	global	_C1CH1
_C1CH1  equ     2105
	global	_C1OE
_C1OE  equ     2109
	global	_C1ON
_C1ON  equ     2111
	global	_C1OUT
_C1OUT  equ     2110
	global	_C1POL
_C1POL  equ     2108
	global	_C1R
_C1R  equ     2106
	global	_C1RSEL
_C1RSEL  equ     2125
	global	_C2CH0
_C2CH0  equ     2112
	global	_C2CH1
_C2CH1  equ     2113
	global	_C2OE
_C2OE  equ     2117
	global	_C2ON
_C2ON  equ     2119
	global	_C2OUT
_C2OUT  equ     2118
	global	_C2POL
_C2POL  equ     2116
	global	_C2R
_C2R  equ     2114
	global	_C2RSEL
_C2RSEL  equ     2124
	global	_C2SYNC
_C2SYNC  equ     2120
	global	_MC1OUT
_MC1OUT  equ     2127
	global	_MC2OUT
_MC2OUT  equ     2126
	global	_SWDTEN
_SWDTEN  equ     2088
	global	_T1GSS
_T1GSS  equ     2121
	global	_WDTPS0
_WDTPS0  equ     2089
	global	_WDTPS1
_WDTPS1  equ     2090
	global	_WDTPS2
_WDTPS2  equ     2091
	global	_WDTPS3
_WDTPS3  equ     2092
	global	_ANSEL
_ANSEL  equ     392
	global	_ANSELH
_ANSELH  equ     393
	global	_BAUDCTL
_BAUDCTL  equ     391
	global	_EECON1
_EECON1  equ     396
	global	_EECON2
_EECON2  equ     397
	global	_SRCON
_SRCON  equ     389
	global	_ABDEN
_ABDEN  equ     3128
	global	_ABDOVF
_ABDOVF  equ     3135
	global	_ANS0
_ANS0  equ     3136
	global	_ANS1
_ANS1  equ     3137
	global	_ANS10
_ANS10  equ     3146
	global	_ANS11
_ANS11  equ     3147
	global	_ANS12
_ANS12  equ     3148
	global	_ANS13
_ANS13  equ     3149
	global	_ANS2
_ANS2  equ     3138
	global	_ANS3
_ANS3  equ     3139
	global	_ANS4
_ANS4  equ     3140
	global	_ANS5
_ANS5  equ     3141
	global	_ANS6
_ANS6  equ     3142
	global	_ANS7
_ANS7  equ     3143
	global	_ANS8
_ANS8  equ     3144
	global	_ANS9
_ANS9  equ     3145
	global	_BRG16
_BRG16  equ     3131
	global	_C1SEN
_C1SEN  equ     3117
	global	_C2REN
_C2REN  equ     3116
	global	_EEPGD
_EEPGD  equ     3175
	global	_FVREN
_FVREN  equ     3112
	global	_PULSR
_PULSR  equ     3114
	global	_PULSS
_PULSS  equ     3115
	global	_RCIDL
_RCIDL  equ     3134
	global	_RD
_RD  equ     3168
	global	_SCKP
_SCKP  equ     3132
	global	_SR0
_SR0  equ     3118
	global	_SR1
_SR1  equ     3119
	global	_WR
_WR  equ     3169
	global	_WREN
_WREN  equ     3170
	global	_WRERR
_WRERR  equ     3171
	global	_WUE
_WUE  equ     3129
	file	"Interrupt Base 3.as"
	line	#
psect cinit,class=CODE,delta=2
global start_initialization
start_initialization:

psect	bssCOMMON,class=COMMON,space=1
global __pbssCOMMON
__pbssCOMMON:
_j:
       ds      2

_x:
       ds      2

psect	dataBANK0,class=BANK0,space=1
global __pdataBANK0
__pdataBANK0:
	file	"C:\Users\gowth\Documents\PIC Programs\Interrupt\Interrupt Base 3\Interrupt Base 3.c"
	line	8
_number:
       ds      10

; Clear objects allocated to COMMON
psect cinit,class=CODE,delta=2
	clrf	((__pbssCOMMON)+0)&07Fh
	clrf	((__pbssCOMMON)+1)&07Fh
	clrf	((__pbssCOMMON)+2)&07Fh
	clrf	((__pbssCOMMON)+3)&07Fh
global btemp
psect inittext,class=CODE,delta=2
global init_fetch,btemp
;	Called with low address in FSR and high address in W
init_fetch:
	movf btemp,w
	movwf pclath
	movf btemp+1,w
	movwf pc
global init_ram
;Called with:
;	high address of idata address in btemp 
;	low address of idata address in btemp+1 
;	low address of data in FSR
;	high address + 1 of data in btemp-1
init_ram:
	fcall init_fetch
	movwf indf,f
	incf fsr,f
	movf fsr,w
	xorwf btemp-1,w
	btfsc status,2
	retlw 0
	incf btemp+1,f
	btfsc status,2
	incf btemp,f
	goto init_ram
; Initialize objects allocated to BANK0
psect cinit,class=CODE,delta=2
global init_ram, __pidataBANK0
	bcf	status, 7	;select IRP bank0
	movlw low(__pdataBANK0+10)
	movwf btemp-1,f
	movlw high(__pidataBANK0)
	movwf btemp,f
	movlw low(__pidataBANK0)
	movwf btemp+1,f
	movlw low(__pdataBANK0)
	movwf fsr,f
	fcall init_ram
psect cinit,class=CODE,delta=2
global end_of_initialization

;End of C runtime variable initationation code

end_of_initialization:
clrf status
ljmp _main	;jump to C main() function
psect	cstackCOMMON,class=COMMON,space=1
global __pcstackCOMMON
__pcstackCOMMON:
	global	?_delay
?_delay: ;@ 0x0
	global	??_delay
??_delay: ;@ 0x0
	ds	2
	global	??_main
??_main: ;@ 0x2
	ds	1
	global	??i1_delay
??i1_delay: ;@ 0x3
	global	?_intr
?_intr: ;@ 0x3
	global	?_main
?_main: ;@ 0x3
psect	cstackBANK0,class=BANK0,space=1
global __pcstackBANK0
__pcstackBANK0:
	global	?i1_delay
?i1_delay: ;@ 0x0
	ds	2
	global	??_intr
??_intr: ;@ 0x2
	ds	4
;Data sizes: Strings 0, constant 0, data 10, bss 4, persistent 4 stack 0
;Auto spaces:   Size  Autos    Used
; COMMON          14      3       9
; BANK0           80      6      18
; BANK1           80      0       0
; BANK3           96      0       0
; BANK2           96      0       0


;Pointer list with targets:



;Main: autosize = 0, tempsize = 1, incstack = 0, save=0


;Call graph:                      Base Space Used Autos Args Refs Density
;_main                                                1    0    0   0.00
;                                    2 COMMO    1
;              _delay
;  _delay                                             0    2    0   0.00
;                                    0 COMMO    2
; Estimated maximum call depth 1
;_intr                                                4    0    0   0.00
;                                    2 BANK0    4
;            i1_delay
;  i1_delay                                           0    2    0   0.00
;                                    0 BANK0    2
; Estimated maximum call depth 1
; Address spaces:

;Name               Size   Autos  Total    Cost      Usage
;BITCOMMON            E      0       0       0        0.0%
;CODE                 0      0       0       0        0.0%
;NULL                 0      0       0       0        0.0%
;COMMON               E      3       9       1       64.3%
;SFR0                 0      0       0       1        0.0%
;BITSFR0              0      0       0       1        0.0%
;BITSFR1              0      0       0       2        0.0%
;SFR1                 0      0       0       2        0.0%
;ABS                  0      0      1B       2        0.0%
;STACK                0      0       0       3        0.0%
;BITBANK0            50      0       0       4        0.0%
;SFR3                 0      0       0       4        0.0%
;BITSFR3              0      0       0       4        0.0%
;BANK0               50      6      12       5       22.5%
;BITSFR2              0      0       0       5        0.0%
;SFR2                 0      0       0       5        0.0%
;BITBANK1            50      0       0       6        0.0%
;BANK1               50      0       0       7        0.0%
;BITBANK3            60      0       0       8        0.0%
;BANK3               60      0       0       9        0.0%
;BITBANK2            60      0       0      10        0.0%
;BANK2               60      0       0      11        0.0%
;DATA                 0      0      1B      12        0.0%
;EEDATA             100      0       0    1000        0.0%

	global	_main
psect	maintext,local,class=CODE,delta=2
global __pmaintext
__pmaintext:

; *************** function _main *****************
; Defined at:
;		line 31 in file "C:\Users\gowth\Documents\PIC Programs\Interrupt\Interrupt Base 3\Interrupt Base 3.c"
; Parameters:    Size  Location     Type
;		None
; Auto vars:     Size  Location     Type
;		None
; Return value:  Size  Location     Type
;		None               void
; Registers used:
;		wreg, fsr0l, fsr0h, status,2, status,0, pclath, cstack
; Tracked objects:
;		On entry : 17F/0
;		On exit  : 0/0
;		Unchanged: 0/0
; Data sizes:     COMMON   BANK0   BANK1   BANK3   BANK2
;      Locals:         1       0       0       0       0
;      Temp:     1
;      Total:    1
; This function calls:
;		_delay
; This function is called by:
;		Startup code after reset
; This function uses a non-reentrant model
; 
psect	maintext
	file	"C:\Users\gowth\Documents\PIC Programs\Interrupt\Interrupt Base 3\Interrupt Base 3.c"
	line	31
	global	__size_of_main
	__size_of_main	equ	__end_of_main-_main
;Interrupt Base 3.c: 30: void main()
;Interrupt Base 3.c: 31: {
	
_main:	
	opt stack 6
; Regs used in _main: [wreg-fsr0h+status,2+status,0+pclath+cstack]
	line	32
	
l30000551:	
;Interrupt Base 3.c: 32: TRISB=0X01; PORTB=0X00; ANSEL=0;
	movlw	(01h)
	bsf	status, 5	;RP0=1, select bank1
	bcf	status, 6	;RP1=0, select bank1
	movwf	(134)^080h	;volatile
	
l30000552:	
	clrc
	movlw	0
	btfsc	status,0
	movlw	1
	bcf	status, 5	;RP0=0, select bank0
	bcf	status, 6	;RP1=0, select bank0
	movwf	(6)	;volatile
	
l30000553:	
	clrc
	movlw	0
	btfsc	status,0
	movlw	1
	bsf	status, 5	;RP0=1, select bank3
	bsf	status, 6	;RP1=1, select bank3
	movwf	(392)^0180h
	
l30000554:	
	line	33
;Interrupt Base 3.c: 33: TRISD=0X00; PORTD=0X00; ANSELH=0;
	clrc
	movlw	0
	btfsc	status,0
	movlw	1
	bsf	status, 5	;RP0=1, select bank1
	bcf	status, 6	;RP1=0, select bank1
	movwf	(136)^080h	;volatile
	
l30000555:	
	clrc
	movlw	0
	btfsc	status,0
	movlw	1
	bcf	status, 5	;RP0=0, select bank0
	bcf	status, 6	;RP1=0, select bank0
	movwf	(8)	;volatile
	
l30000556:	
	clrc
	movlw	0
	btfsc	status,0
	movlw	1
	bsf	status, 5	;RP0=1, select bank3
	bsf	status, 6	;RP1=1, select bank3
	movwf	(393)^0180h
	
l30000557:	
	line	34
;Interrupt Base 3.c: 34: TRISC=0X00; PORTC=0X00;
	clrc
	movlw	0
	btfsc	status,0
	movlw	1
	bsf	status, 5	;RP0=1, select bank1
	bcf	status, 6	;RP1=0, select bank1
	movwf	(135)^080h	;volatile
	
l30000558:	
	clrc
	movlw	0
	btfsc	status,0
	movlw	1
	bcf	status, 5	;RP0=0, select bank0
	bcf	status, 6	;RP1=0, select bank0
	movwf	(7)	;volatile
	
l30000559:	
	line	35
;Interrupt Base 3.c: 35: TRISA=0X00; PORTA=0X00;
	clrc
	movlw	0
	btfsc	status,0
	movlw	1
	bsf	status, 5	;RP0=1, select bank1
	bcf	status, 6	;RP1=0, select bank1
	movwf	(133)^080h	;volatile
	
l30000560:	
	clrc
	movlw	0
	btfsc	status,0
	movlw	1
	bcf	status, 5	;RP0=0, select bank0
	bcf	status, 6	;RP1=0, select bank0
	movwf	(5)	;volatile
	
l30000561:	
	line	37
;Interrupt Base 3.c: 37: GIE=1;
	bsf	(95/8),(95)&7
	
l30000562:	
	line	38
;Interrupt Base 3.c: 38: PEIE=1;
	bsf	(94/8),(94)&7
	
l30000563:	
	line	39
;Interrupt Base 3.c: 39: INTE=1;
	bsf	(92/8),(92)&7
	
l30000564:	
	line	44
;Interrupt Base 3.c: 43: {
;Interrupt Base 3.c: 44: count=0;
	movlw	low(0)
	bcf	status, 5	;RP0=0, select bank0
	bcf	status, 6	;RP1=0, select bank0
	movwf	(_count)
	movlw	high(0)
	movwf	((_count))+1
	
l30000565:	
	line	45
;Interrupt Base 3.c: 45: for(i=0;i<10;i++)
	movlw	low(0)
	movwf	(_i)
	movlw	high(0)
	movwf	((_i))+1
	
l30000568:	
	line	47
;Interrupt Base 3.c: 46: {
;Interrupt Base 3.c: 47: PORTC=number[i];
	movf	(_i),w
	addlw	(_number)&0ffh
	movwf	fsr0
	bcf	status, 7	;select IRP bank0
	movf	indf,w
	bcf	status, 5	;RP0=0, select bank0
	bcf	status, 6	;RP1=0, select bank0
	movwf	(7)	;volatile
	
l30000569:	
	line	48
;Interrupt Base 3.c: 48: delay(10000);
	movlw	low(02710h)
	movwf	(?_delay)
	movlw	high(02710h)
	movwf	((?_delay))+1
	fcall	_delay
	
l30000570:	
	line	49
;Interrupt Base 3.c: 49: count++;
	movlw	low(01h)
	bcf	status, 5	;RP0=0, select bank0
	bcf	status, 6	;RP1=0, select bank0
	addwf	(_count),f
	skipnc
	incf	(_count+1),f
	movlw	high(01h)
	addwf	(_count+1),f
	
l30000571:	
	line	45
	movlw	low(01h)
	addwf	(_i),f
	skipnc
	incf	(_i+1),f
	movlw	high(01h)
	addwf	(_i+1),f
	
l30000572:	
	movf	(_i+1),w
	xorlw	80h
	movwf	(??_main+0+0)
	movlw	(high(0Ah))^80h
	subwf	(??_main+0+0),w
	skipz
	goto	u95
	movlw	low(0Ah)
	subwf	(_i),w
u95:

	skipc
	goto	u91
	goto	u90
u91:
	goto	l30000568
u90:
	goto	l30000564
	global	start
	ljmp	start
	opt stack 0
GLOBAL	__end_of_main
	__end_of_main:
; =============== function _main ends ============

psect	maintext
	line	53
	signat	_main,88
	global	_delay
psect	text30,local,class=CODE,delta=2
global __ptext30
__ptext30:

; *************** function _delay *****************
; Defined at:
;		line 11 in file "C:\Users\gowth\Documents\PIC Programs\Interrupt\Interrupt Base 3\Interrupt Base 3.c"
; Parameters:    Size  Location     Type
;		None
; Auto vars:     Size  Location     Type
;		None
; Return value:  Size  Location     Type
;		None               void
; Registers used:
;		wreg
; Tracked objects:
;		On entry : 0/0
;		On exit  : 0/0
;		Unchanged: 0/0
; Data sizes:     COMMON   BANK0   BANK1   BANK3   BANK2
;      Locals:         2       0       0       0       0
;      Temp:     0
;      Total:    2
; This function calls:
;		Nothing
; This function is called by:
;		_main
; This function uses a non-reentrant model
; 
psect	text30
	file	"C:\Users\gowth\Documents\PIC Programs\Interrupt\Interrupt Base 3\Interrupt Base 3.c"
	line	11
	global	__size_of_delay
	__size_of_delay	equ	__end_of_delay-_delay
;pic16f887.h: 19: volatile unsigned char INDF @ 0x000;
;pic16f887.h: 20: volatile unsigned char TMR0 @ 0x001;
;pic16f887.h: 21: volatile unsigned char PCL @ 0x002;
;pic16f887.h: 22: volatile unsigned char STATUS @ 0x003;
;pic16f887.h: 23: unsigned char FSR @ 0x004;
;pic16f887.h: 24: volatile unsigned char PORTA @ 0x005;
;pic16f887.h: 25: volatile unsigned char PORTB @ 0x006;
;pic16f887.h: 26: volatile unsigned char PORTC @ 0x007;
;pic16f887.h: 28: volatile unsigned char PORTD @ 0x008;
;pic16f887.h: 30: volatile unsigned char PORTE @ 0x009;
	
_delay:	
	opt stack 5
; Regs used in _delay: [wreg]
	
l30000573:	
	
l30000574:	
	line	12
	movlw	low(-1)
	addwf	(_x),f
	skipnc
	incf	(_x+1),f
	movlw	high(-1)
	addwf	(_x+1),f
	movlw	high(-1)
	xorwf	((_x+1))&07fh,w
	skipz
	goto	u105
	movlw	low(-1)
	xorwf	((_x))&07fh,w
u105:

	skipz
	goto	u101
	goto	u100
u101:
	goto	l30000574
u100:
	
l1:	
	return
	opt stack 0
GLOBAL	__end_of_delay
	__end_of_delay:
; =============== function _delay ends ============

psect	text31,local,class=CODE,delta=2
global __ptext31
__ptext31:
	line	13
	signat	_delay,88
	global	_intr

; *************** function _intr *****************
; Defined at:
;		line 17 in file "C:\Users\gowth\Documents\PIC Programs\Interrupt\Interrupt Base 3\Interrupt Base 3.c"
; Parameters:    Size  Location     Type
;		None
; Auto vars:     Size  Location     Type
;		None
; Return value:  Size  Location     Type
;		None               void
; Registers used:
;		wreg, fsr0l, fsr0h, status,2, status,0, pclath, cstack
; Tracked objects:
;		On entry : 0/0
;		On exit  : 0/0
;		Unchanged: 0/0
; Data sizes:     COMMON   BANK0   BANK1   BANK3   BANK2
;      Locals:         0       4       0       0       0
;      Temp:     4
;      Total:    4
; This function calls:
;		i1_delay
; This function is called by:
;		Interrupt level 1
; This function uses a non-reentrant model
; 
psect	text31
	file	"C:\Users\gowth\Documents\PIC Programs\Interrupt\Interrupt Base 3\Interrupt Base 3.c"
	line	17
	global	__size_of_intr
	__size_of_intr	equ	__end_of_intr-_intr
;Interrupt Base 3.c: 16: void interrupt intr()
;Interrupt Base 3.c: 17: {
	
_intr:	
	opt stack 7
; Regs used in _intr: [wreg-fsr0h+status,2+status,0+pclath+cstack]
psect	intentry,class=CODE,delta=2
global __pintentry
__pintentry:
global interrupt_function
interrupt_function:
	global saved_w
	saved_w	set	btemp+1
	movwf	saved_w
	movf	status,w
	bcf	status, 5	;RP0=0, select bank0
	bcf	status, 6	;RP1=0, select bank0
	movwf	(??_intr+0)
	movf	fsr0,w
	movwf	(??_intr+1)
	movf	pclath,w
	movwf	(??_intr+2)
	movf	btemp+0,w
	movwf	(??_intr+3)
	ljmp	_intr
psect	text31
	line	18
	
i1l30000575:	
;Interrupt Base 3.c: 18: if(INTF==1)
	btfss	(89/8),(89)&7
	goto	u11_21
	goto	u11_20
u11_21:
	goto	i1l5
u11_20:
	
i1l30000576:	
	line	20
;Interrupt Base 3.c: 19: {
;Interrupt Base 3.c: 20: for(j=count;j>=0;j--)
	movf	(_count+1),w
	clrf	(_j+1)
	addwf	(_j+1)
	movf	(_count),w
	clrf	(_j)
	addwf	(_j)

	goto	i1l30000580
	
i1l30000577:	
	line	22
;Interrupt Base 3.c: 21: {
;Interrupt Base 3.c: 22: PORTA=number[j];
	movf	(_j),w
	addlw	(_number)&0ffh
	movwf	fsr0
	bcf	status, 7	;select IRP bank0
	movf	indf,w
	bcf	status, 5	;RP0=0, select bank0
	bcf	status, 6	;RP1=0, select bank0
	movwf	(5)	;volatile
	
i1l30000578:	
	line	23
;Interrupt Base 3.c: 23: delay(1000);
	movlw	low(03E8h)
	movwf	(?i1_delay)
	movlw	high(03E8h)
	movwf	((?i1_delay))+1
	fcall	i1_delay
	
i1l30000579:	
	line	20
	movlw	low(-1)
	addwf	(_j),f
	skipnc
	incf	(_j+1),f
	movlw	high(-1)
	addwf	(_j+1),f
	
i1l30000580:	
	btfss	(_j+1),7
	goto	u12_21
	goto	u12_20
u12_21:
	goto	i1l30000577
u12_20:
	
i1l8:	
	line	25
;Interrupt Base 3.c: 24: }
;Interrupt Base 3.c: 25: INTF=0;
	bcf	status, 5	;RP0=0, select bank0
	bcf	status, 6	;RP1=0, select bank0
	bcf	(89/8),(89)&7
	
i1l5:	
	movf	(??_intr+3),w
	movwf	btemp+0
	movf	(??_intr+2),w
	movwf	pclath
	movf	(??_intr+1),w
	movwf	fsr0
	movf	(??_intr+0),w
	movwf	status
	swapf	saved_w,f
	swapf	saved_w,w
	retfie
	opt stack 0
GLOBAL	__end_of_intr
	__end_of_intr:
; =============== function _intr ends ============

psect	text32,local,class=CODE,delta=2
global __ptext32
__ptext32:
	line	27
	signat	_intr,88
	global	i1_delay

; *************** function i1_delay *****************
; Defined at:
;		line 11 in file "C:\Users\gowth\Documents\PIC Programs\Interrupt\Interrupt Base 3\Interrupt Base 3.c"
; Parameters:    Size  Location     Type
;		None
; Auto vars:     Size  Location     Type
;		None
; Return value:  Size  Location     Type
;		None               void
; Registers used:
;		wreg
; Tracked objects:
;		On entry : 0/0
;		On exit  : 0/0
;		Unchanged: 0/0
; Data sizes:     COMMON   BANK0   BANK1   BANK3   BANK2
;      Locals:         0       2       0       0       0
;      Temp:     0
;      Total:    2
; This function calls:
;		Nothing
; This function is called by:
;		_intr
; This function uses a non-reentrant model
; 
psect	text32
	file	"C:\Users\gowth\Documents\PIC Programs\Interrupt\Interrupt Base 3\Interrupt Base 3.c"
	line	11
	global	__size_ofi1_delay
	__size_ofi1_delay	equ	__end_ofi1_delay-i1_delay
;pic16f887.h: 19: volatile unsigned char INDF @ 0x000;
;pic16f887.h: 20: volatile unsigned char TMR0 @ 0x001;
;pic16f887.h: 21: volatile unsigned char PCL @ 0x002;
;pic16f887.h: 22: volatile unsigned char STATUS @ 0x003;
;pic16f887.h: 23: unsigned char FSR @ 0x004;
;pic16f887.h: 24: volatile unsigned char PORTA @ 0x005;
;pic16f887.h: 25: volatile unsigned char PORTB @ 0x006;
;pic16f887.h: 26: volatile unsigned char PORTC @ 0x007;
;pic16f887.h: 28: volatile unsigned char PORTD @ 0x008;
;pic16f887.h: 30: volatile unsigned char PORTE @ 0x009;
	
i1_delay:	
	opt stack 6
; Regs used in i1_delay: [wreg]
	
i1l30000543:	
	
i1l30000544:	
	line	12
	movlw	low(-1)
	addwf	(_x),f
	skipnc
	incf	(_x+1),f
	movlw	high(-1)
	addwf	(_x+1),f
	movlw	high(-1)
	xorwf	((_x+1))&07fh,w
	skipz
	goto	u6_25
	movlw	low(-1)
	xorwf	((_x))&07fh,w
u6_25:

	skipz
	goto	u6_21
	goto	u6_20
u6_21:
	goto	i1l30000544
u6_20:
	
i1l1:	
	return
	opt stack 0
GLOBAL	__end_ofi1_delay
	__end_ofi1_delay:
; =============== function i1_delay ends ============

psect	text33,local,class=CODE,delta=2
global __ptext33
__ptext33:
	line	13
	signat	i1_delay,88
	global	btemp
	btemp set 07Eh

	DABS	1,126,2	;btemp
	end
