

HI-TECH Software PIC LITE Macro Assembler V9.70 build 5239 
                                                                                               Sat Mar 25 11:10:55 2023

HI-TECH Software Omniscient Code Generator (Lite mode) build 5239
     1  0000                     opt subtitle "HI-TECH Software Omniscient Code Generator (Lite mode) build 5239"
     2                           
     3                           opt pagewidth 120
     4                           
     5                           	opt lm
     6                           
     7                           	processor	16F887
     8                           clrc	macro
     9                           	bcf	3,0
    10  0000                     	endm
    11                           clrz	macro
    12                           	bcf	3,2
    13  0000                     	endm
    14                           setc	macro
    15                           	bsf	3,0
    16  0000                     	endm
    17                           setz	macro
    18                           	bsf	3,2
    19  0000                     	endm
    20                           skipc	macro
    21                           	btfss	3,0
    22  0000                     	endm
    23                           skipz	macro
    24                           	btfss	3,2
    25  0000                     	endm
    26                           skipnc	macro
    27                           	btfsc	3,0
    28  0000                     	endm
    29                           skipnz	macro
    30                           	btfsc	3,2
    31  0000                     	endm
    32  0000                     indf	equ	0
    33  0000                     indf0	equ	0
    34  0002                     pc	equ	2
    35  0002                     pcl	equ	2
    36  0003                     status	equ	3
    37  0004                     fsr	equ	4
    38  0004                     fsr0	equ	4
    39  0001                     c	equ	1
    40  0000                     z	equ	0
    41  000A                     pclath	equ	10
    42                           ;BANK0:	_main->___awdiv
    43                           ;COMMON:	_main->___awmod
    44                           	FNCALL	_main,___awdiv
    45                           	FNCALL	_main,___awmod
    46                           	FNCALL	_main,_command
    47                           	FNCALL	_main,_string
    48                           	FNCALL	_main,_data
    49                           	FNCALL	_string,_data
    50                           	FNCALL	_command,_pulse
    51                           	FNCALL	_data,_pulse
    52                           	FNCALL	_pulse,_delay
    53                           	FNROOT	_main
    54                           	global	_balance
    55                           	global	_countp
    56                           	global	_countu
    57                           	global	_countw
    58                           	global	_password
    59                           	global	_username
    60                           psect	idataBANK0,class=CODE,space=0,delta=2
    61                           global __pidataBANK0
    62  000F                     __pidataBANK0:
    63                           	file	"C:\Users\gowth\Documents\PIC Programs\LCD\ATM\ATM.c"
    64                           	line	18
    65                           
    66                           ;initializer for _balance
    67  000F  3488               	retlw	088h
    68  0010  3413               	retlw	013h
    69                           
    70                           	line	26
    71                           
    72                           ;initializer for _countp
    73  0011  34FF               	retlw	0FFh
    74  0012  34FF               	retlw	0FFh
    75                           
    76                           	line	25
    77                           
    78                           ;initializer for _countu
    79  0013  34FF               	retlw	0FFh
    80  0014  34FF               	retlw	0FFh
    81                           
    82                           	line	28
    83                           
    84                           ;initializer for _countw
    85  0015  34FF               	retlw	0FFh
    86  0016  34FF               	retlw	0FFh
    87                           
    88                           psect	idataBANK3,class=CODE,space=0,delta=2
    89                           global __pidataBANK3
    90  01AC                     __pidataBANK3:
    91                           	line	39
    92                           
    93                           ;initializer for _password
    94  01AC  3409               	retlw	09h
    95  01AD  3400               	retlw	0
    96                           
    97  01AE  3408               	retlw	08h
    98  01AF  3400               	retlw	0
    99                           
   100  01B0  3409               	retlw	09h
   101  01B1  3400               	retlw	0
   102                           
   103  01B2  3400               	retlw	0
   104  01B3  3400               	retlw	0
   105                           
   106  01B4  3400               	retlw	0
   107  01B5  3400               	retlw	0
   108  01B6  3400               	retlw	0
   109  01B7  3400               	retlw	0
   110  01B8  3400               	retlw	0
   111  01B9  3400               	retlw	0
   112  01BA  3400               	retlw	0
   113  01BB  3400               	retlw	0
   114  01BC  3400               	retlw	0
   115  01BD  3400               	retlw	0
   116  01BE  3400               	retlw	0
   117  01BF  3400               	retlw	0
   118                           	line	37
   119                           
   120                           ;initializer for _username
   121  01C0  3401               	retlw	01h
   122  01C1  3400               	retlw	0
   123                           
   124  01C2  3402               	retlw	02h
   125  01C3  3400               	retlw	0
   126                           
   127  01C4  3403               	retlw	03h
   128  01C5  3400               	retlw	0
   129                           
   130  01C6  3404               	retlw	04h
   131  01C7  3400               	retlw	0
   132                           
   133  01C8  3400               	retlw	0
   134  01C9  3400               	retlw	0
   135  01CA  3400               	retlw	0
   136  01CB  3400               	retlw	0
   137  01CC  3400               	retlw	0
   138  01CD  3400               	retlw	0
   139  01CE  3400               	retlw	0
   140  01CF  3400               	retlw	0
   141  01D0  3400               	retlw	0
   142  01D1  3400               	retlw	0
   143  01D2  3400               	retlw	0
   144  01D3  3400               	retlw	0
   145                           	global	_wdraw
   146                           	global	_count
   147                           	global	_count22
   148                           	global	_count33
   149                           	global	_count44
   150                           	global	_count55
   151                           	global	_countkey
   152                           	global	_countspecial
   153                           	global	_i
   154                           	global	_j
   155                           	global	_keytopwd
   156                           	global	_withdraw
   157                           	global	_var
   158                           	global	_inputpass
   159                           	global	_inputuser
   160                           	global	_ADCON0
   161  001F                     _ADCON0  equ     31
   162                           	global	_ADRESH
   163  001E                     _ADRESH  equ     30
   164                           	global	_CCP1CON
   165  0017                     _CCP1CON  equ     23
   166                           	global	_CCP2CON
   167  001D                     _CCP2CON  equ     29
   168                           	global	_CCPR1H
   169  0016                     _CCPR1H  equ     22
   170                           	global	_CCPR1L
   171  0015                     _CCPR1L  equ     21
   172                           	global	_CCPR2H
   173  001C                     _CCPR2H  equ     28
   174                           	global	_CCPR2L
   175  001B                     _CCPR2L  equ     27
   176                           	global	_FSR
   177  0004                     _FSR  equ     4
   178                           	global	_INDF
   179  0000                     _INDF  equ     0
   180                           	global	_INTCON
   181  000B                     _INTCON  equ     11
   182                           	global	_PCL
   183  0002                     _PCL  equ     2
   184                           	global	_PCLATH
   185  000A                     _PCLATH  equ     10
   186                           	global	_PIR1
   187  000C                     _PIR1  equ     12
   188                           	global	_PIR2
   189  000D                     _PIR2  equ     13
   190                           	global	_PORTA
   191  0005                     _PORTA  equ     5
   192                           	global	_PORTB
   193  0006                     _PORTB  equ     6
   194                           	global	_PORTC
   195  0007                     _PORTC  equ     7
   196                           	global	_PORTD
   197  0008                     _PORTD  equ     8
   198                           	global	_PORTE
   199  0009                     _PORTE  equ     9
   200                           	global	_RCREG
   201  001A                     _RCREG  equ     26
   202                           	global	_RCSTA
   203  0018                     _RCSTA  equ     24
   204                           	global	_SSPBUF
   205  0013                     _SSPBUF  equ     19
   206                           	global	_SSPCON
   207  0014                     _SSPCON  equ     20
   208                           	global	_STATUS
   209  0003                     _STATUS  equ     3
   210                           	global	_T1CON
   211  0010                     _T1CON  equ     16
   212                           	global	_T2CON
   213  0012                     _T2CON  equ     18
   214                           	global	_TMR0
   215  0001                     _TMR0  equ     1
   216                           	global	_TMR1H
   217  000F                     _TMR1H  equ     15
   218                           	global	_TMR1L
   219  000E                     _TMR1L  equ     14
   220                           	global	_TMR2
   221  0011                     _TMR2  equ     17
   222                           	global	_TXREG
   223  0019                     _TXREG  equ     25
   224                           	global	_ADCS0
   225  00FE                     _ADCS0  equ     254
   226                           	global	_ADCS1
   227  00FF                     _ADCS1  equ     255
   228                           	global	_ADDEN
   229  00C3                     _ADDEN  equ     195
   230                           	global	_ADIF
   231  0066                     _ADIF  equ     102
   232                           	global	_ADON
   233  00F8                     _ADON  equ     248
   234                           	global	_BCLIF
   235  006B                     _BCLIF  equ     107
   236                           	global	_C1IF
   237  006D                     _C1IF  equ     109
   238                           	global	_C2IF
   239  006E                     _C2IF  equ     110
   240                           	global	_CARRY
   241  0018                     _CARRY  equ     24
   242                           	global	_CCP1IF
   243  0062                     _CCP1IF  equ     98
   244                           	global	_CCP1M0
   245  00B8                     _CCP1M0  equ     184
   246                           	global	_CCP1M1
   247  00B9                     _CCP1M1  equ     185
   248                           	global	_CCP1M2
   249  00BA                     _CCP1M2  equ     186
   250                           	global	_CCP1M3
   251  00BB                     _CCP1M3  equ     187
   252                           	global	_CCP2IF
   253  0068                     _CCP2IF  equ     104
   254                           	global	_CCP2M0
   255  00E8                     _CCP2M0  equ     232
   256                           	global	_CCP2M1
   257  00E9                     _CCP2M1  equ     233
   258                           	global	_CCP2M2
   259  00EA                     _CCP2M2  equ     234
   260                           	global	_CCP2M3
   261  00EB                     _CCP2M3  equ     235
   262                           	global	_CCP2X
   263  00ED                     _CCP2X  equ     237
   264                           	global	_CCP2Y
   265  00EC                     _CCP2Y  equ     236
   266                           	global	_CHS0
   267  00FA                     _CHS0  equ     250
   268                           	global	_CHS1
   269  00FB                     _CHS1  equ     251
   270                           	global	_CHS2
   271  00FC                     _CHS2  equ     252
   272                           	global	_CHS3
   273  00FD                     _CHS3  equ     253
   274                           	global	_CKP
   275  00A4                     _CKP  equ     164
   276                           	global	_CREN
   277  00C4                     _CREN  equ     196
   278                           	global	_DC
   279  0019                     _DC  equ     25
   280                           	global	_DC1B0
   281  00BC                     _DC1B0  equ     188
   282                           	global	_DC1B1
   283  00BD                     _DC1B1  equ     189
   284                           	global	_EEIF
   285  006C                     _EEIF  equ     108
   286                           	global	_FERR
   287  00C2                     _FERR  equ     194
   288                           	global	_GIE
   289  005F                     _GIE  equ     95
   290                           	global	_GODONE
   291  00F9                     _GODONE  equ     249
   292                           	global	_INTE
   293  005C                     _INTE  equ     92
   294                           	global	_INTF
   295  0059                     _INTF  equ     89
   296                           	global	_IRP
   297  001F                     _IRP  equ     31
   298                           	global	_OERR
   299  00C1                     _OERR  equ     193
   300                           	global	_OSFIF
   301  006F                     _OSFIF  equ     111
   302                           	global	_P1M0
   303  00BE                     _P1M0  equ     190
   304                           	global	_P1M1
   305  00BF                     _P1M1  equ     191
   306                           	global	_PD
   307  001B                     _PD  equ     27
   308                           	global	_PEIE
   309  005E                     _PEIE  equ     94
   310                           	global	_RA0
   311  0028                     _RA0  equ     40
   312                           	global	_RA1
   313  0029                     _RA1  equ     41
   314                           	global	_RA2
   315  002A                     _RA2  equ     42
   316                           	global	_RA3
   317  002B                     _RA3  equ     43
   318                           	global	_RA4
   319  002C                     _RA4  equ     44
   320                           	global	_RA5
   321  002D                     _RA5  equ     45
   322                           	global	_RA6
   323  002E                     _RA6  equ     46
   324                           	global	_RA7
   325  002F                     _RA7  equ     47
   326                           	global	_RABIE
   327  005B                     _RABIE  equ     91
   328                           	global	_RABIF
   329  0058                     _RABIF  equ     88
   330                           	global	_RB0
   331  0030                     _RB0  equ     48
   332                           	global	_RB1
   333  0031                     _RB1  equ     49
   334                           	global	_RB2
   335  0032                     _RB2  equ     50
   336                           	global	_RB3
   337  0033                     _RB3  equ     51
   338                           	global	_RB4
   339  0034                     _RB4  equ     52
   340                           	global	_RB5
   341  0035                     _RB5  equ     53
   342                           	global	_RB6
   343  0036                     _RB6  equ     54
   344                           	global	_RB7
   345  0037                     _RB7  equ     55
   346                           	global	_RBIE
   347  005B                     _RBIE  equ     91
   348                           	global	_RBIF
   349  0058                     _RBIF  equ     88
   350                           	global	_RC0
   351  0038                     _RC0  equ     56
   352                           	global	_RC1
   353  0039                     _RC1  equ     57
   354                           	global	_RC2
   355  003A                     _RC2  equ     58
   356                           	global	_RC3
   357  003B                     _RC3  equ     59
   358                           	global	_RC4
   359  003C                     _RC4  equ     60
   360                           	global	_RC5
   361  003D                     _RC5  equ     61
   362                           	global	_RC6
   363  003E                     _RC6  equ     62
   364                           	global	_RC7
   365  003F                     _RC7  equ     63
   366                           	global	_RCIF
   367  0065                     _RCIF  equ     101
   368                           	global	_RD0
   369  0040                     _RD0  equ     64
   370                           	global	_RD1
   371  0041                     _RD1  equ     65
   372                           	global	_RD2
   373  0042                     _RD2  equ     66
   374                           	global	_RD3
   375  0043                     _RD3  equ     67
   376                           	global	_RD4
   377  0044                     _RD4  equ     68
   378                           	global	_RD5
   379  0045                     _RD5  equ     69
   380                           	global	_RD6
   381  0046                     _RD6  equ     70
   382                           	global	_RD7
   383  0047                     _RD7  equ     71
   384                           	global	_RE0
   385  0048                     _RE0  equ     72
   386                           	global	_RE1
   387  0049                     _RE1  equ     73
   388                           	global	_RE2
   389  004A                     _RE2  equ     74
   390                           	global	_RE3
   391  004B                     _RE3  equ     75
   392                           	global	_RP0
   393  001D                     _RP0  equ     29
   394                           	global	_RP1
   395  001E                     _RP1  equ     30
   396                           	global	_RX9
   397  00C6                     _RX9  equ     198
   398                           	global	_RX9D
   399  00C0                     _RX9D  equ     192
   400                           	global	_SPEN
   401  00C7                     _SPEN  equ     199
   402                           	global	_SREN
   403  00C5                     _SREN  equ     197
   404                           	global	_SSPEN
   405  00A5                     _SSPEN  equ     165
   406                           	global	_SSPIF
   407  0063                     _SSPIF  equ     99
   408                           	global	_SSPM0
   409  00A0                     _SSPM0  equ     160
   410                           	global	_SSPM1
   411  00A1                     _SSPM1  equ     161
   412                           	global	_SSPM2
   413  00A2                     _SSPM2  equ     162
   414                           	global	_SSPM3
   415  00A3                     _SSPM3  equ     163
   416                           	global	_SSPOV
   417  00A6                     _SSPOV  equ     166
   418                           	global	_T0IE
   419  005D                     _T0IE  equ     93
   420                           	global	_T0IF
   421  005A                     _T0IF  equ     90
   422                           	global	_T1CKPS0
   423  0084                     _T1CKPS0  equ     132
   424                           	global	_T1CKPS1
   425  0085                     _T1CKPS1  equ     133
   426                           	global	_T1GINV
   427  0087                     _T1GINV  equ     135
   428                           	global	_T1OSCEN
   429  0083                     _T1OSCEN  equ     131
   430                           	global	_T1SYNC
   431  0082                     _T1SYNC  equ     130
   432                           	global	_T2CKPS0
   433  0090                     _T2CKPS0  equ     144
   434                           	global	_T2CKPS1
   435  0091                     _T2CKPS1  equ     145
   436                           	global	_TMR1CS
   437  0081                     _TMR1CS  equ     129
   438                           	global	_TMR1GE
   439  0086                     _TMR1GE  equ     134
   440                           	global	_TMR1IF
   441  0060                     _TMR1IF  equ     96
   442                           	global	_TMR1ON
   443  0080                     _TMR1ON  equ     128
   444                           	global	_TMR2IF
   445  0061                     _TMR2IF  equ     97
   446                           	global	_TMR2ON
   447  0092                     _TMR2ON  equ     146
   448                           	global	_TO
   449  001C                     _TO  equ     28
   450                           	global	_TOUTPS0
   451  0093                     _TOUTPS0  equ     147
   452                           	global	_TOUTPS1
   453  0094                     _TOUTPS1  equ     148
   454                           	global	_TOUTPS2
   455  0095                     _TOUTPS2  equ     149
   456                           	global	_TOUTPS3
   457  0096                     _TOUTPS3  equ     150
   458                           	global	_TXIF
   459  0064                     _TXIF  equ     100
   460                           	global	_ULPWUIF
   461  006A                     _ULPWUIF  equ     106
   462                           	global	_WCOL
   463  00A7                     _WCOL  equ     167
   464                           	global	_ZERO
   465  001A                     _ZERO  equ     26
   466                           	global	_ADCON1
   467  009F                     _ADCON1  equ     159
   468                           	global	_ADRESL
   469  009E                     _ADRESL  equ     158
   470                           	global	_ECCPAS
   471  009C                     _ECCPAS  equ     156
   472                           	global	_IOCB
   473  0096                     _IOCB  equ     150
   474                           	global	_OPTION
   475  0081                     _OPTION  equ     129
   476                           	global	_OSCCON
   477  008F                     _OSCCON  equ     143
   478                           	global	_OSCTUNE
   479  0090                     _OSCTUNE  equ     144
   480                           	global	_PCON
   481  008E                     _PCON  equ     142
   482                           	global	_PIE1
   483  008C                     _PIE1  equ     140
   484                           	global	_PIE2
   485  008D                     _PIE2  equ     141
   486                           	global	_PR2
   487  0092                     _PR2  equ     146
   488                           	global	_PSTRCON
   489  009D                     _PSTRCON  equ     157
   490                           	global	_PWM1CON
   491  009B                     _PWM1CON  equ     155
   492                           	global	_SPBRG
   493  0099                     _SPBRG  equ     153
   494                           	global	_SPBRGH
   495  009A                     _SPBRGH  equ     154
   496                           	global	_SSPADD
   497  0093                     _SSPADD  equ     147
   498                           	global	_SSPCON2
   499  0091                     _SSPCON2  equ     145
   500                           	global	_SSPMSK
   501  0093                     _SSPMSK  equ     147
   502                           	global	_SSPSTAT
   503  0094                     _SSPSTAT  equ     148
   504                           	global	_TRISA
   505  0085                     _TRISA  equ     133
   506                           	global	_TRISB
   507  0086                     _TRISB  equ     134
   508                           	global	_TRISC
   509  0087                     _TRISC  equ     135
   510                           	global	_TRISD
   511  0088                     _TRISD  equ     136
   512                           	global	_TRISE
   513  0089                     _TRISE  equ     137
   514                           	global	_TXSTA
   515  0098                     _TXSTA  equ     152
   516                           	global	_VRCON
   517  0097                     _VRCON  equ     151
   518                           	global	_WPUB
   519  0095                     _WPUB  equ     149
   520                           	global	_ACKDT
   521  048D                     _ACKDT  equ     1165
   522                           	global	_ACKEN
   523  048C                     _ACKEN  equ     1164
   524                           	global	_ACKSTAT
   525  048E                     _ACKSTAT  equ     1166
   526                           	global	_ADFM
   527  04FF                     _ADFM  equ     1279
   528                           	global	_ADIE
   529  0466                     _ADIE  equ     1126
   530                           	global	_BCLIE
   531  046B                     _BCLIE  equ     1131
   532                           	global	_BF
   533  04A0                     _BF  equ     1184
   534                           	global	_BOR
   535  0470                     _BOR  equ     1136
   536                           	global	_BRG0
   537  04C8                     _BRG0  equ     1224
   538                           	global	_BRG1
   539  04C9                     _BRG1  equ     1225
   540                           	global	_BRG10
   541  04D2                     _BRG10  equ     1234
   542                           	global	_BRG11
   543  04D3                     _BRG11  equ     1235
   544                           	global	_BRG12
   545  04D4                     _BRG12  equ     1236
   546                           	global	_BRG13
   547  04D5                     _BRG13  equ     1237
   548                           	global	_BRG14
   549  04D6                     _BRG14  equ     1238
   550                           	global	_BRG15
   551  04D7                     _BRG15  equ     1239
   552                           	global	_BRG2
   553  04CA                     _BRG2  equ     1226
   554                           	global	_BRG3
   555  04CB                     _BRG3  equ     1227
   556                           	global	_BRG4
   557  04CC                     _BRG4  equ     1228
   558                           	global	_BRG5
   559  04CD                     _BRG5  equ     1229
   560                           	global	_BRG6
   561  04CE                     _BRG6  equ     1230
   562                           	global	_BRG7
   563  04CF                     _BRG7  equ     1231
   564                           	global	_BRG8
   565  04D0                     _BRG8  equ     1232
   566                           	global	_BRG9
   567  04D1                     _BRG9  equ     1233
   568                           	global	_BRGH
   569  04C2                     _BRGH  equ     1218
   570                           	global	_C1IE
   571  046D                     _C1IE  equ     1133
   572                           	global	_C2IE
   573  046E                     _C2IE  equ     1134
   574                           	global	_CCP1IE
   575  0462                     _CCP1IE  equ     1122
   576                           	global	_CCP2IE
   577  0468                     _CCP2IE  equ     1128
   578                           	global	_CKE
   579  04A6                     _CKE  equ     1190
   580                           	global	_CSRC
   581  04C7                     _CSRC  equ     1223
   582                           	global	_DA
   583  04A5                     _DA  equ     1189
   584                           	global	_ECCPAS0
   585  04E4                     _ECCPAS0  equ     1252
   586                           	global	_ECCPAS1
   587  04E5                     _ECCPAS1  equ     1253
   588                           	global	_ECCPAS2
   589  04E6                     _ECCPAS2  equ     1254
   590                           	global	_ECCPASE
   591  04E7                     _ECCPASE  equ     1255
   592                           	global	_EEIE
   593  046C                     _EEIE  equ     1132
   594                           	global	_GCEN
   595  048F                     _GCEN  equ     1167
   596                           	global	_HTS
   597  047A                     _HTS  equ     1146
   598                           	global	_INTEDG
   599  040E                     _INTEDG  equ     1038
   600                           	global	_IOCB0
   601  04B0                     _IOCB0  equ     1200
   602                           	global	_IOCB1
   603  04B1                     _IOCB1  equ     1201
   604                           	global	_IOCB2
   605  04B2                     _IOCB2  equ     1202
   606                           	global	_IOCB3
   607  04B3                     _IOCB3  equ     1203
   608                           	global	_IOCB4
   609  04B4                     _IOCB4  equ     1204
   610                           	global	_IOCB5
   611  04B5                     _IOCB5  equ     1205
   612                           	global	_IOCB6
   613  04B6                     _IOCB6  equ     1206
   614                           	global	_IOCB7
   615  04B7                     _IOCB7  equ     1207
   616                           	global	_IRCF0
   617  047C                     _IRCF0  equ     1148
   618                           	global	_IRCF1
   619  047D                     _IRCF1  equ     1149
   620                           	global	_IRCF2
   621  047E                     _IRCF2  equ     1150
   622                           	global	_LTS
   623  0479                     _LTS  equ     1145
   624                           	global	_OSFIE
   625  046F                     _OSFIE  equ     1135
   626                           	global	_OSTS
   627  047B                     _OSTS  equ     1147
   628                           	global	_PDC0
   629  04D8                     _PDC0  equ     1240
   630                           	global	_PDC1
   631  04D9                     _PDC1  equ     1241
   632                           	global	_PDC2
   633  04DA                     _PDC2  equ     1242
   634                           	global	_PDC3
   635  04DB                     _PDC3  equ     1243
   636                           	global	_PDC4
   637  04DC                     _PDC4  equ     1244
   638                           	global	_PDC5
   639  04DD                     _PDC5  equ     1245
   640                           	global	_PDC6
   641  04DE                     _PDC6  equ     1246
   642                           	global	_PEN
   643  048A                     _PEN  equ     1162
   644                           	global	_POR
   645  0471                     _POR  equ     1137
   646                           	global	_PRSEN
   647  04DF                     _PRSEN  equ     1247
   648                           	global	_PS0
   649  0408                     _PS0  equ     1032
   650                           	global	_PS1
   651  0409                     _PS1  equ     1033
   652                           	global	_PS2
   653  040A                     _PS2  equ     1034
   654                           	global	_PSA
   655  040B                     _PSA  equ     1035
   656                           	global	_PSSAC0
   657  04E2                     _PSSAC0  equ     1250
   658                           	global	_PSSAC1
   659  04E3                     _PSSAC1  equ     1251
   660                           	global	_PSSBD0
   661  04E0                     _PSSBD0  equ     1248
   662                           	global	_PSSBD1
   663  04E1                     _PSSBD1  equ     1249
   664                           	global	_RABPU
   665  040F                     _RABPU  equ     1039
   666                           	global	_RBPU
   667  040F                     _RBPU  equ     1039
   668                           	global	_RCEN
   669  048B                     _RCEN  equ     1163
   670                           	global	_RCIE
   671  0465                     _RCIE  equ     1125
   672                           	global	_RSEN
   673  0489                     _RSEN  equ     1161
   674                           	global	_RW
   675  04A2                     _RW  equ     1186
   676                           	global	_SBOREN
   677  0474                     _SBOREN  equ     1140
   678                           	global	_SCS
   679  0478                     _SCS  equ     1144
   680                           	global	_SEN
   681  0488                     _SEN  equ     1160
   682                           	global	_SENDB
   683  04C3                     _SENDB  equ     1219
   684                           	global	_SMP
   685  04A7                     _SMP  equ     1191
   686                           	global	_SSPIE
   687  0463                     _SSPIE  equ     1123
   688                           	global	_START
   689  04A3                     _START  equ     1187
   690                           	global	_STOP
   691  04A4                     _STOP  equ     1188
   692                           	global	_STRA
   693  04E8                     _STRA  equ     1256
   694                           	global	_STRB
   695  04E9                     _STRB  equ     1257
   696                           	global	_STRC
   697  04EA                     _STRC  equ     1258
   698                           	global	_STRD
   699  04EB                     _STRD  equ     1259
   700                           	global	_STRSYNC
   701  04EC                     _STRSYNC  equ     1260
   702                           	global	_SYNC
   703  04C4                     _SYNC  equ     1220
   704                           	global	_T0CS
   705  040D                     _T0CS  equ     1037
   706                           	global	_T0SE
   707  040C                     _T0SE  equ     1036
   708                           	global	_TMR1IE
   709  0460                     _TMR1IE  equ     1120
   710                           	global	_TMR2IE
   711  0461                     _TMR2IE  equ     1121
   712                           	global	_TRISA0
   713  0428                     _TRISA0  equ     1064
   714                           	global	_TRISA1
   715  0429                     _TRISA1  equ     1065
   716                           	global	_TRISA2
   717  042A                     _TRISA2  equ     1066
   718                           	global	_TRISA3
   719  042B                     _TRISA3  equ     1067
   720                           	global	_TRISA4
   721  042C                     _TRISA4  equ     1068
   722                           	global	_TRISA5
   723  042D                     _TRISA5  equ     1069
   724                           	global	_TRISA6
   725  042E                     _TRISA6  equ     1070
   726                           	global	_TRISA7
   727  042F                     _TRISA7  equ     1071
   728                           	global	_TRISB0
   729  0430                     _TRISB0  equ     1072
   730                           	global	_TRISB1
   731  0431                     _TRISB1  equ     1073
   732                           	global	_TRISB2
   733  0432                     _TRISB2  equ     1074
   734                           	global	_TRISB3
   735  0433                     _TRISB3  equ     1075
   736                           	global	_TRISB4
   737  0434                     _TRISB4  equ     1076
   738                           	global	_TRISB5
   739  0435                     _TRISB5  equ     1077
   740                           	global	_TRISB6
   741  0436                     _TRISB6  equ     1078
   742                           	global	_TRISB7
   743  0437                     _TRISB7  equ     1079
   744                           	global	_TRISC0
   745  0438                     _TRISC0  equ     1080
   746                           	global	_TRISC1
   747  0439                     _TRISC1  equ     1081
   748                           	global	_TRISC2
   749  043A                     _TRISC2  equ     1082
   750                           	global	_TRISC3
   751  043B                     _TRISC3  equ     1083
   752                           	global	_TRISC4
   753  043C                     _TRISC4  equ     1084
   754                           	global	_TRISC5
   755  043D                     _TRISC5  equ     1085
   756                           	global	_TRISC6
   757  043E                     _TRISC6  equ     1086
   758                           	global	_TRISC7
   759  043F                     _TRISC7  equ     1087
   760                           	global	_TRISD0
   761  0440                     _TRISD0  equ     1088
   762                           	global	_TRISD1
   763  0441                     _TRISD1  equ     1089
   764                           	global	_TRISD2
   765  0442                     _TRISD2  equ     1090
   766                           	global	_TRISD3
   767  0443                     _TRISD3  equ     1091
   768                           	global	_TRISD4
   769  0444                     _TRISD4  equ     1092
   770                           	global	_TRISD5
   771  0445                     _TRISD5  equ     1093
   772                           	global	_TRISD6
   773  0446                     _TRISD6  equ     1094
   774                           	global	_TRISD7
   775  0447                     _TRISD7  equ     1095
   776                           	global	_TRISE0
   777  0448                     _TRISE0  equ     1096
   778                           	global	_TRISE1
   779  0449                     _TRISE1  equ     1097
   780                           	global	_TRISE2
   781  044A                     _TRISE2  equ     1098
   782                           	global	_TRISE3
   783  044B                     _TRISE3  equ     1099
   784                           	global	_TRMT
   785  04C1                     _TRMT  equ     1217
   786                           	global	_TUN0
   787  0480                     _TUN0  equ     1152
   788                           	global	_TUN1
   789  0481                     _TUN1  equ     1153
   790                           	global	_TUN2
   791  0482                     _TUN2  equ     1154
   792                           	global	_TUN3
   793  0483                     _TUN3  equ     1155
   794                           	global	_TUN4
   795  0484                     _TUN4  equ     1156
   796                           	global	_TX9
   797  04C6                     _TX9  equ     1222
   798                           	global	_TX9D
   799  04C0                     _TX9D  equ     1216
   800                           	global	_TXEN
   801  04C5                     _TXEN  equ     1221
   802                           	global	_TXIE
   803  0464                     _TXIE  equ     1124
   804                           	global	_UA
   805  04A1                     _UA  equ     1185
   806                           	global	_ULPWUE
   807  0475                     _ULPWUE  equ     1141
   808                           	global	_ULPWUIE
   809  046A                     _ULPWUIE  equ     1130
   810                           	global	_VCFG0
   811  04FC                     _VCFG0  equ     1276
   812                           	global	_VCFG1
   813  04FD                     _VCFG1  equ     1277
   814                           	global	_VR0
   815  04B8                     _VR0  equ     1208
   816                           	global	_VR1
   817  04B9                     _VR1  equ     1209
   818                           	global	_VR2
   819  04BA                     _VR2  equ     1210
   820                           	global	_VR3
   821  04BB                     _VR3  equ     1211
   822                           	global	_VREN
   823  04BF                     _VREN  equ     1215
   824                           	global	_VROE
   825  04BE                     _VROE  equ     1214
   826                           	global	_VRR
   827  04BD                     _VRR  equ     1213
   828                           	global	_VRSS
   829  04BC                     _VRSS  equ     1212
   830                           	global	_WPUB0
   831  04A8                     _WPUB0  equ     1192
   832                           	global	_WPUB1
   833  04A9                     _WPUB1  equ     1193
   834                           	global	_WPUB2
   835  04AA                     _WPUB2  equ     1194
   836                           	global	_WPUB3
   837  04AB                     _WPUB3  equ     1195
   838                           	global	_WPUB4
   839  04AC                     _WPUB4  equ     1196
   840                           	global	_WPUB5
   841  04AD                     _WPUB5  equ     1197
   842                           	global	_WPUB6
   843  04AE                     _WPUB6  equ     1198
   844                           	global	_WPUB7
   845  04AF                     _WPUB7  equ     1199
   846                           	global	_CM1CON0
   847  0107                     _CM1CON0  equ     263
   848                           	global	_CM2CON0
   849  0108                     _CM2CON0  equ     264
   850                           	global	_CM2CON1
   851  0109                     _CM2CON1  equ     265
   852                           	global	_EEADR
   853  010D                     _EEADR  equ     269
   854                           	global	_EEADRH
   855  010F                     _EEADRH  equ     271
   856                           	global	_EEADRL
   857  010D                     _EEADRL  equ     269
   858                           	global	_EEDAT
   859  010C                     _EEDAT  equ     268
   860                           	global	_EEDATA
   861  010C                     _EEDATA  equ     268
   862                           	global	_EEDATH
   863  010E                     _EEDATH  equ     270
   864                           	global	_WDTCON
   865  0105                     _WDTCON  equ     261
   866                           	global	_C1CH0
   867  0838                     _C1CH0  equ     2104
   868                           	global	_C1CH1
   869  0839                     _C1CH1  equ     2105
   870                           	global	_C1OE
   871  083D                     _C1OE  equ     2109
   872                           	global	_C1ON
   873  083F                     _C1ON  equ     2111
   874                           	global	_C1OUT
   875  083E                     _C1OUT  equ     2110
   876                           	global	_C1POL
   877  083C                     _C1POL  equ     2108
   878                           	global	_C1R
   879  083A                     _C1R  equ     2106
   880                           	global	_C1RSEL
   881  084D                     _C1RSEL  equ     2125
   882                           	global	_C2CH0
   883  0840                     _C2CH0  equ     2112
   884                           	global	_C2CH1
   885  0841                     _C2CH1  equ     2113
   886                           	global	_C2OE
   887  0845                     _C2OE  equ     2117
   888                           	global	_C2ON
   889  0847                     _C2ON  equ     2119
   890                           	global	_C2OUT
   891  0846                     _C2OUT  equ     2118
   892                           	global	_C2POL
   893  0844                     _C2POL  equ     2116
   894                           	global	_C2R
   895  0842                     _C2R  equ     2114
   896                           	global	_C2RSEL
   897  084C                     _C2RSEL  equ     2124
   898                           	global	_C2SYNC
   899  0848                     _C2SYNC  equ     2120
   900                           	global	_MC1OUT
   901  084F                     _MC1OUT  equ     2127
   902                           	global	_MC2OUT
   903  084E                     _MC2OUT  equ     2126
   904                           	global	_SWDTEN
   905  0828                     _SWDTEN  equ     2088
   906                           	global	_T1GSS
   907  0849                     _T1GSS  equ     2121
   908                           	global	_WDTPS0
   909  0829                     _WDTPS0  equ     2089
   910                           	global	_WDTPS1
   911  082A                     _WDTPS1  equ     2090
   912                           	global	_WDTPS2
   913  082B                     _WDTPS2  equ     2091
   914                           	global	_WDTPS3
   915  082C                     _WDTPS3  equ     2092
   916                           	global	_ANSEL
   917  0188                     _ANSEL  equ     392
   918                           	global	_ANSELH
   919  0189                     _ANSELH  equ     393
   920                           	global	_BAUDCTL
   921  0187                     _BAUDCTL  equ     391
   922                           	global	_EECON1
   923  018C                     _EECON1  equ     396
   924                           	global	_EECON2
   925  018D                     _EECON2  equ     397
   926                           	global	_SRCON
   927  0185                     _SRCON  equ     389
   928                           	global	_ABDEN
   929  0C38                     _ABDEN  equ     3128
   930                           	global	_ABDOVF
   931  0C3F                     _ABDOVF  equ     3135
   932                           	global	_ANS0
   933  0C40                     _ANS0  equ     3136
   934                           	global	_ANS1
   935  0C41                     _ANS1  equ     3137
   936                           	global	_ANS10
   937  0C4A                     _ANS10  equ     3146
   938                           	global	_ANS11
   939  0C4B                     _ANS11  equ     3147
   940                           	global	_ANS12
   941  0C4C                     _ANS12  equ     3148
   942                           	global	_ANS13
   943  0C4D                     _ANS13  equ     3149
   944                           	global	_ANS2
   945  0C42                     _ANS2  equ     3138
   946                           	global	_ANS3
   947  0C43                     _ANS3  equ     3139
   948                           	global	_ANS4
   949  0C44                     _ANS4  equ     3140
   950                           	global	_ANS5
   951  0C45                     _ANS5  equ     3141
   952                           	global	_ANS6
   953  0C46                     _ANS6  equ     3142
   954                           	global	_ANS7
   955  0C47                     _ANS7  equ     3143
   956                           	global	_ANS8
   957  0C48                     _ANS8  equ     3144
   958                           	global	_ANS9
   959  0C49                     _ANS9  equ     3145
   960                           	global	_BRG16
   961  0C3B                     _BRG16  equ     3131
   962                           	global	_C1SEN
   963  0C2D                     _C1SEN  equ     3117
   964                           	global	_C2REN
   965  0C2C                     _C2REN  equ     3116
   966                           	global	_EEPGD
   967  0C67                     _EEPGD  equ     3175
   968                           	global	_FVREN
   969  0C28                     _FVREN  equ     3112
   970                           	global	_PULSR
   971  0C2A                     _PULSR  equ     3114
   972                           	global	_PULSS
   973  0C2B                     _PULSS  equ     3115
   974                           	global	_RCIDL
   975  0C3E                     _RCIDL  equ     3134
   976                           	global	_RD
   977  0C60                     _RD  equ     3168
   978                           	global	_SCKP
   979  0C3C                     _SCKP  equ     3132
   980                           	global	_SR0
   981  0C2E                     _SR0  equ     3118
   982                           	global	_SR1
   983  0C2F                     _SR1  equ     3119
   984                           	global	_WR
   985  0C61                     _WR  equ     3169
   986                           	global	_WREN
   987  0C62                     _WREN  equ     3170
   988                           	global	_WRERR
   989  0C63                     _WRERR  equ     3171
   990                           	global	_WUE
   991  0C39                     _WUE  equ     3129
   992                           psect	strings,class=CODE,delta=2,reloc=256
   993                           global __pstrings
   994  0900                     __pstrings:
   995                           	global	stringdir,stringtab,__stringbase
   996  0900                     stringtab:
   997                           ;	String table - string pointers are 2 bytes each
   998  0900  00FE               	movwf	(btemp)&07Fh
   999  0901  1FFE               	btfss	(btemp)&07Fh,7
  1000  0902  2908               	goto	stringcode
  1001  0903  1383               	bcf	status,7
  1002  0904  187E               	btfsc	btemp&7Fh,0
  1003  0905  1783               	bsf	status,7
  1004  0906  0800               	movf	indf,w
  1005  0907  0008               	return
  1006  0908                     stringcode:
  1007  0908  008A               	movwf	pclath
  1008  0909  0804               	movf	fsr,w
  1009  090A                     stringdir:
  1010  090A  0082               	movwf pc
  1011  090B                     __stringbase:
  1012                           psect	stringtext1,class=CODE,delta=2
  1013                           global __pstringtext1
  1014  015D                     __pstringtext1:
  1015                           	
  1016  015D                     STR_17:	
  1017  015D  3457               	retlw	87	;'W'
  1018  015E  3449               	retlw	73	;'I'
  1019  015F  3454               	retlw	84	;'T'
  1020  0160  3448               	retlw	72	;'H'
  1021  0161  3444               	retlw	68	;'D'
  1022  0162  3452               	retlw	82	;'R'
  1023  0163  3441               	retlw	65	;'A'
  1024  0164  3457               	retlw	87	;'W'
  1025  0165  3420               	retlw	32	;' '
  1026  0166  3453               	retlw	83	;'S'
  1027  0167  3455               	retlw	85	;'U'
  1028  0168  3443               	retlw	67	;'C'
  1029  0169  3443               	retlw	67	;'C'
  1030  016A  3445               	retlw	69	;'E'
  1031  016B  3453               	retlw	83	;'S'
  1032  016C  3453               	retlw	83	;'S'
  1033  016D  3446               	retlw	70	;'F'
  1034  016E  3455               	retlw	85	;'U'
  1035  016F  344C               	retlw	76	;'L'
  1036  0170  3400               	retlw	0
  1037                           psect	stringtext2,class=CODE,delta=2
  1038                           global __pstringtext2
  1039  013B                     __pstringtext2:
  1040                           	
  1041  013B                     STR_4:	
  1042  013B  3443               	retlw	67	;'C'
  1043  013C  344F               	retlw	79	;'O'
  1044  013D  3452               	retlw	82	;'R'
  1045  013E  3452               	retlw	82	;'R'
  1046  013F  3445               	retlw	69	;'E'
  1047  0140  3443               	retlw	67	;'C'
  1048  0141  3454               	retlw	84	;'T'
  1049  0142  3420               	retlw	32	;' '
  1050  0143  3455               	retlw	85	;'U'
  1051  0144  3453               	retlw	83	;'S'
  1052  0145  3445               	retlw	69	;'E'
  1053  0146  3452               	retlw	82	;'R'
  1054  0147  344E               	retlw	78	;'N'
  1055  0148  3441               	retlw	65	;'A'
  1056  0149  344D               	retlw	77	;'M'
  1057  014A  3445               	retlw	69	;'E'
  1058  014B  3400               	retlw	0
  1059                           psect	stringtext3,class=CODE,delta=2
  1060                           global __pstringtext3
  1061  00F7                     __pstringtext3:
  1062                           	
  1063  00F7                     STR_16:	
  1064  00F7  3445               	retlw	69	;'E'
  1065  00F8  344E               	retlw	78	;'N'
  1066  00F9  3454               	retlw	84	;'T'
  1067  00FA  3445               	retlw	69	;'E'
  1068  00FB  3452               	retlw	82	;'R'
  1069  00FC  3420               	retlw	32	;' '
  1070  00FD  3441               	retlw	65	;'A'
  1071  00FE  344D               	retlw	77	;'M'
  1072  00FF  344F               	retlw	79	;'O'
  1073  0100  3455               	retlw	85	;'U'
  1074  0101  344E               	retlw	78	;'N'
  1075  0102  3454               	retlw	84	;'T'
  1076  0103  3420               	retlw	32	;' '
  1077  0104  342B               	retlw	43	;'+'
  1078  0105  3420               	retlw	32	;' '
  1079  0106  3423               	retlw	35	;'#'
  1080  0107  3400               	retlw	0
  1081                           psect	stringtext4,class=CODE,delta=2
  1082                           global __pstringtext4
  1083  014C                     __pstringtext4:
  1084                           	
  1085  014C                     STR_10:	
  1086  014C  3431               	retlw	49	;'1'
  1087  014D  342E               	retlw	46	;'.'
  1088  014E  3457               	retlw	87	;'W'
  1089  014F  3449               	retlw	73	;'I'
  1090  0150  3454               	retlw	84	;'T'
  1091  0151  3448               	retlw	72	;'H'
  1092  0152  3444               	retlw	68	;'D'
  1093  0153  3452               	retlw	82	;'R'
  1094  0154  3441               	retlw	65	;'A'
  1095  0155  3457               	retlw	87	;'W'
  1096  0156  3420               	retlw	32	;' '
  1097  0157  344D               	retlw	77	;'M'
  1098  0158  344F               	retlw	79	;'O'
  1099  0159  344E               	retlw	78	;'N'
  1100  015A  3445               	retlw	69	;'E'
  1101  015B  3459               	retlw	89	;'Y'
  1102  015C  3400               	retlw	0
  1103                           psect	stringtext5,class=CODE,delta=2
  1104                           global __pstringtext5
  1105  00E6                     __pstringtext5:
  1106                           	
  1107  00E6                     STR_3:	
  1108  00E6  3445               	retlw	69	;'E'
  1109  00E7  344E               	retlw	78	;'N'
  1110  00E8  3454               	retlw	84	;'T'
  1111  00E9  3445               	retlw	69	;'E'
  1112  00EA  3452               	retlw	82	;'R'
  1113  00EB  3420               	retlw	32	;' '
  1114  00EC  3434               	retlw	52	;'4'
  1115  00ED  3420               	retlw	32	;' '
  1116  00EE  3444               	retlw	68	;'D'
  1117  00EF  3449               	retlw	73	;'I'
  1118  00F0  3447               	retlw	71	;'G'
  1119  00F1  3449               	retlw	73	;'I'
  1120  00F2  3454               	retlw	84	;'T'
  1121  00F3  3420               	retlw	32	;' '
  1122  00F4  3449               	retlw	73	;'I'
  1123  00F5  3444               	retlw	68	;'D'
  1124  00F6  3400               	retlw	0
  1125                           psect	stringtext6,class=CODE,delta=2
  1126                           global __pstringtext6
  1127  0108                     __pstringtext6:
  1128                           	
  1129  0108                     STR_7:	
  1130  0108  3449               	retlw	73	;'I'
  1131  0109  344E               	retlw	78	;'N'
  1132  010A  3456               	retlw	86	;'V'
  1133  010B  3441               	retlw	65	;'A'
  1134  010C  344C               	retlw	76	;'L'
  1135  010D  3449               	retlw	73	;'I'
  1136  010E  3444               	retlw	68	;'D'
  1137  010F  3420               	retlw	32	;' '
  1138  0110  3450               	retlw	80	;'P'
  1139  0111  3441               	retlw	65	;'A'
  1140  0112  3453               	retlw	83	;'S'
  1141  0113  3453               	retlw	83	;'S'
  1142  0114  3457               	retlw	87	;'W'
  1143  0115  344F               	retlw	79	;'O'
  1144  0116  3452               	retlw	82	;'R'
  1145  0117  3444               	retlw	68	;'D'
  1146  0118  3400               	retlw	0
  1147                           psect	stringtext7,class=CODE,delta=2
  1148                           global __pstringtext7
  1149  00D5                     __pstringtext7:
  1150                           	
  1151  00D5                     STR_6:	
  1152  00D5  3443               	retlw	67	;'C'
  1153  00D6  344F               	retlw	79	;'O'
  1154  00D7  3452               	retlw	82	;'R'
  1155  00D8  3452               	retlw	82	;'R'
  1156  00D9  3445               	retlw	69	;'E'
  1157  00DA  3443               	retlw	67	;'C'
  1158  00DB  3454               	retlw	84	;'T'
  1159  00DC  3420               	retlw	32	;' '
  1160  00DD  3450               	retlw	80	;'P'
  1161  00DE  3441               	retlw	65	;'A'
  1162  00DF  3453               	retlw	83	;'S'
  1163  00E0  3453               	retlw	83	;'S'
  1164  00E1  3457               	retlw	87	;'W'
  1165  00E2  344F               	retlw	79	;'O'
  1166  00E3  3452               	retlw	82	;'R'
  1167  00E4  3444               	retlw	68	;'D'
  1168  00E5  3400               	retlw	0
  1169                           psect	stringtext8,class=CODE,delta=2
  1170                           global __pstringtext8
  1171  0119                     __pstringtext8:
  1172                           	
  1173  0119                     STR_2:	
  1174  0119  3450               	retlw	80	;'P'
  1175  011A  3452               	retlw	82	;'R'
  1176  011B  3445               	retlw	69	;'E'
  1177  011C  3453               	retlw	83	;'S'
  1178  011D  3453               	retlw	83	;'S'
  1179  011E  3420               	retlw	32	;' '
  1180  011F  3423               	retlw	35	;'#'
  1181  0120  3420               	retlw	32	;' '
  1182  0121  3454               	retlw	84	;'T'
  1183  0122  344F               	retlw	79	;'O'
  1184  0123  3420               	retlw	32	;' '
  1185  0124  3442               	retlw	66	;'B'
  1186  0125  3445               	retlw	69	;'E'
  1187  0126  3447               	retlw	71	;'G'
  1188  0127  3449               	retlw	73	;'I'
  1189  0128  344E               	retlw	78	;'N'
  1190  0129  3400               	retlw	0
  1191                           psect	stringtext9,class=CODE,delta=2
  1192                           global __pstringtext9
  1193  012A                     __pstringtext9:
  1194                           	
  1195  012A                     STR_5:	
  1196  012A  3445               	retlw	69	;'E'
  1197  012B  344E               	retlw	78	;'N'
  1198  012C  3454               	retlw	84	;'T'
  1199  012D  3445               	retlw	69	;'E'
  1200  012E  3452               	retlw	82	;'R'
  1201  012F  3420               	retlw	32	;' '
  1202  0130  3434               	retlw	52	;'4'
  1203  0131  3444               	retlw	68	;'D'
  1204  0132  3449               	retlw	73	;'I'
  1205  0133  3447               	retlw	71	;'G'
  1206  0134  3449               	retlw	73	;'I'
  1207  0135  3454               	retlw	84	;'T'
  1208  0136  3420               	retlw	32	;' '
  1209  0137  344B               	retlw	75	;'K'
  1210  0138  3445               	retlw	69	;'E'
  1211  0139  3459               	retlw	89	;'Y'
  1212  013A  3400               	retlw	0
  1213                           psect	stringtext10,class=CODE,delta=2
  1214                           global __pstringtext10
  1215  00A3                     __pstringtext10:
  1216                           	
  1217  00A3                     STR_11:	
  1218  00A3  3432               	retlw	50	;'2'
  1219  00A4  342E               	retlw	46	;'.'
  1220  00A5  3443               	retlw	67	;'C'
  1221  00A6  3448               	retlw	72	;'H'
  1222  00A7  3445               	retlw	69	;'E'
  1223  00A8  3443               	retlw	67	;'C'
  1224  00A9  344B               	retlw	75	;'K'
  1225  00AA  3420               	retlw	32	;' '
  1226  00AB  3442               	retlw	66	;'B'
  1227  00AC  3441               	retlw	65	;'A'
  1228  00AD  344C               	retlw	76	;'L'
  1229  00AE  3441               	retlw	65	;'A'
  1230  00AF  344E               	retlw	78	;'N'
  1231  00B0  3443               	retlw	67	;'C'
  1232  00B1  3445               	retlw	69	;'E'
  1233  00B2  3400               	retlw	0
  1234                           psect	stringtext11,class=CODE,delta=2
  1235                           global __pstringtext11
  1236  0085                     __pstringtext11:
  1237                           	
  1238  0085                     STR_1:	
  1239  0085  3457               	retlw	87	;'W'
  1240  0086  3445               	retlw	69	;'E'
  1241  0087  344C               	retlw	76	;'L'
  1242  0088  3443               	retlw	67	;'C'
  1243  0089  344F               	retlw	79	;'O'
  1244  008A  344D               	retlw	77	;'M'
  1245  008B  3445               	retlw	69	;'E'
  1246  008C  3420               	retlw	32	;' '
  1247  008D  3454               	retlw	84	;'T'
  1248  008E  344F               	retlw	79	;'O'
  1249  008F  3420               	retlw	32	;' '
  1250  0090  344B               	retlw	75	;'K'
  1251  0091  3456               	retlw	86	;'V'
  1252  0092  3442               	retlw	66	;'B'
  1253  0093  3400               	retlw	0
  1254                           psect	stringtext12,class=CODE,delta=2
  1255                           global __pstringtext12
  1256  0094                     __pstringtext12:
  1257                           	
  1258  0094                     STR_20:	
  1259  0094  3449               	retlw	73	;'I'
  1260  0095  344E               	retlw	78	;'N'
  1261  0096  3456               	retlw	86	;'V'
  1262  0097  3441               	retlw	65	;'A'
  1263  0098  344C               	retlw	76	;'L'
  1264  0099  3449               	retlw	73	;'I'
  1265  009A  3444               	retlw	68	;'D'
  1266  009B  3420               	retlw	32	;' '
  1267  009C  344E               	retlw	78	;'N'
  1268  009D  3455               	retlw	85	;'U'
  1269  009E  344D               	retlw	77	;'M'
  1270  009F  3442               	retlw	66	;'B'
  1271  00A0  3445               	retlw	69	;'E'
  1272  00A1  3452               	retlw	82	;'R'
  1273  00A2  3400               	retlw	0
  1274                           psect	stringtext13,class=CODE,delta=2
  1275                           global __pstringtext13
  1276  0069                     __pstringtext13:
  1277                           	
  1278  0069                     STR_18:	
  1279  0069  3449               	retlw	73	;'I'
  1280  006A  344E               	retlw	78	;'N'
  1281  006B  3453               	retlw	83	;'S'
  1282  006C  3455               	retlw	85	;'U'
  1283  006D  3446               	retlw	70	;'F'
  1284  006E  3446               	retlw	70	;'F'
  1285  006F  3449               	retlw	73	;'I'
  1286  0070  3443               	retlw	67	;'C'
  1287  0071  3449               	retlw	73	;'I'
  1288  0072  3445               	retlw	69	;'E'
  1289  0073  344E               	retlw	78	;'N'
  1290  0074  3443               	retlw	67	;'C'
  1291  0075  3454               	retlw	84	;'T'
  1292  0076  3400               	retlw	0
  1293                           psect	stringtext14,class=CODE,delta=2
  1294                           global __pstringtext14
  1295  0077                     __pstringtext14:
  1296                           	
  1297  0077                     STR_9:	
  1298  0077  3443               	retlw	67	;'C'
  1299  0078  3448               	retlw	72	;'H'
  1300  0079  344F               	retlw	79	;'O'
  1301  007A  344F               	retlw	79	;'O'
  1302  007B  3453               	retlw	83	;'S'
  1303  007C  3445               	retlw	69	;'E'
  1304  007D  3420               	retlw	32	;' '
  1305  007E  344F               	retlw	79	;'O'
  1306  007F  3450               	retlw	80	;'P'
  1307  0080  3454               	retlw	84	;'T'
  1308  0081  3449               	retlw	73	;'I'
  1309  0082  344F               	retlw	79	;'O'
  1310  0083  344E               	retlw	78	;'N'
  1311  0084  3400               	retlw	0
  1312                           psect	stringtext15,class=CODE,delta=2
  1313                           global __pstringtext15
  1314  005D                     __pstringtext15:
  1315                           	
  1316  005D                     STR_13:	
  1317  005D  3454               	retlw	84	;'T'
  1318  005E  344F               	retlw	79	;'O'
  1319  005F  3420               	retlw	32	;' '
  1320  0060  3457               	retlw	87	;'W'
  1321  0061  3449               	retlw	73	;'I'
  1322  0062  3454               	retlw	84	;'T'
  1323  0063  3448               	retlw	72	;'H'
  1324  0064  3444               	retlw	68	;'D'
  1325  0065  3452               	retlw	82	;'R'
  1326  0066  3441               	retlw	65	;'A'
  1327  0067  3457               	retlw	87	;'W'
  1328  0068  3400               	retlw	0
  1329                           psect	stringtext16,class=CODE,delta=2
  1330                           global __pstringtext16
  1331  003A                     __pstringtext16:
  1332                           	
  1333  003A                     STR_15:	
  1334  003A  3445               	retlw	69	;'E'
  1335  003B  344E               	retlw	78	;'N'
  1336  003C  3454               	retlw	84	;'T'
  1337  003D  3445               	retlw	69	;'E'
  1338  003E  3452               	retlw	82	;'R'
  1339  003F  3420               	retlw	32	;' '
  1340  0040  3430               	retlw	48	;'0'
  1341  0041  3430               	retlw	48	;'0'
  1342  0042  3435               	retlw	53	;'5'
  1343  0043  3435               	retlw	53	;'5'
  1344  0044  3400               	retlw	0
  1345                           psect	stringtext17,class=CODE,delta=2
  1346                           global __pstringtext17
  1347  0030                     __pstringtext17:
  1348                           	
  1349  0030                     STR_14:	
  1350  0030  3435               	retlw	53	;'5'
  1351  0031  3435               	retlw	53	;'5'
  1352  0032  3420               	retlw	32	;' '
  1353  0033  3452               	retlw	82	;'R'
  1354  0034  3455               	retlw	85	;'U'
  1355  0035  3450               	retlw	80	;'P'
  1356  0036  3445               	retlw	69	;'E'
  1357  0037  3445               	retlw	69	;'E'
  1358  0038  3453               	retlw	83	;'S'
  1359  0039  3400               	retlw	0
  1360                           psect	stringtext18,class=CODE,delta=2
  1361                           global __pstringtext18
  1362  0027                     __pstringtext18:
  1363                           	
  1364  0027                     STR_12:	
  1365  0027  3445               	retlw	69	;'E'
  1366  0028  3458               	retlw	88	;'X'
  1367  0029  3441               	retlw	65	;'A'
  1368  002A  344D               	retlw	77	;'M'
  1369  002B  3450               	retlw	80	;'P'
  1370  002C  344C               	retlw	76	;'L'
  1371  002D  3445               	retlw	69	;'E'
  1372  002E  343A               	retlw	58	;':'
  1373  002F  3400               	retlw	0
  1374                           psect	stringtext19,class=CODE,delta=2
  1375                           global __pstringtext19
  1376  001F                     __pstringtext19:
  1377                           	
  1378  001F                     STR_8:	
  1379  001F  3457               	retlw	87	;'W'
  1380  0020  3445               	retlw	69	;'E'
  1381  0021  344C               	retlw	76	;'L'
  1382  0022  3443               	retlw	67	;'C'
  1383  0023  344F               	retlw	79	;'O'
  1384  0024  344D               	retlw	77	;'M'
  1385  0025  3445               	retlw	69	;'E'
  1386  0026  3400               	retlw	0
  1387                           psect	stringtext20,class=CODE,delta=2
  1388                           global __pstringtext20
  1389  0003                     __pstringtext20:
  1390  00AB                     STR_19	equ	STR_11+8
  1391                           	file	"ATM.as"
  1392                           	line	#
  1393                           psect cinit,class=CODE,delta=2
  1394                           global start_initialization
  1395  01D4                     start_initialization:
  1396                           
  1397                           psect	bssCOMMON,class=COMMON,space=1
  1398                           global __pbssCOMMON
  1399  0079                     __pbssCOMMON:
  1400  0079                     _var:
  1401  0079                            ds      2
  1402                           
  1403                           psect	bssBANK0,class=BANK0,space=1
  1404                           global __pbssBANK0
  1405  0020                     __pbssBANK0:
  1406  0020                     _wdraw:
  1407  0020                            ds      20
  1408                           
  1409  0034                     _count:
  1410  0034                            ds      2
  1411                           
  1412  0036                     _count22:
  1413  0036                            ds      2
  1414                           
  1415  0038                     _count33:
  1416  0038                            ds      2
  1417                           
  1418  003A                     _count44:
  1419  003A                            ds      2
  1420                           
  1421  003C                     _count55:
  1422  003C                            ds      2
  1423                           
  1424  003E                     _countkey:
  1425  003E                            ds      2
  1426                           
  1427  0040                     _countspecial:
  1428  0040                            ds      2
  1429                           
  1430  0042                     _i:
  1431  0042                            ds      2
  1432                           
  1433  0044                     _j:
  1434  0044                            ds      2
  1435                           
  1436  0046                     _keytopwd:
  1437  0046                            ds      2
  1438                           
  1439  0048                     _withdraw:
  1440  0048                            ds      2
  1441                           
  1442                           psect	dataBANK0,class=BANK0,space=1
  1443                           global __pdataBANK0
  1444  005A                     __pdataBANK0:
  1445                           	file	"C:\Users\gowth\Documents\PIC Programs\LCD\ATM\ATM.c"
  1446                           	line	18
  1447  005A                     _balance:
  1448  005A                            ds      2
  1449                           
  1450                           psect	dataBANK0
  1451                           	file	"C:\Users\gowth\Documents\PIC Programs\LCD\ATM\ATM.c"
  1452                           	line	26
  1453  005C                     _countp:
  1454  005C                            ds      2
  1455                           
  1456                           psect	dataBANK0
  1457                           	file	"C:\Users\gowth\Documents\PIC Programs\LCD\ATM\ATM.c"
  1458                           	line	25
  1459  005E                     _countu:
  1460  005E                            ds      2
  1461                           
  1462                           psect	dataBANK0
  1463                           	file	"C:\Users\gowth\Documents\PIC Programs\LCD\ATM\ATM.c"
  1464                           	line	28
  1465  0060                     _countw:
  1466  0060                            ds      2
  1467                           
  1468                           psect	bssBANK1,class=BANK1,space=1
  1469                           global __pbssBANK1
  1470  00A0                     __pbssBANK1:
  1471  00A0                     _inputpass:
  1472  00A0                            ds      40
  1473                           
  1474  00C8                     _inputuser:
  1475  00C8                            ds      40
  1476                           
  1477                           psect	dataBANK3,class=BANK3,space=1
  1478                           global __pdataBANK3
  1479  0190                     __pdataBANK3:
  1480                           	file	"C:\Users\gowth\Documents\PIC Programs\LCD\ATM\ATM.c"
  1481                           	line	39
  1482  0190                     _password:
  1483  0190                            ds      20
  1484                           
  1485                           psect	dataBANK3
  1486                           	file	"C:\Users\gowth\Documents\PIC Programs\LCD\ATM\ATM.c"
  1487                           	line	37
  1488  01A4                     _username:
  1489  01A4                            ds      20
  1490                           
  1491                           psect clrtext,class=CODE,delta=2
  1492                           global clear_ram
  1493                           ;	Called with FSR containing the base address, and
  1494                           ;	W with the last address+1
  1495  0017                     clear_ram:
  1496  0017  0064               	clrwdt			;clear the watchdog before getting into this loop
  1497  0018                     clrloop:
  1498  0018  0180               	clrf	indf		;clear RAM location pointed to by FSR
  1499  0019  0A84               	incf	fsr,f		;increment pointer
  1500  001A  0604               	xorwf	fsr,w		;XOR with final address
  1501  001B  1903               	btfsc	status,2	;have we reached the end yet?
  1502  001C  3400               	retlw	0		;all done for this memory range, return
  1503  001D  0604               	xorwf	fsr,w		;XOR again to restore value
  1504  001E  2818               	goto	clrloop		;do the next byte
  1505                           
  1506                           ; Clear objects allocated to COMMON
  1507                           psect cinit,class=CODE,delta=2
  1508  01D4  01F9               	clrf	((__pbssCOMMON)+0)&07Fh
  1509  01D5  01FA               	clrf	((__pbssCOMMON)+1)&07Fh
  1510                           ; Clear objects allocated to BANK0
  1511                           psect cinit,class=CODE,delta=2
  1512  01D6  1383               	bcf	status, 7	;select IRP bank0
  1513  01D7  3020               	movlw	low(__pbssBANK0)
  1514  01D8  0084               	movwf	fsr
  1515  01D9  304A               	movlw	low((__pbssBANK0)+02Ah)
  1516  01DA  120A  118A  2017   	fcall	clear_ram
              120A  118A         
  1517                           ; Clear objects allocated to BANK1
  1518                           psect cinit,class=CODE,delta=2
  1519  01DF  30A0               	movlw	low(__pbssBANK1)
  1520  01E0  0084               	movwf	fsr
  1521  01E1  30F0               	movlw	low((__pbssBANK1)+050h)
  1522  01E2  120A  118A  2017   	fcall	clear_ram
              120A  118A         
  1523                           global btemp
  1524                           psect inittext,class=CODE,delta=2
  1525                           global init_fetch,btemp
  1526                           ;	Called with low address in FSR and high address in W
  1527  00B3                     init_fetch:
  1528  00B3  087E               	movf btemp,w
  1529  00B4  008A               	movwf pclath
  1530  00B5  087F               	movf btemp+1,w
  1531  00B6  0082               	movwf pc
  1532                           global init_ram
  1533                           ;Called with:
  1534                           ;	high address of idata address in btemp 
  1535                           ;	low address of idata address in btemp+1 
  1536                           ;	low address of data in FSR
  1537                           ;	high address + 1 of data in btemp-1
  1538  00B7                     init_ram:
  1539  00B7  20B3  120A  118A   	fcall init_fetch
  1540  00BA  0080               	movwf indf,f
  1541  00BB  0A84               	incf fsr,f
  1542  00BC  0804               	movf fsr,w
  1543  00BD  067D               	xorwf btemp-1,w
  1544  00BE  1903               	btfsc status,2
  1545  00BF  3400               	retlw 0
  1546  00C0  0AFF               	incf btemp+1,f
  1547  00C1  1903               	btfsc status,2
  1548  00C2  0AFE               	incf btemp,f
  1549  00C3  28B7               	goto init_ram
  1550                           ; Initialize objects allocated to BANK0
  1551                           psect cinit,class=CODE,delta=2
  1552                           global init_ram, __pidataBANK0
  1553  01E7  3062               	movlw low(__pdataBANK0+8)
  1554  01E8  00FD               	movwf btemp-1,f
  1555  01E9  3000               	movlw high(__pidataBANK0)
  1556  01EA  00FE               	movwf btemp,f
  1557  01EB  300F               	movlw low(__pidataBANK0)
  1558  01EC  00FF               	movwf btemp+1,f
  1559  01ED  305A               	movlw low(__pdataBANK0)
  1560  01EE  0084               	movwf fsr,f
  1561  01EF  120A  118A  20B7   	fcall init_ram
              120A  118A         
  1562                           ; Initialize objects allocated to BANK3
  1563                           psect cinit,class=CODE,delta=2
  1564                           global init_ram, __pidataBANK3
  1565  01F4  1783               	bsf	status, 7	;select IRP bank2
  1566  01F5  30B8               	movlw low(__pdataBANK3+40)
  1567  01F6  00FD               	movwf btemp-1,f
  1568  01F7  3001               	movlw high(__pidataBANK3)
  1569  01F8  00FE               	movwf btemp,f
  1570  01F9  30AC               	movlw low(__pidataBANK3)
  1571  01FA  00FF               	movwf btemp+1,f
  1572  01FB  3090               	movlw low(__pdataBANK3)
  1573  01FC  0084               	movwf fsr,f
  1574  01FD  120A  118A  20B7   	fcall init_ram
              120A  118A         
  1575                           psect cinit,class=CODE,delta=2
  1576                           global end_of_initialization
  1577                           
  1578                           ;End of C runtime variable initationation code
  1579                           
  1580  0202                     end_of_initialization:
  1581  0202  0183               clrf status
  1582  0203  120A  158A  299F   ljmp _main	;jump to C main() function
  1583                           psect	cstackCOMMON,class=COMMON,space=1
  1584                           global __pcstackCOMMON
  1585  0070                     __pcstackCOMMON:
  1586                           	global	??___awmod
  1587  0070                     ??___awmod: ;@ 0x0
  1588                           	global	??___awdiv
  1589  0070                     ??___awdiv: ;@ 0x0
  1590                           	global	??_string
  1591  0070                     ??_string: ;@ 0x0
  1592                           	global	??__delay
  1593  0070                     ??__delay: ;@ 0x0
  1594                           	global	?__delay
  1595  0070                     ?__delay: ;@ 0x0
  1596                           	global	??_data
  1597  0070                     ??_data: ;@ 0x0
  1598                           	global	??_delay
  1599  0070                     ??_delay: ;@ 0x0
  1600                           	global	?_delay
  1601  0070                     ?_delay: ;@ 0x0
  1602                           	global	??_command
  1603  0070                     ??_command: ;@ 0x0
  1604                           	global	??_pulse
  1605  0070                     ??_pulse: ;@ 0x0
  1606                           	global	delay@x
  1607  0070                     delay@x:	; 2 bytes @ 0x0
  1608                           	global	__delay$0
  1609  0070                     __delay$0:	; 4 bytes @ 0x0
  1610  0070                     	ds	1
  1611                           	global	___awdiv@counter
  1612  0071                     ___awdiv@counter:	; 1 bytes @ 0x1
  1613                           	global	___awmod@sign
  1614  0071                     ___awmod@sign:	; 1 bytes @ 0x1
  1615  0071                     	ds	1
  1616                           	global	?_pulse
  1617  0072                     ?_pulse: ;@ 0x2
  1618                           	global	___awdiv@sign
  1619  0072                     ___awdiv@sign:	; 1 bytes @ 0x2
  1620                           	global	___awmod@counter
  1621  0072                     ___awmod@counter:	; 1 bytes @ 0x2
  1622                           	global	data@data
  1623  0072                     data@data:	; 1 bytes @ 0x2
  1624                           	global	command@data
  1625  0072                     command@data:	; 1 bytes @ 0x2
  1626  0072                     	ds	1
  1627                           	global	?_data
  1628  0073                     ?_data: ;@ 0x3
  1629                           	global	?_string
  1630  0073                     ?_string: ;@ 0x3
  1631                           	global	?_command
  1632  0073                     ?_command: ;@ 0x3
  1633                           	global	?___awmod
  1634  0073                     ?___awmod: ;@ 0x3
  1635                           	global	string@ptr
  1636  0073                     string@ptr:	; 2 bytes @ 0x3
  1637                           	global	___awdiv@quotient
  1638  0073                     ___awdiv@quotient:	; 2 bytes @ 0x3
  1639                           	global	___awmod@dividend
  1640  0073                     ___awmod@dividend:	; 2 bytes @ 0x3
  1641  0073                     	ds	2
  1642                           	global	___awmod@divisor
  1643  0075                     ___awmod@divisor:	; 2 bytes @ 0x5
  1644  0075                     	ds	2
  1645                           	global	??_main
  1646  0077                     ??_main: ;@ 0x7
  1647  0077                     	ds	2
  1648                           	global	?_main
  1649  0079                     ?_main: ;@ 0x9
  1650                           psect	cstackBANK0,class=BANK0,space=1
  1651                           global __pcstackBANK0
  1652  004A                     __pcstackBANK0:
  1653                           	global	?___awdiv
  1654  004A                     ?___awdiv: ;@ 0x0
  1655                           	global	___awdiv@dividend
  1656  004A                     ___awdiv@dividend:	; 2 bytes @ 0x0
  1657  004A                     	ds	2
  1658                           	global	___awdiv@divisor
  1659  004C                     ___awdiv@divisor:	; 2 bytes @ 0x2
  1660  004C                     	ds	2
  1661                           	global	main@p
  1662  004E                     main@p:	; 2 bytes @ 0x4
  1663  004E                     	ds	2
  1664                           	global	main@q
  1665  0050                     main@q:	; 2 bytes @ 0x6
  1666  0050                     	ds	2
  1667                           	global	main@n
  1668  0052                     main@n:	; 2 bytes @ 0x8
  1669  0052                     	ds	2
  1670                           	global	main@l
  1671  0054                     main@l:	; 2 bytes @ 0xA
  1672  0054                     	ds	2
  1673                           	global	main@m
  1674  0056                     main@m:	; 2 bytes @ 0xC
  1675  0056                     	ds	2
  1676                           	global	main@o
  1677  0058                     main@o:	; 2 bytes @ 0xE
  1678  0058                     	ds	2
  1679                           ;Data sizes: Strings 280, constant 0, data 48, bss 124, persistent 0 stack 0
  1680                           ;Auto spaces:   Size  Autos    Used
  1681                           ; COMMON          14      9      11
  1682                           ; BANK0           80     16      66
  1683                           ; BANK1           80      0      80
  1684                           ; BANK3           96      0      40
  1685                           ; BANK2           96      0       0
  1686                           
  1687                           
  1688                           ;Pointer list with targets:
  1689                           
  1690                           ;string@ptr	PTR unsigned char  size(2); Largest target is 20
  1691                           ;		 -> STR_2(CODE[17]), STR_1(CODE[15]), STR_3(CODE[17]), STR_4(CODE[17]), 
  1692                           ;		 -> STR_5(CODE[17]), STR_7(CODE[17]), STR_6(CODE[17]), STR_8(CODE[8]), 
  1693                           ;		 -> STR_10(CODE[17]), STR_11(CODE[16]), STR_9(CODE[14]), STR_18(CODE[14]), 
  1694                           ;		 -> STR_17(CODE[20]), STR_19(CODE[8]), STR_20(CODE[15]), STR_13(CODE[12]), 
  1695                           ;		 -> STR_14(CODE[10]), STR_12(CODE[9]), STR_15(CODE[11]), STR_16(CODE[17]), 
  1696                           ;?___awdiv	int  size(1); Largest target is 0
  1697                           ;?___awmod	int  size(1); Largest target is 0
  1698                           
  1699                           
  1700                           ;Main: autosize = 0, tempsize = 2, incstack = 0, save=0
  1701                           
  1702                           
  1703                           ;Call graph:                      Base Space Used Autos Args Refs Density
  1704                           ;_main                                               14    0  911   0.00
  1705                           ;                                    7 COMMO    2
  1706                           ;                                    4 BANK0   12
  1707                           ;            ___awdiv
  1708                           ;            ___awmod
  1709                           ;            _command
  1710                           ;             _string
  1711                           ;               _data
  1712                           ;             __delay
  1713                           ;  __delay                                            0    4    0   0.00
  1714                           ;                                    0 COMMO    4
  1715                           ;  _string                                            0    2   65   0.00
  1716                           ;                                    3 COMMO    2
  1717                           ;               _data
  1718                           ;  _command                                           1    0   32   0.00
  1719                           ;                                    2 COMMO    1
  1720                           ;              _pulse
  1721                           ;  ___awdiv                                           5    4  354   0.00
  1722                           ;                                    0 COMMO    5
  1723                           ;                                    0 BANK0    4
  1724                           ;  ___awmod                                           3    4  218   0.00
  1725                           ;                                    0 COMMO    7
  1726                           ;    _data                                            1    0   32   0.00
  1727                           ;                                    2 COMMO    1
  1728                           ;              _pulse
  1729                           ;      _pulse                                         0    0   16   0.00
  1730                           ;              _delay
  1731                           ;        _delay                                       0    2   16   0.00
  1732                           ;                                    0 COMMO    2
  1733                           ; Estimated maximum call depth 4
  1734                           ; Address spaces:
  1735                           
  1736                           ;Name               Size   Autos  Total    Cost      Usage
  1737                           ;BITCOMMON            E      0       0       0        0.0%
  1738                           ;CODE                 0      0       0       0        0.0%
  1739                           ;NULL                 0      0       0       0        0.0%
  1740                           ;COMMON               E      9       B       1       78.6%
  1741                           ;SFR0                 0      0       0       1        0.0%
  1742                           ;BITSFR0              0      0       0       1        0.0%
  1743                           ;BITSFR1              0      0       0       2        0.0%
  1744                           ;SFR1                 0      0       0       2        0.0%
  1745                           ;ABS                  0      0      C5       2        0.0%
  1746                           ;STACK                0      0       0       3        0.0%
  1747                           ;BITBANK0            50      0       0       4        0.0%
  1748                           ;SFR3                 0      0       0       4        0.0%
  1749                           ;BITSFR3              0      0       0       4        0.0%
  1750                           ;BANK0               50     10      42       5       82.5%
  1751                           ;BITSFR2              0      0       0       5        0.0%
  1752                           ;SFR2                 0      0       0       5        0.0%
  1753                           ;BITBANK1            50      0       0       6        0.0%
  1754                           ;BANK1               50      0      50       7      100.0%
  1755                           ;BITBANK3            60      0       0       8        0.0%
  1756                           ;BANK3               60      0      28       9       41.7%
  1757                           ;BITBANK2            60      0       0      10        0.0%
  1758                           ;BANK2               60      0       0      11        0.0%
  1759                           ;DATA                 0      0      C5      12        0.0%
  1760                           ;EEDATA             100      0       0    1000        0.0%
  1761                           
  1762                           	global	_main
  1763                           psect	maintext,local,class=CODE,delta=2
  1764                           global __pmaintext
  1765  099F                     __pmaintext:
  1766                           
  1767                           ; *************** function _main *****************
  1768                           ; Defined at:
  1769                           ;		line 81 in file "C:\Users\gowth\Documents\PIC Programs\LCD\ATM\ATM.c"
  1770                           ; Parameters:    Size  Location     Type
  1771                           ;		None
  1772                           ; Auto vars:     Size  Location     Type
  1773                           ;  o               2   14[BANK0 ] int 
  1774                           ;  m               2   12[BANK0 ] int 
  1775                           ;  q               2    6[BANK0 ] int 
  1776                           ;  p               2    4[BANK0 ] int 
  1777                           ;  n               2    8[BANK0 ] int 
  1778                           ;  l               2   10[BANK0 ] int 
  1779                           ; Return value:  Size  Location     Type
  1780                           ;		None               void
  1781                           ; Registers used:
  1782                           ;		wreg, fsr0l, fsr0h, status,2, status,0, pclath, cstack
  1783                           ; Tracked objects:
  1784                           ;		On entry : 17F/0
  1785                           ;		On exit  : 0/0
  1786                           ;		Unchanged: 0/0
  1787                           ; Data sizes:     COMMON   BANK0   BANK1   BANK3   BANK2
  1788                           ;      Locals:         2      12       0       0       0
  1789                           ;      Temp:     2
  1790                           ;      Total:   14
  1791                           ; This function calls:
  1792                           ;		___awdiv
  1793                           ;		___awmod
  1794                           ;		_command
  1795                           ;		_string
  1796                           ;		_data
  1797                           ;		__delay
  1798                           ; This function is called by:
  1799                           ;		Startup code after reset
  1800                           ; This function uses a non-reentrant model
  1801                           ; 
  1802                           psect	maintext
  1803                           	file	"C:\Users\gowth\Documents\PIC Programs\LCD\ATM\ATM.c"
  1804                           	line	81
  1805                           	global	__size_of_main
  1806  FE61                     	__size_of_main	equ	__end_of_main-_main
  1807                           ;ATM.c: 80: void main()
  1808                           ;ATM.c: 81: {
  1809                           	
  1810  099F                     _main:	
  1811                           	opt stack 7
  1812                           ; Regs used in _main: [wreg-fsr0h+status,2+status,0+pclath+cstack]
  1813                           	line	83
  1814                           	
  1815  099F                     l30001232:	
  1816                           ;ATM.c: 83: int l=balance/1000;
  1817  099F  085B               	movf	(_balance+1),w
  1818  09A0  01CB               	clrf	(?___awdiv+1)
  1819  09A1  07CB               	addwf	(?___awdiv+1)
  1820  09A2  085A               	movf	(_balance),w
  1821  09A3  01CA               	clrf	(?___awdiv)
  1822  09A4  07CA               	addwf	(?___awdiv)
  1823                           
  1824  09A5  30E8               	movlw	low(03E8h)
  1825  09A6  00CC               	movwf	0+(?___awdiv)+02h
  1826  09A7  3003               	movlw	high(03E8h)
  1827  09A8  00CD               	movwf	(0+(?___awdiv)+02h)+1
  1828  09A9  120A  118A  2266   	fcall	___awdiv
              120A  158A         
  1829  09AE  1383               	bcf	status, 7	;select IRP bank0
  1830  09AF  1283               	bcf	status, 5	;RP0=0, select bank0
  1831  09B0  1303               	bcf	status, 6	;RP1=0, select bank0
  1832  09B1  084B               	movf	(1+(?___awdiv)),w
  1833  09B2  01D5               	clrf	(main@l+1)
  1834  09B3  07D5               	addwf	(main@l+1)
  1835  09B4  084A               	movf	(0+(?___awdiv)),w
  1836  09B5  01D4               	clrf	(main@l)
  1837  09B6  07D4               	addwf	(main@l)
  1838                           
  1839                           	line	84
  1840                           ;ATM.c: 84: int m=balance%1000;
  1841  09B7  085B               	movf	(_balance+1),w
  1842  09B8  01F4               	clrf	(?___awmod+1)
  1843  09B9  07F4               	addwf	(?___awmod+1)
  1844  09BA  085A               	movf	(_balance),w
  1845  09BB  01F3               	clrf	(?___awmod)
  1846  09BC  07F3               	addwf	(?___awmod)
  1847                           
  1848  09BD  30E8               	movlw	low(03E8h)
  1849  09BE  00F5               	movwf	0+(?___awmod)+02h
  1850  09BF  3003               	movlw	high(03E8h)
  1851  09C0  00F6               	movwf	(0+(?___awmod)+02h)+1
  1852  09C1  120A  118A  2206   	fcall	___awmod
              120A  158A         
  1853  09C6  0874               	movf	(1+(?___awmod)),w
  1854  09C7  1283               	bcf	status, 5	;RP0=0, select bank0
  1855  09C8  1303               	bcf	status, 6	;RP1=0, select bank0
  1856  09C9  01D7               	clrf	(main@m+1)
  1857  09CA  07D7               	addwf	(main@m+1)
  1858  09CB  0873               	movf	(0+(?___awmod)),w
  1859  09CC  01D6               	clrf	(main@m)
  1860  09CD  07D6               	addwf	(main@m)
  1861                           
  1862                           	line	85
  1863                           ;ATM.c: 85: int n=m/100;
  1864  09CE  0857               	movf	(main@m+1),w
  1865  09CF  01CB               	clrf	(?___awdiv+1)
  1866  09D0  07CB               	addwf	(?___awdiv+1)
  1867  09D1  0856               	movf	(main@m),w
  1868  09D2  01CA               	clrf	(?___awdiv)
  1869  09D3  07CA               	addwf	(?___awdiv)
  1870                           
  1871  09D4  3064               	movlw	low(064h)
  1872  09D5  00CC               	movwf	0+(?___awdiv)+02h
  1873  09D6  3000               	movlw	high(064h)
  1874  09D7  00CD               	movwf	(0+(?___awdiv)+02h)+1
  1875  09D8  120A  118A  2266   	fcall	___awdiv
              120A  158A         
  1876  09DD  1383               	bcf	status, 7	;select IRP bank0
  1877  09DE  1283               	bcf	status, 5	;RP0=0, select bank0
  1878  09DF  1303               	bcf	status, 6	;RP1=0, select bank0
  1879  09E0  084B               	movf	(1+(?___awdiv)),w
  1880  09E1  01D3               	clrf	(main@n+1)
  1881  09E2  07D3               	addwf	(main@n+1)
  1882  09E3  084A               	movf	(0+(?___awdiv)),w
  1883  09E4  01D2               	clrf	(main@n)
  1884  09E5  07D2               	addwf	(main@n)
  1885                           
  1886                           	line	86
  1887                           ;ATM.c: 86: int o=m%100;
  1888  09E6  0857               	movf	(main@m+1),w
  1889  09E7  01F4               	clrf	(?___awmod+1)
  1890  09E8  07F4               	addwf	(?___awmod+1)
  1891  09E9  0856               	movf	(main@m),w
  1892  09EA  01F3               	clrf	(?___awmod)
  1893  09EB  07F3               	addwf	(?___awmod)
  1894                           
  1895  09EC  3064               	movlw	low(064h)
  1896  09ED  00F5               	movwf	0+(?___awmod)+02h
  1897  09EE  3000               	movlw	high(064h)
  1898  09EF  00F6               	movwf	(0+(?___awmod)+02h)+1
  1899  09F0  120A  118A  2206   	fcall	___awmod
              120A  158A         
  1900  09F5  0874               	movf	(1+(?___awmod)),w
  1901  09F6  1283               	bcf	status, 5	;RP0=0, select bank0
  1902  09F7  1303               	bcf	status, 6	;RP1=0, select bank0
  1903  09F8  01D9               	clrf	(main@o+1)
  1904  09F9  07D9               	addwf	(main@o+1)
  1905  09FA  0873               	movf	(0+(?___awmod)),w
  1906  09FB  01D8               	clrf	(main@o)
  1907  09FC  07D8               	addwf	(main@o)
  1908                           
  1909                           	line	87
  1910                           ;ATM.c: 87: int p=o/10;
  1911  09FD  0859               	movf	(main@o+1),w
  1912  09FE  01CB               	clrf	(?___awdiv+1)
  1913  09FF  07CB               	addwf	(?___awdiv+1)
  1914  0A00  0858               	movf	(main@o),w
  1915  0A01  01CA               	clrf	(?___awdiv)
  1916  0A02  07CA               	addwf	(?___awdiv)
  1917                           
  1918  0A03  300A               	movlw	low(0Ah)
  1919  0A04  00CC               	movwf	0+(?___awdiv)+02h
  1920  0A05  3000               	movlw	high(0Ah)
  1921  0A06  00CD               	movwf	(0+(?___awdiv)+02h)+1
  1922  0A07  120A  118A  2266   	fcall	___awdiv
              120A  158A         
  1923  0A0C  1383               	bcf	status, 7	;select IRP bank0
  1924  0A0D  1283               	bcf	status, 5	;RP0=0, select bank0
  1925  0A0E  1303               	bcf	status, 6	;RP1=0, select bank0
  1926  0A0F  084B               	movf	(1+(?___awdiv)),w
  1927  0A10  01CF               	clrf	(main@p+1)
  1928  0A11  07CF               	addwf	(main@p+1)
  1929  0A12  084A               	movf	(0+(?___awdiv)),w
  1930  0A13  01CE               	clrf	(main@p)
  1931  0A14  07CE               	addwf	(main@p)
  1932                           
  1933                           	line	88
  1934                           ;ATM.c: 88: int q=o%10;
  1935  0A15  0859               	movf	(main@o+1),w
  1936  0A16  01F4               	clrf	(?___awmod+1)
  1937  0A17  07F4               	addwf	(?___awmod+1)
  1938  0A18  0858               	movf	(main@o),w
  1939  0A19  01F3               	clrf	(?___awmod)
  1940  0A1A  07F3               	addwf	(?___awmod)
  1941                           
  1942  0A1B  300A               	movlw	low(0Ah)
  1943  0A1C  00F5               	movwf	0+(?___awmod)+02h
  1944  0A1D  3000               	movlw	high(0Ah)
  1945  0A1E  00F6               	movwf	(0+(?___awmod)+02h)+1
  1946  0A1F  120A  118A  2206   	fcall	___awmod
              120A  158A         
  1947  0A24  0874               	movf	(1+(?___awmod)),w
  1948  0A25  1283               	bcf	status, 5	;RP0=0, select bank0
  1949  0A26  1303               	bcf	status, 6	;RP1=0, select bank0
  1950  0A27  01D1               	clrf	(main@q+1)
  1951  0A28  07D1               	addwf	(main@q+1)
  1952  0A29  0873               	movf	(0+(?___awmod)),w
  1953  0A2A  01D0               	clrf	(main@q)
  1954  0A2B  07D0               	addwf	(main@q)
  1955                           
  1956                           	
  1957  0A2C                     l30001233:	
  1958                           	line	90
  1959                           ;ATM.c: 90: TRISD=0X00; PORTD=0X00; ANSEL=0;
  1960  0A2C  1003               	clrc
  1961  0A2D  3000               	movlw	0
  1962  0A2E  1803               	btfsc	status,0
  1963  0A2F  3001               	movlw	1
  1964  0A30  1683               	bsf	status, 5	;RP0=1, select bank1
  1965  0A31  1303               	bcf	status, 6	;RP1=0, select bank1
  1966  0A32  0088               	movwf	(136)^080h	;volatile
  1967                           	
  1968  0A33                     l30001234:	
  1969  0A33  1003               	clrc
  1970  0A34  3000               	movlw	0
  1971  0A35  1803               	btfsc	status,0
  1972  0A36  3001               	movlw	1
  1973  0A37  1283               	bcf	status, 5	;RP0=0, select bank0
  1974  0A38  1303               	bcf	status, 6	;RP1=0, select bank0
  1975  0A39  0088               	movwf	(8)	;volatile
  1976                           	
  1977  0A3A                     l30001235:	
  1978  0A3A  1003               	clrc
  1979  0A3B  3000               	movlw	0
  1980  0A3C  1803               	btfsc	status,0
  1981  0A3D  3001               	movlw	1
  1982  0A3E  1683               	bsf	status, 5	;RP0=1, select bank3
  1983  0A3F  1703               	bsf	status, 6	;RP1=1, select bank3
  1984  0A40  0088               	movwf	(392)^0180h
  1985                           	
  1986  0A41                     l30001236:	
  1987                           	line	91
  1988                           ;ATM.c: 91: TRISE=0X00; PORTE=0X00; ANSELH=0;
  1989  0A41  1003               	clrc
  1990  0A42  3000               	movlw	0
  1991  0A43  1803               	btfsc	status,0
  1992  0A44  3001               	movlw	1
  1993  0A45  1683               	bsf	status, 5	;RP0=1, select bank1
  1994  0A46  1303               	bcf	status, 6	;RP1=0, select bank1
  1995  0A47  0089               	movwf	(137)^080h	;volatile
  1996                           	
  1997  0A48                     l30001237:	
  1998  0A48  1003               	clrc
  1999  0A49  3000               	movlw	0
  2000  0A4A  1803               	btfsc	status,0
  2001  0A4B  3001               	movlw	1
  2002  0A4C  1283               	bcf	status, 5	;RP0=0, select bank0
  2003  0A4D  1303               	bcf	status, 6	;RP1=0, select bank0
  2004  0A4E  0089               	movwf	(9)	;volatile
  2005                           	
  2006  0A4F                     l30001238:	
  2007  0A4F  1003               	clrc
  2008  0A50  3000               	movlw	0
  2009  0A51  1803               	btfsc	status,0
  2010  0A52  3001               	movlw	1
  2011  0A53  1683               	bsf	status, 5	;RP0=1, select bank3
  2012  0A54  1703               	bsf	status, 6	;RP1=1, select bank3
  2013  0A55  0089               	movwf	(393)^0180h
  2014                           	
  2015  0A56                     l30001239:	
  2016                           	line	92
  2017                           ;ATM.c: 92: TRISB=0X07; PORTB=0X00;
  2018  0A56  3007               	movlw	(07h)
  2019  0A57  1683               	bsf	status, 5	;RP0=1, select bank1
  2020  0A58  1303               	bcf	status, 6	;RP1=0, select bank1
  2021  0A59  0086               	movwf	(134)^080h	;volatile
  2022                           	
  2023  0A5A                     l30001240:	
  2024  0A5A  1003               	clrc
  2025  0A5B  3000               	movlw	0
  2026  0A5C  1803               	btfsc	status,0
  2027  0A5D  3001               	movlw	1
  2028  0A5E  1283               	bcf	status, 5	;RP0=0, select bank0
  2029  0A5F  1303               	bcf	status, 6	;RP1=0, select bank0
  2030  0A60  0086               	movwf	(6)	;volatile
  2031                           	
  2032  0A61                     l30001241:	
  2033                           	line	94
  2034                           ;ATM.c: 94: command(0X0C);
  2035  0A61  300C               	movlw	(0Ch)
  2036  0A62  120A  118A  2051   	fcall	_command
              120A  158A         
  2037                           	
  2038  0A67                     l30001242:	
  2039                           	line	95
  2040                           ;ATM.c: 95: command(0X38);
  2041  0A67  3038               	movlw	(038h)
  2042  0A68  120A  118A  2051   	fcall	_command
              120A  158A         
  2043                           	
  2044  0A6D                     l30001243:	
  2045                           	line	97
  2046                           ;ATM.c: 97: if(count==0)
  2047  0A6D  1283               	bcf	status, 5	;RP0=0, select bank0
  2048  0A6E  1303               	bcf	status, 6	;RP1=0, select bank0
  2049  0A6F  0835               	movf	((_count+1)),w
  2050  0A70  0434               	iorwf	((_count)),w
  2051  0A71  1D03               	skipz
  2052  0A72  2A74               	goto	u2691
  2053  0A73  2A75               	goto	u2690
  2054  0A74                     u2691:
  2055  0A74  2A84               	goto	l30001246
  2056  0A75                     u2690:
  2057                           	
  2058  0A75                     l30001244:	
  2059                           	line	99
  2060                           ;ATM.c: 98: {
  2061                           ;ATM.c: 99: command(0X80);
  2062  0A75  3080               	movlw	(080h)
  2063  0A76  120A  118A  2051   	fcall	_command
              120A  158A         
  2064                           	
  2065  0A7B                     l30001245:	
  2066                           	line	100
  2067                           ;ATM.c: 100: string("WELCOME TO KVB");
  2068  0A7B  3085               	movlw	low((STR_1))
  2069  0A7C  00F3               	movwf	(?_string)
  2070  0A7D  3000               	movlw	high((STR_1))
  2071  0A7E  00F4               	movwf	((?_string))+1
  2072  0A7F  120A  118A  218A   	fcall	_string
              120A  158A         
  2073                           	
  2074  0A84                     l30001246:	
  2075                           	line	103
  2076                           ;ATM.c: 101: }
  2077                           ;ATM.c: 103: if(count==0)
  2078  0A84  1283               	bcf	status, 5	;RP0=0, select bank0
  2079  0A85  1303               	bcf	status, 6	;RP1=0, select bank0
  2080  0A86  0835               	movf	((_count+1)),w
  2081  0A87  0434               	iorwf	((_count)),w
  2082  0A88  1D03               	skipz
  2083  0A89  2A8B               	goto	u2701
  2084  0A8A  2A8C               	goto	u2700
  2085  0A8B                     u2701:
  2086  0A8B  2A9B               	goto	l30001249
  2087  0A8C                     u2700:
  2088                           	
  2089  0A8C                     l30001247:	
  2090                           	line	105
  2091                           ;ATM.c: 104: {
  2092                           ;ATM.c: 105: command(0XC0);
  2093  0A8C  30C0               	movlw	(0C0h)
  2094  0A8D  120A  118A  2051   	fcall	_command
              120A  158A         
  2095                           	
  2096  0A92                     l30001248:	
  2097                           	line	106
  2098                           ;ATM.c: 106: string("PRESS # TO BEGIN");
  2099  0A92  3019               	movlw	low((STR_2))
  2100  0A93  00F3               	movwf	(?_string)
  2101  0A94  3001               	movlw	high((STR_2))
  2102  0A95  00F4               	movwf	((?_string))+1
  2103  0A96  120A  118A  218A   	fcall	_string
              120A  158A         
  2104                           	
  2105  0A9B                     l30001249:	
  2106                           	line	111
  2107                           ;ATM.c: 110: {
  2108                           ;ATM.c: 111: RB3=0,RB4=0,RB5=0,RB6=1;
  2109  0A9B  1283               	bcf	status, 5	;RP0=0, select bank0
  2110  0A9C  1303               	bcf	status, 6	;RP1=0, select bank0
  2111  0A9D  1186               	bcf	(51/8),(51)&7
  2112                           	
  2113  0A9E                     l30001250:	
  2114  0A9E  1206               	bcf	(52/8),(52)&7
  2115                           	
  2116  0A9F                     l30001251:	
  2117  0A9F  1286               	bcf	(53/8),(53)&7
  2118                           	
  2119  0AA0                     l30001252:	
  2120  0AA0  1706               	bsf	(54/8),(54)&7
  2121                           	
  2122  0AA1                     l30001253:	
  2123                           	line	112
  2124                           ;ATM.c: 112: if(RB2==1)
  2125  0AA1  1D06               	btfss	(50/8),(50)&7
  2126  0AA2  2AA4               	goto	u2711
  2127  0AA3  2AA5               	goto	u2710
  2128  0AA4                     u2711:
  2129  0AA4  2A9B               	goto	l30001249
  2130  0AA5                     u2710:
  2131                           	
  2132  0AA5                     l30001254:	
  2133                           	line	114
  2134                           ;ATM.c: 113: {
  2135                           ;ATM.c: 114: command(0X01);
  2136  0AA5  3001               	movlw	(01h)
  2137  0AA6  120A  118A  2051   	fcall	_command
              120A  158A         
  2138                           	
  2139  0AAB                     l30001255:	
  2140                           	line	115
  2141                           ;ATM.c: 115: countkey++;
  2142  0AAB  3001               	movlw	low(01h)
  2143  0AAC  1283               	bcf	status, 5	;RP0=0, select bank0
  2144  0AAD  1303               	bcf	status, 6	;RP1=0, select bank0
  2145  0AAE  07BE               	addwf	(_countkey),f
  2146  0AAF  1803               	skipnc
  2147  0AB0  0ABF               	incf	(_countkey+1),f
  2148  0AB1  3000               	movlw	high(01h)
  2149  0AB2  07BF               	addwf	(_countkey+1),f
  2150                           	
  2151  0AB3                     l30001256:	
  2152                           	line	116
  2153                           ;ATM.c: 116: string("ENTER 4 DIGIT ID");
  2154  0AB3  30E6               	movlw	low((STR_3))
  2155  0AB4  00F3               	movwf	(?_string)
  2156  0AB5  3000               	movlw	high((STR_3))
  2157  0AB6  00F4               	movwf	((?_string))+1
  2158  0AB7  120A  118A  218A   	fcall	_string
              120A  158A         
  2159                           	
  2160  0ABC                     l30001257:	
  2161                           	line	117
  2162                           ;ATM.c: 117: command(0XC0);
  2163  0ABC  30C0               	movlw	(0C0h)
  2164  0ABD  120A  118A  2051   	fcall	_command
              120A  158A         
  2165                           	
  2166  0AC2                     l20:	
  2167                           	line	124
  2168                           ;ATM.c: 123: {
  2169                           ;ATM.c: 124: RB3=1,RB4=0,RB5=0,RB6=0;
  2170  0AC2  1283               	bcf	status, 5	;RP0=0, select bank0
  2171  0AC3  1303               	bcf	status, 6	;RP1=0, select bank0
  2172  0AC4  1586               	bsf	(51/8),(51)&7
  2173  0AC5  1206               	bcf	(52/8),(52)&7
  2174  0AC6  1286               	bcf	(53/8),(53)&7
  2175  0AC7  1306               	bcf	(54/8),(54)&7
  2176                           	line	126
  2177                           ;ATM.c: 126: if(RB0==1)
  2178  0AC8  1C06               	btfss	(48/8),(48)&7
  2179  0AC9  2ACB               	goto	u2721
  2180  0ACA  2ACC               	goto	u2720
  2181  0ACB                     u2721:
  2182  0ACB  2AF3               	goto	l22
  2183  0ACC                     u2720:
  2184                           	
  2185  0ACC                     l30001258:	
  2186                           	line	128
  2187                           ;ATM.c: 127: {
  2188                           ;ATM.c: 128: var=1;
  2189  0ACC  3001               	movlw	low(01h)
  2190  0ACD  00F9               	movwf	(_var)
  2191  0ACE  3000               	movlw	high(01h)
  2192  0ACF  00FA               	movwf	((_var))+1
  2193                           	line	129
  2194                           ;ATM.c: 129: count++;
  2195  0AD0  3001               	movlw	low(01h)
  2196  0AD1  07B4               	addwf	(_count),f
  2197  0AD2  1803               	skipnc
  2198  0AD3  0AB5               	incf	(_count+1),f
  2199  0AD4  3000               	movlw	high(01h)
  2200  0AD5  07B5               	addwf	(_count+1),f
  2201                           	line	130
  2202                           ;ATM.c: 130: countu++;
  2203  0AD6  3001               	movlw	low(01h)
  2204  0AD7  07DE               	addwf	(_countu),f
  2205  0AD8  1803               	skipnc
  2206  0AD9  0ADF               	incf	(_countu+1),f
  2207  0ADA  3000               	movlw	high(01h)
  2208  0ADB  07DF               	addwf	(_countu+1),f
  2209                           	
  2210  0ADC                     l30001259:	
  2211                           	line	131
  2212                           ;ATM.c: 131: inputuser[countu]=var;
  2213  0ADC  085E               	movf	(_countu),w
  2214  0ADD  00F7               	movwf	(??_main+0+0)
  2215  0ADE  0777               	addwf	(??_main+0+0),w
  2216  0ADF  3EC8               	addlw	(_inputuser)&0ffh
  2217  0AE0  0084               	movwf	fsr0
  2218  0AE1  3001               	movlw	low(01h)
  2219  0AE2  1383               	bcf	status, 7	;select IRP bank1
  2220  0AE3  0080               	movwf	indf
  2221  0AE4  0A84               	incf	fsr0,f
  2222  0AE5  3000               	movlw	high(01h)
  2223  0AE6  0080               	movwf	indf
  2224                           	
  2225  0AE7                     l30001260:	
  2226                           	line	132
  2227                           ;ATM.c: 132: data(var+48);
  2228  0AE7  3031               	movlw	(031h)
  2229  0AE8  120A  118A  2045   	fcall	_data
              120A  158A         
  2230                           	
  2231  0AED                     l23:	
  2232                           	line	133
  2233  0AED  1283               	bcf	status, 5	;RP0=0, select bank0
  2234  0AEE  1303               	bcf	status, 6	;RP1=0, select bank0
  2235  0AEF  1806               	btfsc	(48/8),(48)&7
  2236  0AF0  2AF2               	goto	u2731
  2237  0AF1  2AF3               	goto	u2730
  2238  0AF2                     u2731:
  2239  0AF2  2AED               	goto	l23
  2240  0AF3                     u2730:
  2241                           	
  2242  0AF3                     l22:	
  2243                           	line	136
  2244                           ;ATM.c: 134: }
  2245                           ;ATM.c: 136: if(RB1==1)
  2246  0AF3  1C86               	btfss	(49/8),(49)&7
  2247  0AF4  2AF6               	goto	u2741
  2248  0AF5  2AF7               	goto	u2740
  2249  0AF6                     u2741:
  2250  0AF6  2B1E               	goto	l26
  2251  0AF7                     u2740:
  2252                           	
  2253  0AF7                     l30001261:	
  2254                           	line	138
  2255                           ;ATM.c: 137: {
  2256                           ;ATM.c: 138: var=2;
  2257  0AF7  3002               	movlw	low(02h)
  2258  0AF8  00F9               	movwf	(_var)
  2259  0AF9  3000               	movlw	high(02h)
  2260  0AFA  00FA               	movwf	((_var))+1
  2261                           	line	139
  2262                           ;ATM.c: 139: count++;
  2263  0AFB  3001               	movlw	low(01h)
  2264  0AFC  07B4               	addwf	(_count),f
  2265  0AFD  1803               	skipnc
  2266  0AFE  0AB5               	incf	(_count+1),f
  2267  0AFF  3000               	movlw	high(01h)
  2268  0B00  07B5               	addwf	(_count+1),f
  2269                           	line	140
  2270                           ;ATM.c: 140: countu++;
  2271  0B01  3001               	movlw	low(01h)
  2272  0B02  07DE               	addwf	(_countu),f
  2273  0B03  1803               	skipnc
  2274  0B04  0ADF               	incf	(_countu+1),f
  2275  0B05  3000               	movlw	high(01h)
  2276  0B06  07DF               	addwf	(_countu+1),f
  2277                           	
  2278  0B07                     l30001262:	
  2279                           	line	141
  2280                           ;ATM.c: 141: inputuser[countu]=var;
  2281  0B07  085E               	movf	(_countu),w
  2282  0B08  00F7               	movwf	(??_main+0+0)
  2283  0B09  0777               	addwf	(??_main+0+0),w
  2284  0B0A  3EC8               	addlw	(_inputuser)&0ffh
  2285  0B0B  0084               	movwf	fsr0
  2286  0B0C  3002               	movlw	low(02h)
  2287  0B0D  1383               	bcf	status, 7	;select IRP bank1
  2288  0B0E  0080               	movwf	indf
  2289  0B0F  0A84               	incf	fsr0,f
  2290  0B10  3000               	movlw	high(02h)
  2291  0B11  0080               	movwf	indf
  2292                           	
  2293  0B12                     l30001263:	
  2294                           	line	142
  2295                           ;ATM.c: 142: data(var+48);
  2296  0B12  3032               	movlw	(032h)
  2297  0B13  120A  118A  2045   	fcall	_data
              120A  158A         
  2298                           	
  2299  0B18                     l27:	
  2300                           	line	143
  2301  0B18  1283               	bcf	status, 5	;RP0=0, select bank0
  2302  0B19  1303               	bcf	status, 6	;RP1=0, select bank0
  2303  0B1A  1886               	btfsc	(49/8),(49)&7
  2304  0B1B  2B1D               	goto	u2751
  2305  0B1C  2B1E               	goto	u2750
  2306  0B1D                     u2751:
  2307  0B1D  2B18               	goto	l27
  2308  0B1E                     u2750:
  2309                           	
  2310  0B1E                     l26:	
  2311                           	line	146
  2312                           ;ATM.c: 144: }
  2313                           ;ATM.c: 146: if(RB2==1)
  2314  0B1E  1D06               	btfss	(50/8),(50)&7
  2315  0B1F  2B21               	goto	u2761
  2316  0B20  2B22               	goto	u2760
  2317  0B21                     u2761:
  2318  0B21  2B49               	goto	l30
  2319  0B22                     u2760:
  2320                           	
  2321  0B22                     l30001264:	
  2322                           	line	148
  2323                           ;ATM.c: 147: {
  2324                           ;ATM.c: 148: var=3;
  2325  0B22  3003               	movlw	low(03h)
  2326  0B23  00F9               	movwf	(_var)
  2327  0B24  3000               	movlw	high(03h)
  2328  0B25  00FA               	movwf	((_var))+1
  2329                           	line	149
  2330                           ;ATM.c: 149: count++;
  2331  0B26  3001               	movlw	low(01h)
  2332  0B27  07B4               	addwf	(_count),f
  2333  0B28  1803               	skipnc
  2334  0B29  0AB5               	incf	(_count+1),f
  2335  0B2A  3000               	movlw	high(01h)
  2336  0B2B  07B5               	addwf	(_count+1),f
  2337                           	line	150
  2338                           ;ATM.c: 150: countu++;
  2339  0B2C  3001               	movlw	low(01h)
  2340  0B2D  07DE               	addwf	(_countu),f
  2341  0B2E  1803               	skipnc
  2342  0B2F  0ADF               	incf	(_countu+1),f
  2343  0B30  3000               	movlw	high(01h)
  2344  0B31  07DF               	addwf	(_countu+1),f
  2345                           	
  2346  0B32                     l30001265:	
  2347                           	line	151
  2348                           ;ATM.c: 151: inputuser[countu]=var;
  2349  0B32  085E               	movf	(_countu),w
  2350  0B33  00F7               	movwf	(??_main+0+0)
  2351  0B34  0777               	addwf	(??_main+0+0),w
  2352  0B35  3EC8               	addlw	(_inputuser)&0ffh
  2353  0B36  0084               	movwf	fsr0
  2354  0B37  3003               	movlw	low(03h)
  2355  0B38  1383               	bcf	status, 7	;select IRP bank1
  2356  0B39  0080               	movwf	indf
  2357  0B3A  0A84               	incf	fsr0,f
  2358  0B3B  3000               	movlw	high(03h)
  2359  0B3C  0080               	movwf	indf
  2360                           	
  2361  0B3D                     l30001266:	
  2362                           	line	152
  2363                           ;ATM.c: 152: data(var+48);
  2364  0B3D  3033               	movlw	(033h)
  2365  0B3E  120A  118A  2045   	fcall	_data
              120A  158A         
  2366                           	
  2367  0B43                     l31:	
  2368                           	line	153
  2369  0B43  1283               	bcf	status, 5	;RP0=0, select bank0
  2370  0B44  1303               	bcf	status, 6	;RP1=0, select bank0
  2371  0B45  1906               	btfsc	(50/8),(50)&7
  2372  0B46  2B48               	goto	u2771
  2373  0B47  2B49               	goto	u2770
  2374  0B48                     u2771:
  2375  0B48  2B43               	goto	l31
  2376  0B49                     u2770:
  2377                           	
  2378  0B49                     l30:	
  2379                           	line	156
  2380                           ;ATM.c: 154: }
  2381                           ;ATM.c: 156: RB3=0,RB4=1,RB5=0,RB6=0;
  2382  0B49  1186               	bcf	(51/8),(51)&7
  2383  0B4A  1606               	bsf	(52/8),(52)&7
  2384  0B4B  1286               	bcf	(53/8),(53)&7
  2385  0B4C  1306               	bcf	(54/8),(54)&7
  2386                           	line	157
  2387                           ;ATM.c: 157: if(RB0==1)
  2388  0B4D  1C06               	btfss	(48/8),(48)&7
  2389  0B4E  2B50               	goto	u2781
  2390  0B4F  2B51               	goto	u2780
  2391  0B50                     u2781:
  2392  0B50  2B78               	goto	l34
  2393  0B51                     u2780:
  2394                           	
  2395  0B51                     l30001267:	
  2396                           	line	159
  2397                           ;ATM.c: 158: {
  2398                           ;ATM.c: 159: var=4;
  2399  0B51  3004               	movlw	low(04h)
  2400  0B52  00F9               	movwf	(_var)
  2401  0B53  3000               	movlw	high(04h)
  2402  0B54  00FA               	movwf	((_var))+1
  2403                           	line	160
  2404                           ;ATM.c: 160: count++;
  2405  0B55  3001               	movlw	low(01h)
  2406  0B56  07B4               	addwf	(_count),f
  2407  0B57  1803               	skipnc
  2408  0B58  0AB5               	incf	(_count+1),f
  2409  0B59  3000               	movlw	high(01h)
  2410  0B5A  07B5               	addwf	(_count+1),f
  2411                           	line	161
  2412                           ;ATM.c: 161: countu++;
  2413  0B5B  3001               	movlw	low(01h)
  2414  0B5C  07DE               	addwf	(_countu),f
  2415  0B5D  1803               	skipnc
  2416  0B5E  0ADF               	incf	(_countu+1),f
  2417  0B5F  3000               	movlw	high(01h)
  2418  0B60  07DF               	addwf	(_countu+1),f
  2419                           	
  2420  0B61                     l30001268:	
  2421                           	line	162
  2422                           ;ATM.c: 162: inputuser[countu]=var;
  2423  0B61  085E               	movf	(_countu),w
  2424  0B62  00F7               	movwf	(??_main+0+0)
  2425  0B63  0777               	addwf	(??_main+0+0),w
  2426  0B64  3EC8               	addlw	(_inputuser)&0ffh
  2427  0B65  0084               	movwf	fsr0
  2428  0B66  3004               	movlw	low(04h)
  2429  0B67  1383               	bcf	status, 7	;select IRP bank1
  2430  0B68  0080               	movwf	indf
  2431  0B69  0A84               	incf	fsr0,f
  2432  0B6A  3000               	movlw	high(04h)
  2433  0B6B  0080               	movwf	indf
  2434                           	
  2435  0B6C                     l30001269:	
  2436                           	line	163
  2437                           ;ATM.c: 163: data(var+48);
  2438  0B6C  3034               	movlw	(034h)
  2439  0B6D  120A  118A  2045   	fcall	_data
              120A  158A         
  2440                           	
  2441  0B72                     l35:	
  2442                           	line	164
  2443  0B72  1283               	bcf	status, 5	;RP0=0, select bank0
  2444  0B73  1303               	bcf	status, 6	;RP1=0, select bank0
  2445  0B74  1806               	btfsc	(48/8),(48)&7
  2446  0B75  2B77               	goto	u2791
  2447  0B76  2B78               	goto	u2790
  2448  0B77                     u2791:
  2449  0B77  2B72               	goto	l35
  2450  0B78                     u2790:
  2451                           	
  2452  0B78                     l34:	
  2453                           	line	167
  2454                           ;ATM.c: 165: }
  2455                           ;ATM.c: 167: if(RB1==1)
  2456  0B78  1C86               	btfss	(49/8),(49)&7
  2457  0B79  2B7B               	goto	u2801
  2458  0B7A  2B7C               	goto	u2800
  2459  0B7B                     u2801:
  2460  0B7B  2BA3               	goto	l38
  2461  0B7C                     u2800:
  2462                           	
  2463  0B7C                     l30001270:	
  2464                           	line	169
  2465                           ;ATM.c: 168: {
  2466                           ;ATM.c: 169: var=5;
  2467  0B7C  3005               	movlw	low(05h)
  2468  0B7D  00F9               	movwf	(_var)
  2469  0B7E  3000               	movlw	high(05h)
  2470  0B7F  00FA               	movwf	((_var))+1
  2471                           	line	170
  2472                           ;ATM.c: 170: count++;
  2473  0B80  3001               	movlw	low(01h)
  2474  0B81  07B4               	addwf	(_count),f
  2475  0B82  1803               	skipnc
  2476  0B83  0AB5               	incf	(_count+1),f
  2477  0B84  3000               	movlw	high(01h)
  2478  0B85  07B5               	addwf	(_count+1),f
  2479                           	line	171
  2480                           ;ATM.c: 171: countu++;
  2481  0B86  3001               	movlw	low(01h)
  2482  0B87  07DE               	addwf	(_countu),f
  2483  0B88  1803               	skipnc
  2484  0B89  0ADF               	incf	(_countu+1),f
  2485  0B8A  3000               	movlw	high(01h)
  2486  0B8B  07DF               	addwf	(_countu+1),f
  2487                           	
  2488  0B8C                     l30001271:	
  2489                           	line	172
  2490                           ;ATM.c: 172: inputuser[countu]=var;
  2491  0B8C  085E               	movf	(_countu),w
  2492  0B8D  00F7               	movwf	(??_main+0+0)
  2493  0B8E  0777               	addwf	(??_main+0+0),w
  2494  0B8F  3EC8               	addlw	(_inputuser)&0ffh
  2495  0B90  0084               	movwf	fsr0
  2496  0B91  3005               	movlw	low(05h)
  2497  0B92  1383               	bcf	status, 7	;select IRP bank1
  2498  0B93  0080               	movwf	indf
  2499  0B94  0A84               	incf	fsr0,f
  2500  0B95  3000               	movlw	high(05h)
  2501  0B96  0080               	movwf	indf
  2502                           	
  2503  0B97                     l30001272:	
  2504                           	line	173
  2505                           ;ATM.c: 173: data(var+48);
  2506  0B97  3035               	movlw	(035h)
  2507  0B98  120A  118A  2045   	fcall	_data
              120A  158A         
  2508                           	
  2509  0B9D                     l39:	
  2510                           	line	174
  2511  0B9D  1283               	bcf	status, 5	;RP0=0, select bank0
  2512  0B9E  1303               	bcf	status, 6	;RP1=0, select bank0
  2513  0B9F  1886               	btfsc	(49/8),(49)&7
  2514  0BA0  2BA2               	goto	u2811
  2515  0BA1  2BA3               	goto	u2810
  2516  0BA2                     u2811:
  2517  0BA2  2B9D               	goto	l39
  2518  0BA3                     u2810:
  2519                           	
  2520  0BA3                     l38:	
  2521                           	line	177
  2522                           ;ATM.c: 175: }
  2523                           ;ATM.c: 177: if(RB2==1)
  2524  0BA3  1D06               	btfss	(50/8),(50)&7
  2525  0BA4  2BA6               	goto	u2821
  2526  0BA5  2BA7               	goto	u2820
  2527  0BA6                     u2821:
  2528  0BA6  2BCE               	goto	l42
  2529  0BA7                     u2820:
  2530                           	
  2531  0BA7                     l30001273:	
  2532                           	line	179
  2533                           ;ATM.c: 178: {
  2534                           ;ATM.c: 179: var=6;
  2535  0BA7  3006               	movlw	low(06h)
  2536  0BA8  00F9               	movwf	(_var)
  2537  0BA9  3000               	movlw	high(06h)
  2538  0BAA  00FA               	movwf	((_var))+1
  2539                           	line	180
  2540                           ;ATM.c: 180: count++;
  2541  0BAB  3001               	movlw	low(01h)
  2542  0BAC  07B4               	addwf	(_count),f
  2543  0BAD  1803               	skipnc
  2544  0BAE  0AB5               	incf	(_count+1),f
  2545  0BAF  3000               	movlw	high(01h)
  2546  0BB0  07B5               	addwf	(_count+1),f
  2547                           	line	181
  2548                           ;ATM.c: 181: countu++;
  2549  0BB1  3001               	movlw	low(01h)
  2550  0BB2  07DE               	addwf	(_countu),f
  2551  0BB3  1803               	skipnc
  2552  0BB4  0ADF               	incf	(_countu+1),f
  2553  0BB5  3000               	movlw	high(01h)
  2554  0BB6  07DF               	addwf	(_countu+1),f
  2555                           	
  2556  0BB7                     l30001274:	
  2557                           	line	182
  2558                           ;ATM.c: 182: inputuser[countu]=var;
  2559  0BB7  085E               	movf	(_countu),w
  2560  0BB8  00F7               	movwf	(??_main+0+0)
  2561  0BB9  0777               	addwf	(??_main+0+0),w
  2562  0BBA  3EC8               	addlw	(_inputuser)&0ffh
  2563  0BBB  0084               	movwf	fsr0
  2564  0BBC  3006               	movlw	low(06h)
  2565  0BBD  1383               	bcf	status, 7	;select IRP bank1
  2566  0BBE  0080               	movwf	indf
  2567  0BBF  0A84               	incf	fsr0,f
  2568  0BC0  3000               	movlw	high(06h)
  2569  0BC1  0080               	movwf	indf
  2570                           	
  2571  0BC2                     l30001275:	
  2572                           	line	183
  2573                           ;ATM.c: 183: data(var+48);
  2574  0BC2  3036               	movlw	(036h)
  2575  0BC3  120A  118A  2045   	fcall	_data
              120A  158A         
  2576                           	
  2577  0BC8                     l43:	
  2578                           	line	184
  2579  0BC8  1283               	bcf	status, 5	;RP0=0, select bank0
  2580  0BC9  1303               	bcf	status, 6	;RP1=0, select bank0
  2581  0BCA  1906               	btfsc	(50/8),(50)&7
  2582  0BCB  2BCD               	goto	u2831
  2583  0BCC  2BCE               	goto	u2830
  2584  0BCD                     u2831:
  2585  0BCD  2BC8               	goto	l43
  2586  0BCE                     u2830:
  2587                           	
  2588  0BCE                     l42:	
  2589                           	line	187
  2590                           ;ATM.c: 185: }
  2591                           ;ATM.c: 187: RB3=0,RB4=0,RB5=1,RB6=0;
  2592  0BCE  1186               	bcf	(51/8),(51)&7
  2593  0BCF  1206               	bcf	(52/8),(52)&7
  2594  0BD0  1686               	bsf	(53/8),(53)&7
  2595  0BD1  1306               	bcf	(54/8),(54)&7
  2596                           	line	188
  2597                           ;ATM.c: 188: if(RB0==1)
  2598  0BD2  1C06               	btfss	(48/8),(48)&7
  2599  0BD3  2BD5               	goto	u2841
  2600  0BD4  2BD6               	goto	u2840
  2601  0BD5                     u2841:
  2602  0BD5  2BFD               	goto	l46
  2603  0BD6                     u2840:
  2604                           	
  2605  0BD6                     l30001276:	
  2606                           	line	190
  2607                           ;ATM.c: 189: {
  2608                           ;ATM.c: 190: var=7;
  2609  0BD6  3007               	movlw	low(07h)
  2610  0BD7  00F9               	movwf	(_var)
  2611  0BD8  3000               	movlw	high(07h)
  2612  0BD9  00FA               	movwf	((_var))+1
  2613                           	line	191
  2614                           ;ATM.c: 191: count++;
  2615  0BDA  3001               	movlw	low(01h)
  2616  0BDB  07B4               	addwf	(_count),f
  2617  0BDC  1803               	skipnc
  2618  0BDD  0AB5               	incf	(_count+1),f
  2619  0BDE  3000               	movlw	high(01h)
  2620  0BDF  07B5               	addwf	(_count+1),f
  2621                           	line	192
  2622                           ;ATM.c: 192: countu++;
  2623  0BE0  3001               	movlw	low(01h)
  2624  0BE1  07DE               	addwf	(_countu),f
  2625  0BE2  1803               	skipnc
  2626  0BE3  0ADF               	incf	(_countu+1),f
  2627  0BE4  3000               	movlw	high(01h)
  2628  0BE5  07DF               	addwf	(_countu+1),f
  2629                           	
  2630  0BE6                     l30001277:	
  2631                           	line	193
  2632                           ;ATM.c: 193: inputuser[countu]=var;
  2633  0BE6  085E               	movf	(_countu),w
  2634  0BE7  00F7               	movwf	(??_main+0+0)
  2635  0BE8  0777               	addwf	(??_main+0+0),w
  2636  0BE9  3EC8               	addlw	(_inputuser)&0ffh
  2637  0BEA  0084               	movwf	fsr0
  2638  0BEB  3007               	movlw	low(07h)
  2639  0BEC  1383               	bcf	status, 7	;select IRP bank1
  2640  0BED  0080               	movwf	indf
  2641  0BEE  0A84               	incf	fsr0,f
  2642  0BEF  3000               	movlw	high(07h)
  2643  0BF0  0080               	movwf	indf
  2644                           	
  2645  0BF1                     l30001278:	
  2646                           	line	194
  2647                           ;ATM.c: 194: data(var+48);
  2648  0BF1  3037               	movlw	(037h)
  2649  0BF2  120A  118A  2045   	fcall	_data
              120A  158A         
  2650                           	
  2651  0BF7                     l47:	
  2652                           	line	195
  2653  0BF7  1283               	bcf	status, 5	;RP0=0, select bank0
  2654  0BF8  1303               	bcf	status, 6	;RP1=0, select bank0
  2655  0BF9  1806               	btfsc	(48/8),(48)&7
  2656  0BFA  2BFC               	goto	u2851
  2657  0BFB  2BFD               	goto	u2850
  2658  0BFC                     u2851:
  2659  0BFC  2BF7               	goto	l47
  2660  0BFD                     u2850:
  2661                           	
  2662  0BFD                     l46:	
  2663                           	line	198
  2664                           ;ATM.c: 196: }
  2665                           ;ATM.c: 198: if(RB1==1)
  2666  0BFD  1C86               	btfss	(49/8),(49)&7
  2667  0BFE  2C00               	goto	u2861
  2668  0BFF  2C01               	goto	u2860
  2669  0C00                     u2861:
  2670  0C00  2C28               	goto	l50
  2671  0C01                     u2860:
  2672                           	
  2673  0C01                     l30001279:	
  2674                           	line	200
  2675                           ;ATM.c: 199: {
  2676                           ;ATM.c: 200: var=8;
  2677  0C01  3008               	movlw	low(08h)
  2678  0C02  00F9               	movwf	(_var)
  2679  0C03  3000               	movlw	high(08h)
  2680  0C04  00FA               	movwf	((_var))+1
  2681                           	line	201
  2682                           ;ATM.c: 201: count++;
  2683  0C05  3001               	movlw	low(01h)
  2684  0C06  07B4               	addwf	(_count),f
  2685  0C07  1803               	skipnc
  2686  0C08  0AB5               	incf	(_count+1),f
  2687  0C09  3000               	movlw	high(01h)
  2688  0C0A  07B5               	addwf	(_count+1),f
  2689                           	line	202
  2690                           ;ATM.c: 202: countu++;
  2691  0C0B  3001               	movlw	low(01h)
  2692  0C0C  07DE               	addwf	(_countu),f
  2693  0C0D  1803               	skipnc
  2694  0C0E  0ADF               	incf	(_countu+1),f
  2695  0C0F  3000               	movlw	high(01h)
  2696  0C10  07DF               	addwf	(_countu+1),f
  2697                           	
  2698  0C11                     l30001280:	
  2699                           	line	203
  2700                           ;ATM.c: 203: inputuser[countu]=var;
  2701  0C11  085E               	movf	(_countu),w
  2702  0C12  00F7               	movwf	(??_main+0+0)
  2703  0C13  0777               	addwf	(??_main+0+0),w
  2704  0C14  3EC8               	addlw	(_inputuser)&0ffh
  2705  0C15  0084               	movwf	fsr0
  2706  0C16  3008               	movlw	low(08h)
  2707  0C17  1383               	bcf	status, 7	;select IRP bank1
  2708  0C18  0080               	movwf	indf
  2709  0C19  0A84               	incf	fsr0,f
  2710  0C1A  3000               	movlw	high(08h)
  2711  0C1B  0080               	movwf	indf
  2712                           	
  2713  0C1C                     l30001281:	
  2714                           	line	204
  2715                           ;ATM.c: 204: data(var+48);
  2716  0C1C  3038               	movlw	(038h)
  2717  0C1D  120A  118A  2045   	fcall	_data
              120A  158A         
  2718                           	
  2719  0C22                     l51:	
  2720                           	line	205
  2721  0C22  1283               	bcf	status, 5	;RP0=0, select bank0
  2722  0C23  1303               	bcf	status, 6	;RP1=0, select bank0
  2723  0C24  1886               	btfsc	(49/8),(49)&7
  2724  0C25  2C27               	goto	u2871
  2725  0C26  2C28               	goto	u2870
  2726  0C27                     u2871:
  2727  0C27  2C22               	goto	l51
  2728  0C28                     u2870:
  2729                           	
  2730  0C28                     l50:	
  2731                           	line	208
  2732                           ;ATM.c: 206: }
  2733                           ;ATM.c: 208: if(RB2==1)
  2734  0C28  1D06               	btfss	(50/8),(50)&7
  2735  0C29  2C2B               	goto	u2881
  2736  0C2A  2C2C               	goto	u2880
  2737  0C2B                     u2881:
  2738  0C2B  2C53               	goto	l54
  2739  0C2C                     u2880:
  2740                           	
  2741  0C2C                     l30001282:	
  2742                           	line	210
  2743                           ;ATM.c: 209: {
  2744                           ;ATM.c: 210: var=9;
  2745  0C2C  3009               	movlw	low(09h)
  2746  0C2D  00F9               	movwf	(_var)
  2747  0C2E  3000               	movlw	high(09h)
  2748  0C2F  00FA               	movwf	((_var))+1
  2749                           	line	211
  2750                           ;ATM.c: 211: count++;
  2751  0C30  3001               	movlw	low(01h)
  2752  0C31  07B4               	addwf	(_count),f
  2753  0C32  1803               	skipnc
  2754  0C33  0AB5               	incf	(_count+1),f
  2755  0C34  3000               	movlw	high(01h)
  2756  0C35  07B5               	addwf	(_count+1),f
  2757                           	line	212
  2758                           ;ATM.c: 212: countu++;
  2759  0C36  3001               	movlw	low(01h)
  2760  0C37  07DE               	addwf	(_countu),f
  2761  0C38  1803               	skipnc
  2762  0C39  0ADF               	incf	(_countu+1),f
  2763  0C3A  3000               	movlw	high(01h)
  2764  0C3B  07DF               	addwf	(_countu+1),f
  2765                           	
  2766  0C3C                     l30001283:	
  2767                           	line	213
  2768                           ;ATM.c: 213: inputuser[countu]=var;
  2769  0C3C  085E               	movf	(_countu),w
  2770  0C3D  00F7               	movwf	(??_main+0+0)
  2771  0C3E  0777               	addwf	(??_main+0+0),w
  2772  0C3F  3EC8               	addlw	(_inputuser)&0ffh
  2773  0C40  0084               	movwf	fsr0
  2774  0C41  3009               	movlw	low(09h)
  2775  0C42  1383               	bcf	status, 7	;select IRP bank1
  2776  0C43  0080               	movwf	indf
  2777  0C44  0A84               	incf	fsr0,f
  2778  0C45  3000               	movlw	high(09h)
  2779  0C46  0080               	movwf	indf
  2780                           	
  2781  0C47                     l30001284:	
  2782                           	line	214
  2783                           ;ATM.c: 214: data(var+48);
  2784  0C47  3039               	movlw	(039h)
  2785  0C48  120A  118A  2045   	fcall	_data
              120A  158A         
  2786                           	
  2787  0C4D                     l55:	
  2788                           	line	215
  2789  0C4D  1283               	bcf	status, 5	;RP0=0, select bank0
  2790  0C4E  1303               	bcf	status, 6	;RP1=0, select bank0
  2791  0C4F  1906               	btfsc	(50/8),(50)&7
  2792  0C50  2C52               	goto	u2891
  2793  0C51  2C53               	goto	u2890
  2794  0C52                     u2891:
  2795  0C52  2C4D               	goto	l55
  2796  0C53                     u2890:
  2797                           	
  2798  0C53                     l54:	
  2799                           	line	218
  2800                           ;ATM.c: 216: }
  2801                           ;ATM.c: 218: RB3=0,RB4=0,RB5=0,RB6=1;
  2802  0C53  1186               	bcf	(51/8),(51)&7
  2803  0C54  1206               	bcf	(52/8),(52)&7
  2804  0C55  1286               	bcf	(53/8),(53)&7
  2805  0C56  1706               	bsf	(54/8),(54)&7
  2806                           	line	220
  2807                           ;ATM.c: 220: if(RB1==1)
  2808  0C57  1C86               	btfss	(49/8),(49)&7
  2809  0C58  2C5A               	goto	u2901
  2810  0C59  2C5B               	goto	u2900
  2811  0C5A                     u2901:
  2812  0C5A  2C82               	goto	l30001288
  2813  0C5B                     u2900:
  2814                           	
  2815  0C5B                     l30001285:	
  2816                           	line	222
  2817                           ;ATM.c: 221: {
  2818                           ;ATM.c: 222: var=0;
  2819  0C5B  3000               	movlw	low(0)
  2820  0C5C  00F9               	movwf	(_var)
  2821  0C5D  3000               	movlw	high(0)
  2822  0C5E  00FA               	movwf	((_var))+1
  2823                           	line	223
  2824                           ;ATM.c: 223: count++;
  2825  0C5F  3001               	movlw	low(01h)
  2826  0C60  07B4               	addwf	(_count),f
  2827  0C61  1803               	skipnc
  2828  0C62  0AB5               	incf	(_count+1),f
  2829  0C63  3000               	movlw	high(01h)
  2830  0C64  07B5               	addwf	(_count+1),f
  2831                           	line	224
  2832                           ;ATM.c: 224: countu++;
  2833  0C65  3001               	movlw	low(01h)
  2834  0C66  07DE               	addwf	(_countu),f
  2835  0C67  1803               	skipnc
  2836  0C68  0ADF               	incf	(_countu+1),f
  2837  0C69  3000               	movlw	high(01h)
  2838  0C6A  07DF               	addwf	(_countu+1),f
  2839                           	
  2840  0C6B                     l30001286:	
  2841                           	line	225
  2842                           ;ATM.c: 225: inputuser[countu]=var;
  2843  0C6B  085E               	movf	(_countu),w
  2844  0C6C  00F7               	movwf	(??_main+0+0)
  2845  0C6D  0777               	addwf	(??_main+0+0),w
  2846  0C6E  3EC8               	addlw	(_inputuser)&0ffh
  2847  0C6F  0084               	movwf	fsr0
  2848  0C70  3000               	movlw	low(0)
  2849  0C71  1383               	bcf	status, 7	;select IRP bank1
  2850  0C72  0080               	movwf	indf
  2851  0C73  0A84               	incf	fsr0,f
  2852  0C74  3000               	movlw	high(0)
  2853  0C75  0080               	movwf	indf
  2854                           	
  2855  0C76                     l30001287:	
  2856                           	line	226
  2857                           ;ATM.c: 226: data(var+48);
  2858  0C76  3030               	movlw	(030h)
  2859  0C77  120A  118A  2045   	fcall	_data
              120A  158A         
  2860                           	
  2861  0C7C                     l59:	
  2862                           	line	227
  2863  0C7C  1283               	bcf	status, 5	;RP0=0, select bank0
  2864  0C7D  1303               	bcf	status, 6	;RP1=0, select bank0
  2865  0C7E  1886               	btfsc	(49/8),(49)&7
  2866  0C7F  2C81               	goto	u2911
  2867  0C80  2C82               	goto	u2910
  2868  0C81                     u2911:
  2869  0C81  2C7C               	goto	l59
  2870  0C82                     u2910:
  2871                           	
  2872  0C82                     l30001288:	
  2873                           	line	230
  2874                           ;ATM.c: 228: }
  2875                           ;ATM.c: 230: if(countu==3)
  2876  0C82  3003               	movlw	03h
  2877  0C83  065E               	xorwf	(_countu),w
  2878  0C84  045F               	iorwf	(_countu+1),w
  2879  0C85  1D03               	skipz
  2880  0C86  2C8A               	goto	u2921
  2881  0C87  120A  158A  2C8B   	goto	u2920
  2882  0C8A                     u2921:
  2883  0C8A  2AC2               	goto	l20
  2884  0C8B                     u2920:
  2885                           	
  2886  0C8B                     l30001289:	
  2887                           	line	232
  2888                           ;ATM.c: 231: {
  2889                           ;ATM.c: 232: command(0X01);
  2890  0C8B  3001               	movlw	(01h)
  2891  0C8C  120A  118A  2051   	fcall	_command
              120A  158A         
  2892                           	line	233
  2893                           ;ATM.c: 233: command(0X80);
  2894  0C91  3080               	movlw	(080h)
  2895  0C92  120A  118A  2051   	fcall	_command
              120A  158A         
  2896                           	
  2897  0C97                     l30001290:	
  2898                           	line	235
  2899                           ;ATM.c: 235: if(count22==0)
  2900  0C97  1283               	bcf	status, 5	;RP0=0, select bank0
  2901  0C98  1303               	bcf	status, 6	;RP1=0, select bank0
  2902  0C99  0837               	movf	((_count22+1)),w
  2903  0C9A  0436               	iorwf	((_count22)),w
  2904  0C9B  1D03               	skipz
  2905  0C9C  2C9E               	goto	u2931
  2906  0C9D  2CA1               	goto	u2930
  2907  0C9E                     u2931:
  2908  0C9E  120A  118A  2FC9   	goto	l30001490
  2909  0CA1                     u2930:
  2910                           	
  2911  0CA1                     l30001291:	
  2912                           	line	237
  2913                           ;ATM.c: 236: {
  2914                           ;ATM.c: 237: count22++;
  2915  0CA1  3001               	movlw	low(01h)
  2916  0CA2  07B6               	addwf	(_count22),f
  2917  0CA3  1803               	skipnc
  2918  0CA4  0AB7               	incf	(_count22+1),f
  2919  0CA5  3000               	movlw	high(01h)
  2920  0CA6  07B7               	addwf	(_count22+1),f
  2921                           	
  2922  0CA7                     l30001292:	
  2923                           	line	238
  2924                           ;ATM.c: 238: command(0X01);
  2925  0CA7  3001               	movlw	(01h)
  2926  0CA8  120A  118A  2051   	fcall	_command
              120A  158A         
  2927                           	
  2928  0CAD                     l30001293:	
  2929                           	line	240
  2930                           ;ATM.c: 240: if((username[0]==inputuser[0])&&(username[1]==inputuser[1])&&(username[2]==
                                 inputuser[2])&&(username[3]==inputuser[3]))
  2931  0CAD  1683               	bsf	status, 5	;RP0=1, select bank1
  2932  0CAE  1303               	bcf	status, 6	;RP1=0, select bank1
  2933  0CAF  0849               	movf	(_inputuser+1)^080h,w
  2934  0CB0  1683               	bsf	status, 5	;RP0=1, select bank3
  2935  0CB1  1703               	bsf	status, 6	;RP1=1, select bank3
  2936  0CB2  0625               	xorwf	(_username+1)^0180h,w
  2937  0CB3  1D03               	skipz
  2938  0CB4  2CBB               	goto	u2945
  2939  0CB5  1683               	bsf	status, 5	;RP0=1, select bank1
  2940  0CB6  1303               	bcf	status, 6	;RP1=0, select bank1
  2941  0CB7  0848               	movf	(_inputuser)^080h,w
  2942  0CB8  1683               	bsf	status, 5	;RP0=1, select bank3
  2943  0CB9  1703               	bsf	status, 6	;RP1=1, select bank3
  2944  0CBA  0624               	xorwf	(_username)^0180h,w
  2945  0CBB                     u2945:
  2946                           
  2947  0CBB  1D03               	skipz
  2948+ 0CBC  2CBE               	goto	u2941
  2949+ 0CBD  2CC1               	goto	u2940
  2950+ 0CBE                     u2941:
  2951+ 0CBE  120A  118A  2FC0   	goto	l30001489
  2952+ 0CC1                     u2940:
  2953+                          	
  2954+ 0CC1                     l30001294:	
  2955+ 0CC1  1683               	bsf	status, 5	;RP0=1, select bank1
  2956+ 0CC2  1303               	bcf	status, 6	;RP1=0, select bank1
  2957+ 0CC3  084B               	movf	1+(_inputuser)^080h+02h,w
  2958+ 0CC4  1683               	bsf	status, 5	;RP0=1, select bank3
  2959+ 0CC5  1703               	bsf	status, 6	;RP1=1, select bank3
  2960+ 0CC6  0627               	xorwf	1+(_username)^0180h+02h,w
  2961+ 0CC7  1D03               	skipz
  2962+ 0CC8  2CCF               	goto	u2955
  2963+ 0CC9  1683               	bsf	status, 5	;RP0=1, select bank1
  2964+ 0CCA  1303               	bcf	status, 6	;RP1=0, select bank1
  2965+ 0CCB  084A               	movf	0+(_inputuser)^080h+02h,w
  2966+ 0CCC  1683               	bsf	status, 5	;RP0=1, select bank3
  2967+ 0CCD  1703               	bsf	status, 6	;RP1=1, select bank3
  2968+ 0CCE  0626               	xorwf	0+(_username)^0180h+02h,w
  2969+ 0CCF                     u2955:
  2970+                          
  2971+ 0CCF  1D03               	skipz
  2972+ 0CD0  2CD2               	goto	u2951
  2973+ 0CD1  2CD3               	goto	u2950
  2974+ 0CD2                     u2951:
  2975+ 0CD2  2CBE               	goto	l30001489
  2976+ 0CD3                     u2950:
  2977+                          	
  2978+ 0CD3                     l30001295:	
  2979+ 0CD3  1683               	bsf	status, 5	;RP0=1, select bank1
  2980+ 0CD4  1303               	bcf	status, 6	;RP1=0, select bank1
  2981+ 0CD5  084D               	movf	1+(_inputuser)^080h+04h,w
  2982+ 0CD6  1683               	bsf	status, 5	;RP0=1, select bank3
  2983+ 0CD7  1703               	bsf	status, 6	;RP1=1, select bank3
  2984+ 0CD8  0629               	xorwf	1+(_username)^0180h+04h,w
  2985+ 0CD9  1D03               	skipz
  2986+ 0CDA  2CE1               	goto	u2965
  2987+ 0CDB  1683               	bsf	status, 5	;RP0=1, select bank1
  2988+ 0CDC  1303               	bcf	status, 6	;RP1=0, select bank1
  2989+ 0CDD  084C               	movf	0+(_inputuser)^080h+04h,w
  2990+ 0CDE  1683               	bsf	status, 5	;RP0=1, select bank3
  2991+ 0CDF  1703               	bsf	status, 6	;RP1=1, select bank3
  2992+ 0CE0  0628               	xorwf	0+(_username)^0180h+04h,w
  2993+ 0CE1                     u2965:
  2994+                          
  2995+ 0CE1  1D03               	skipz
  2996+ 0CE2  2CE4               	goto	u2961
  2997+ 0CE3  2CE5               	goto	u2960
  2998+ 0CE4                     u2961:
  2999+ 0CE4  2CBE               	goto	l30001489
  3000+ 0CE5                     u2960:
  3001+                          	
  3002+ 0CE5                     l30001296:	
  3003+ 0CE5  1683               	bsf	status, 5	;RP0=1, select bank1
  3004+ 0CE6  1303               	bcf	status, 6	;RP1=0, select bank1
  3005+ 0CE7  084F               	movf	1+(_inputuser)^080h+06h,w
  3006+ 0CE8  1683               	bsf	status, 5	;RP0=1, select bank3
  3007+ 0CE9  1703               	bsf	status, 6	;RP1=1, select bank3
  3008+ 0CEA  062B               	xorwf	1+(_username)^0180h+06h,w
  3009+ 0CEB  1D03               	skipz
  3010+ 0CEC  2CF3               	goto	u2975
  3011+ 0CED  1683               	bsf	status, 5	;RP0=1, select bank1
  3012+ 0CEE  1303               	bcf	status, 6	;RP1=0, select bank1
  3013+ 0CEF  084E               	movf	0+(_inputuser)^080h+06h,w
  3014+ 0CF0  1683               	bsf	status, 5	;RP0=1, select bank3
  3015+ 0CF1  1703               	bsf	status, 6	;RP1=1, select bank3
  3016+ 0CF2  062A               	xorwf	0+(_username)^0180h+06h,w
  3017+ 0CF3                     u2975:
  3018+                          
  3019+ 0CF3  1D03               	skipz
  3020+ 0CF4  2CF6               	goto	u2971
  3021+ 0CF5  2CF7               	goto	u2970
  3022+ 0CF6                     u2971:
  3023+ 0CF6  2CBE               	goto	l30001489
  3024+ 0CF7                     u2970:
  3025+                          	
  3026+ 0CF7                     l30001297:	
  3027+                          	line	242
  3028+                          ;ATM.c: 241: {
  3029+                          ;ATM.c: 242: string("CORRECT USERNAME");
  3030+ 0CF7  303B               	movlw	low((STR_4))
  3031+ 0CF8  00F3               	movwf	(?_string)
  3032+ 0CF9  3001               	movlw	high((STR_4))
  3033+ 0CFA  00F4               	movwf	((?_string))+1
  3034+ 0CFB  120A  118A  218A   	fcall	_string
      +       120A  158A         
  3035+                          	
  3036+ 0D00                     l30001298:	
  3037+                          	line	245
  3038+                          ;ATM.c: 245: for(i=0;i<5;i++)
  3039+ 0D00  3000               	movlw	low(0)
  3040+ 0D01  1283               	bcf	status, 5	;RP0=0, select bank0
  3041+ 0D02  1303               	bcf	status, 6	;RP1=0, select bank0
  3042+ 0D03  00C2               	movwf	(_i)
  3043+ 0D04  3000               	movlw	high(0)
  3044+ 0D05  00C3               	movwf	((_i))+1
  3045+                          	
  3046+ 0D06                     l30001301:	
  3047+                          	line	247
  3048+                          ;ATM.c: 246: {
  3049+                          ;ATM.c: 247: _delay((unsigned long)((100)*(4000000/4000.0)));
  3050+ 0D06  3082               	movlw	130
  3051+ 0D07  00F8               movwf	(??_main+0+0+1),f
  3052+ 0D08  30DD               	movlw	221
  3053+ 0D09  00F7               movwf	(??_main+0+0),f
  3054+ 0D0A                     u3777:
  3055+ 0D0A  0BF7               	decfsz	(??_main+0+0),f
  3056+ 0D0B  2D0A               	goto	u3777
  3057+ 0D0C  0BF8               	decfsz	(??_main+0+0+1),f
  3058+ 0D0D  2D0A               	goto	u3777
  3059+ 0D0E  2D0F               	nop2
  3060+                          
  3061+                          	line	245
  3062+ 0D0F  3001               	movlw	low(01h)
  3063+ 0D10  1283               	bcf	status, 5	;RP0=0, select bank0
  3064+ 0D11  1303               	bcf	status, 6	;RP1=0, select bank0
  3065+ 0D12  07C2               	addwf	(_i),f
  3066+ 0D13  1803               	skipnc
  3067+ 0D14  0AC3               	incf	(_i+1),f
  3068+ 0D15  3000               	movlw	high(01h)
  3069+ 0D16  07C3               	addwf	(_i+1),f
  3070+ 0D17  0843               	movf	(_i+1),w
  3071+ 0D18  3A80               	xorlw	80h
  3072+ 0D19  00F7               	movwf	(??_main+0+0)
  3073+ 0D1A  3080               	movlw	(high(05h))^80h
  3074+ 0D1B  0277               	subwf	(??_main+0+0),w
  3075+ 0D1C  1D03               	skipz
  3076+ 0D1D  2D20               	goto	u2985
  3077+ 0D1E  3005               	movlw	low(05h)
  3078+ 0D1F  0242               	subwf	(_i),w
  3079+ 0D20                     u2985:
  3080+                          
  3081+ 0D20  1C03               	skipc
  3082+ 0D21  2D23               	goto	u2981
  3083+ 0D22  2D24               	goto	u2980
  3084+ 0D23                     u2981:
  3085+ 0D23  2D06               	goto	l30001301
  3086+ 0D24                     u2980:
  3087+                          	
  3088+ 0D24                     l30001302:	
  3089+                          	line	249
  3090+                          ;ATM.c: 248: }
  3091+                          ;ATM.c: 249: command(0X01);
  3092+ 0D24  3001               	movlw	(01h)
  3093+ 0D25  120A  118A  2051   	fcall	_command
      +       120A  158A         
  3094+                          	
  3095+ 0D2A                     l30001303:	
  3096+                          	line	265
  3097+                          ;ATM.c: 265: string("ENTER 4DIGIT KEY");
  3098+ 0D2A  302A               	movlw	low((STR_5))
  3099+ 0D2B  00F3               	movwf	(?_string)
  3100+ 0D2C  3001               	movlw	high((STR_5))
  3101+ 0D2D  00F4               	movwf	((?_string))+1
  3102+ 0D2E  120A  118A  218A   	fcall	_string
      +       120A  158A         
  3103+                          	
  3104+ 0D33                     l30001304:	
  3105+                          	line	266
  3106+                          ;ATM.c: 266: for(i=0;i<5;i++)
  3107+ 0D33  3000               	movlw	low(0)
  3108+ 0D34  1283               	bcf	status, 5	;RP0=0, select bank0
  3109+ 0D35  1303               	bcf	status, 6	;RP1=0, select bank0
  3110+ 0D36  00C2               	movwf	(_i)
  3111+ 0D37  3000               	movlw	high(0)
  3112+ 0D38  00C3               	movwf	((_i))+1
  3113+                          	
  3114+ 0D39                     l30001307:	
  3115+                          	line	268
  3116+                          ;ATM.c: 267: {
  3117+                          ;ATM.c: 268: _delay((unsigned long)((100)*(4000000/4000.0)));
  3118+ 0D39  3082               	movlw	130
  3119+ 0D3A  00F8               movwf	(??_main+0+0+1),f
  3120+ 0D3B  30DD               	movlw	221
  3121+ 0D3C  00F7               movwf	(??_main+0+0),f
  3122+ 0D3D                     u3787:
  3123+ 0D3D  0BF7               	decfsz	(??_main+0+0),f
  3124+ 0D3E  2D3D               	goto	u3787
  3125+ 0D3F  0BF8               	decfsz	(??_main+0+0+1),f
  3126+ 0D40  2D3D               	goto	u3787
  3127+ 0D41  2D42               	nop2
  3128+                          
  3129+                          	line	266
  3130+ 0D42  3001               	movlw	low(01h)
  3131+ 0D43  1283               	bcf	status, 5	;RP0=0, select bank0
  3132+ 0D44  1303               	bcf	status, 6	;RP1=0, select bank0
  3133+ 0D45  07C2               	addwf	(_i),f
  3134+ 0D46  1803               	skipnc
  3135+ 0D47  0AC3               	incf	(_i+1),f
  3136+ 0D48  3000               	movlw	high(01h)
  3137+ 0D49  07C3               	addwf	(_i+1),f
  3138+ 0D4A  0843               	movf	(_i+1),w
  3139+ 0D4B  3A80               	xorlw	80h
  3140+ 0D4C  00F7               	movwf	(??_main+0+0)
  3141+ 0D4D  3080               	movlw	(high(05h))^80h
  3142+ 0D4E  0277               	subwf	(??_main+0+0),w
  3143+ 0D4F  1D03               	skipz
  3144+ 0D50  2D53               	goto	u2995
  3145+ 0D51  3005               	movlw	low(05h)
  3146+ 0D52  0242               	subwf	(_i),w
  3147+ 0D53                     u2995:
  3148+                          
  3149+ 0D53  1C03               	skipc
  3150+ 0D54  2D56               	goto	u2991
  3151+ 0D55  2D57               	goto	u2990
  3152+ 0D56                     u2991:
  3153+ 0D56  2D39               	goto	l30001307
  3154+ 0D57                     u2990:
  3155+                          	
  3156+ 0D57                     l30001308:	
  3157+                          	line	271
  3158+                          ;ATM.c: 269: }
  3159+                          ;ATM.c: 271: command(0XC0);
  3160+ 0D57  30C0               	movlw	(0C0h)
  3161+ 0D58  120A  118A  2051   	fcall	_command
      +       120A  158A         
  3162+                          	
  3163+ 0D5D                     l30001309:	
  3164+                          	line	276
  3165+                          ;ATM.c: 274: {
  3166+                          ;ATM.c: 276: RB3=1,RB4=0,RB5=0,RB6=0;
  3167+ 0D5D  1283               	bcf	status, 5	;RP0=0, select bank0
  3168+ 0D5E  1303               	bcf	status, 6	;RP1=0, select bank0
  3169+ 0D5F  1586               	bsf	(51/8),(51)&7
  3170+                          	
  3171+ 0D60                     l30001310:	
  3172+ 0D60  1206               	bcf	(52/8),(52)&7
  3173+                          	
  3174+ 0D61                     l30001311:	
  3175+ 0D61  1286               	bcf	(53/8),(53)&7
  3176+                          	
  3177+ 0D62                     l30001312:	
  3178+ 0D62  1306               	bcf	(54/8),(54)&7
  3179+                          	
  3180+ 0D63                     l30001313:	
  3181+                          	line	278
  3182+                          ;ATM.c: 278: if(RB0==1)
  3183+ 0D63  1C06               	btfss	(48/8),(48)&7
  3184+ 0D64  2D66               	goto	u3001
  3185+ 0D65  2D67               	goto	u3000
  3186+ 0D66                     u3001:
  3187+ 0D66  2D8E               	goto	l74
  3188+ 0D67                     u3000:
  3189+                          	
  3190+ 0D67                     l30001314:	
  3191+                          	line	280
  3192+                          ;ATM.c: 279: {
  3193+                          ;ATM.c: 280: var=1;
  3194+ 0D67  3001               	movlw	low(01h)
  3195+ 0D68  00F9               	movwf	(_var)
  3196+ 0D69  3000               	movlw	high(01h)
  3197+ 0D6A  00FA               	movwf	((_var))+1
  3198+                          	line	281
  3199+                          ;ATM.c: 281: count++;
  3200+ 0D6B  3001               	movlw	low(01h)
  3201+ 0D6C  07B4               	addwf	(_count),f
  3202+ 0D6D  1803               	skipnc
  3203+ 0D6E  0AB5               	incf	(_count+1),f
  3204+ 0D6F  3000               	movlw	high(01h)
  3205+ 0D70  07B5               	addwf	(_count+1),f
  3206+                          	line	282
  3207+                          ;ATM.c: 282: countp++;
  3208+ 0D71  3001               	movlw	low(01h)
  3209+ 0D72  07DC               	addwf	(_countp),f
  3210+ 0D73  1803               	skipnc
  3211+ 0D74  0ADD               	incf	(_countp+1),f
  3212+ 0D75  3000               	movlw	high(01h)
  3213+ 0D76  07DD               	addwf	(_countp+1),f
  3214+                          	
  3215+ 0D77                     l30001315:	
  3216+                          	line	283
  3217+                          ;ATM.c: 283: inputpass[countp]=var;
  3218+ 0D77  085C               	movf	(_countp),w
  3219+ 0D78  00F7               	movwf	(??_main+0+0)
  3220+ 0D79  0777               	addwf	(??_main+0+0),w
  3221+ 0D7A  3EA0               	addlw	(_inputpass)&0ffh
  3222+ 0D7B  0084               	movwf	fsr0
  3223+ 0D7C  3001               	movlw	low(01h)
  3224+ 0D7D  1383               	bcf	status, 7	;select IRP bank1
  3225+ 0D7E  0080               	movwf	indf
  3226+ 0D7F  0A84               	incf	fsr0,f
  3227+ 0D80  3000               	movlw	high(01h)
  3228+ 0D81  0080               	movwf	indf
  3229+                          	
  3230+ 0D82                     l30001316:	
  3231+                          	line	284
  3232+                          ;ATM.c: 284: data(var+48);
  3233+ 0D82  3031               	movlw	(031h)
  3234+ 0D83  120A  118A  2045   	fcall	_data
      +       120A  158A         
  3235+                          	
  3236+ 0D88                     l75:	
  3237+                          	line	285
  3238+ 0D88  1283               	bcf	status, 5	;RP0=0, select bank0
  3239+ 0D89  1303               	bcf	status, 6	;RP1=0, select bank0
  3240+ 0D8A  1806               	btfsc	(48/8),(48)&7
  3241+ 0D8B  2D8D               	goto	u3011
  3242+ 0D8C  2D8E               	goto	u3010
  3243+ 0D8D                     u3011:
  3244+ 0D8D  2D88               	goto	l75
  3245+ 0D8E                     u3010:
  3246+                          	
  3247+ 0D8E                     l74:	
  3248+                          	line	288
  3249+                          ;ATM.c: 286: }
  3250+                          ;ATM.c: 288: if(RB1==1)
  3251+ 0D8E  1C86               	btfss	(49/8),(49)&7
  3252+ 0D8F  2D91               	goto	u3021
  3253+ 0D90  2D92               	goto	u3020
  3254+ 0D91                     u3021:
  3255+ 0D91  2DB9               	goto	l78
  3256+ 0D92                     u3020:
  3257+                          	
  3258+ 0D92                     l30001317:	
  3259+                          	line	290
  3260+                          ;ATM.c: 289: {
  3261+                          ;ATM.c: 290: var=2;
  3262+ 0D92  3002               	movlw	low(02h)
  3263+ 0D93  00F9               	movwf	(_var)
  3264+ 0D94  3000               	movlw	high(02h)
  3265+ 0D95  00FA               	movwf	((_var))+1
  3266+                          	line	291
  3267+                          ;ATM.c: 291: count++;
  3268+ 0D96  3001               	movlw	low(01h)
  3269+ 0D97  07B4               	addwf	(_count),f
  3270+ 0D98  1803               	skipnc
  3271+ 0D99  0AB5               	incf	(_count+1),f
  3272+ 0D9A  3000               	movlw	high(01h)
  3273+ 0D9B  07B5               	addwf	(_count+1),f
  3274+                          	line	292
  3275+                          ;ATM.c: 292: countp++;
  3276+ 0D9C  3001               	movlw	low(01h)
  3277+ 0D9D  07DC               	addwf	(_countp),f
  3278+ 0D9E  1803               	skipnc
  3279+ 0D9F  0ADD               	incf	(_countp+1),f
  3280+ 0DA0  3000               	movlw	high(01h)
  3281+ 0DA1  07DD               	addwf	(_countp+1),f
  3282+                          	
  3283+ 0DA2                     l30001318:	
  3284+                          	line	293
  3285+                          ;ATM.c: 293: inputpass[countp]=var;
  3286+ 0DA2  085C               	movf	(_countp),w
  3287+ 0DA3  00F7               	movwf	(??_main+0+0)
  3288+ 0DA4  0777               	addwf	(??_main+0+0),w
  3289+ 0DA5  3EA0               	addlw	(_inputpass)&0ffh
  3290+ 0DA6  0084               	movwf	fsr0
  3291+ 0DA7  3002               	movlw	low(02h)
  3292+ 0DA8  1383               	bcf	status, 7	;select IRP bank1
  3293+ 0DA9  0080               	movwf	indf
  3294+ 0DAA  0A84               	incf	fsr0,f
  3295+ 0DAB  3000               	movlw	high(02h)
  3296+ 0DAC  0080               	movwf	indf
  3297+                          	
  3298+ 0DAD                     l30001319:	
  3299+                          	line	294
  3300+                          ;ATM.c: 294: data(var+48);
  3301+ 0DAD  3032               	movlw	(032h)
  3302+ 0DAE  120A  118A  2045   	fcall	_data
      +       120A  158A         
  3303+                          	
  3304+ 0DB3                     l79:	
  3305+                          	line	295
  3306+ 0DB3  1283               	bcf	status, 5	;RP0=0, select bank0
  3307+ 0DB4  1303               	bcf	status, 6	;RP1=0, select bank0
  3308+ 0DB5  1886               	btfsc	(49/8),(49)&7
  3309+ 0DB6  2DB8               	goto	u3031
  3310+ 0DB7  2DB9               	goto	u3030
  3311+ 0DB8                     u3031:
  3312+ 0DB8  2DB3               	goto	l79
  3313+ 0DB9                     u3030:
  3314+                          	
  3315+ 0DB9                     l78:	
  3316+                          	line	298
  3317+                          ;ATM.c: 296: }
  3318+                          ;ATM.c: 298: if(RB2==1)
  3319+ 0DB9  1D06               	btfss	(50/8),(50)&7
  3320+ 0DBA  2DBC               	goto	u3041
  3321+ 0DBB  2DBD               	goto	u3040
  3322+ 0DBC                     u3041:
  3323+ 0DBC  2DE4               	goto	l82
  3324+ 0DBD                     u3040:
  3325+                          	
  3326+ 0DBD                     l30001320:	
  3327+                          	line	300
  3328+                          ;ATM.c: 299: {
  3329+                          ;ATM.c: 300: var=3;
  3330+ 0DBD  3003               	movlw	low(03h)
  3331+ 0DBE  00F9               	movwf	(_var)
  3332+ 0DBF  3000               	movlw	high(03h)
  3333+ 0DC0  00FA               	movwf	((_var))+1
  3334+                          	line	301
  3335+                          ;ATM.c: 301: count++;
  3336+ 0DC1  3001               	movlw	low(01h)
  3337+ 0DC2  07B4               	addwf	(_count),f
  3338+ 0DC3  1803               	skipnc
  3339+ 0DC4  0AB5               	incf	(_count+1),f
  3340+ 0DC5  3000               	movlw	high(01h)
  3341+ 0DC6  07B5               	addwf	(_count+1),f
  3342+                          	line	302
  3343+                          ;ATM.c: 302: countp++;
  3344+ 0DC7  3001               	movlw	low(01h)
  3345+ 0DC8  07DC               	addwf	(_countp),f
  3346+ 0DC9  1803               	skipnc
  3347+ 0DCA  0ADD               	incf	(_countp+1),f
  3348+ 0DCB  3000               	movlw	high(01h)
  3349+ 0DCC  07DD               	addwf	(_countp+1),f
  3350+                          	
  3351+ 0DCD                     l30001321:	
  3352+                          	line	303
  3353+                          ;ATM.c: 303: inputpass[countp]=var;
  3354+ 0DCD  085C               	movf	(_countp),w
  3355+ 0DCE  00F7               	movwf	(??_main+0+0)
  3356+ 0DCF  0777               	addwf	(??_main+0+0),w
  3357+ 0DD0  3EA0               	addlw	(_inputpass)&0ffh
  3358+ 0DD1  0084               	movwf	fsr0
  3359+ 0DD2  3003               	movlw	low(03h)
  3360+ 0DD3  1383               	bcf	status, 7	;select IRP bank1
  3361+ 0DD4  0080               	movwf	indf
  3362+ 0DD5  0A84               	incf	fsr0,f
  3363+ 0DD6  3000               	movlw	high(03h)
  3364+ 0DD7  0080               	movwf	indf
  3365+                          	
  3366+ 0DD8                     l30001322:	
  3367+                          	line	304
  3368+                          ;ATM.c: 304: data(var+48);
  3369+ 0DD8  3033               	movlw	(033h)
  3370+ 0DD9  120A  118A  2045   	fcall	_data
      +       120A  158A         
  3371+                          	
  3372+ 0DDE                     l83:	
  3373+                          	line	305
  3374+ 0DDE  1283               	bcf	status, 5	;RP0=0, select bank0
  3375+ 0DDF  1303               	bcf	status, 6	;RP1=0, select bank0
  3376+ 0DE0  1906               	btfsc	(50/8),(50)&7
  3377+ 0DE1  2DE3               	goto	u3051
  3378+ 0DE2  2DE4               	goto	u3050
  3379+ 0DE3                     u3051:
  3380+ 0DE3  2DDE               	goto	l83
  3381+ 0DE4                     u3050:
  3382+                          	
  3383+ 0DE4                     l82:	
  3384+                          	line	308
  3385+                          ;ATM.c: 306: }
  3386+                          ;ATM.c: 308: RB3=0,RB4=1,RB5=0,RB6=0;
  3387+ 0DE4  1186               	bcf	(51/8),(51)&7
  3388+ 0DE5  1606               	bsf	(52/8),(52)&7
  3389+ 0DE6  1286               	bcf	(53/8),(53)&7
  3390+ 0DE7  1306               	bcf	(54/8),(54)&7
  3391+                          	line	309
  3392+                          ;ATM.c: 309: if(RB0==1)
  3393+ 0DE8  1C06               	btfss	(48/8),(48)&7
  3394+ 0DE9  2DEB               	goto	u3061
  3395+ 0DEA  2DEC               	goto	u3060
  3396+ 0DEB                     u3061:
  3397+ 0DEB  2E13               	goto	l86
  3398+ 0DEC                     u3060:
  3399+                          	
  3400+ 0DEC                     l30001323:	
  3401+                          	line	311
  3402+                          ;ATM.c: 310: {
  3403+                          ;ATM.c: 311: var=4;
  3404+ 0DEC  3004               	movlw	low(04h)
  3405+ 0DED  00F9               	movwf	(_var)
  3406+ 0DEE  3000               	movlw	high(04h)
  3407+ 0DEF  00FA               	movwf	((_var))+1
  3408+                          	line	312
  3409+                          ;ATM.c: 312: count++;
  3410+ 0DF0  3001               	movlw	low(01h)
  3411+ 0DF1  07B4               	addwf	(_count),f
  3412+ 0DF2  1803               	skipnc
  3413+ 0DF3  0AB5               	incf	(_count+1),f
  3414+ 0DF4  3000               	movlw	high(01h)
  3415+ 0DF5  07B5               	addwf	(_count+1),f
  3416+                          	line	313
  3417+                          ;ATM.c: 313: countp++;
  3418+ 0DF6  3001               	movlw	low(01h)
  3419+ 0DF7  07DC               	addwf	(_countp),f
  3420+ 0DF8  1803               	skipnc
  3421+ 0DF9  0ADD               	incf	(_countp+1),f
  3422+ 0DFA  3000               	movlw	high(01h)
  3423+ 0DFB  07DD               	addwf	(_countp+1),f
  3424+                          	
  3425+ 0DFC                     l30001324:	
  3426+                          	line	314
  3427+                          ;ATM.c: 314: inputpass[countp]=var;
  3428+ 0DFC  085C               	movf	(_countp),w
  3429+ 0DFD  00F7               	movwf	(??_main+0+0)
  3430+ 0DFE  0777               	addwf	(??_main+0+0),w
  3431+ 0DFF  3EA0               	addlw	(_inputpass)&0ffh
  3432+ 0E00  0084               	movwf	fsr0
  3433+ 0E01  3004               	movlw	low(04h)
  3434+ 0E02  1383               	bcf	status, 7	;select IRP bank1
  3435+ 0E03  0080               	movwf	indf
  3436+ 0E04  0A84               	incf	fsr0,f
  3437+ 0E05  3000               	movlw	high(04h)
  3438+ 0E06  0080               	movwf	indf
  3439+                          	
  3440+ 0E07                     l30001325:	
  3441+                          	line	315
  3442+                          ;ATM.c: 315: data(var+48);
  3443+ 0E07  3034               	movlw	(034h)
  3444+ 0E08  120A  118A  2045   	fcall	_data
      +       120A  158A         
  3445+                          	
  3446+ 0E0D                     l87:	
  3447+                          	line	316
  3448+ 0E0D  1283               	bcf	status, 5	;RP0=0, select bank0
  3449+ 0E0E  1303               	bcf	status, 6	;RP1=0, select bank0
  3450+ 0E0F  1806               	btfsc	(48/8),(48)&7
  3451+ 0E10  2E12               	goto	u3071
  3452+ 0E11  2E13               	goto	u3070
  3453+ 0E12                     u3071:
  3454+ 0E12  2E0D               	goto	l87
  3455+ 0E13                     u3070:
  3456+                          	
  3457+ 0E13                     l86:	
  3458+                          	line	319
  3459+                          ;ATM.c: 317: }
  3460+                          ;ATM.c: 319: if(RB1==1)
  3461+ 0E13  1C86               	btfss	(49/8),(49)&7
  3462+ 0E14  2E16               	goto	u3081
  3463+ 0E15  2E17               	goto	u3080
  3464+ 0E16                     u3081:
  3465+ 0E16  2E3E               	goto	l90
  3466+ 0E17                     u3080:
  3467+                          	
  3468+ 0E17                     l30001326:	
  3469+                          	line	321
  3470+                          ;ATM.c: 320: {
  3471+                          ;ATM.c: 321: var=5;
  3472+ 0E17  3005               	movlw	low(05h)
  3473+ 0E18  00F9               	movwf	(_var)
  3474+ 0E19  3000               	movlw	high(05h)
  3475+ 0E1A  00FA               	movwf	((_var))+1
  3476+                          	line	322
  3477+                          ;ATM.c: 322: count++;
  3478+ 0E1B  3001               	movlw	low(01h)
  3479+ 0E1C  07B4               	addwf	(_count),f
  3480+ 0E1D  1803               	skipnc
  3481+ 0E1E  0AB5               	incf	(_count+1),f
  3482+ 0E1F  3000               	movlw	high(01h)
  3483+ 0E20  07B5               	addwf	(_count+1),f
  3484+                          	line	323
  3485+                          ;ATM.c: 323: countp++;
  3486+ 0E21  3001               	movlw	low(01h)
  3487+ 0E22  07DC               	addwf	(_countp),f
  3488+ 0E23  1803               	skipnc
  3489+ 0E24  0ADD               	incf	(_countp+1),f
  3490+ 0E25  3000               	movlw	high(01h)
  3491+ 0E26  07DD               	addwf	(_countp+1),f
  3492+                          	
  3493+ 0E27                     l30001327:	
  3494+                          	line	324
  3495+                          ;ATM.c: 324: inputpass[countp]=var;
  3496+ 0E27  085C               	movf	(_countp),w
  3497+ 0E28  00F7               	movwf	(??_main+0+0)
  3498+ 0E29  0777               	addwf	(??_main+0+0),w
  3499+ 0E2A  3EA0               	addlw	(_inputpass)&0ffh
  3500+ 0E2B  0084               	movwf	fsr0
  3501+ 0E2C  3005               	movlw	low(05h)
  3502+ 0E2D  1383               	bcf	status, 7	;select IRP bank1
  3503+ 0E2E  0080               	movwf	indf
  3504+ 0E2F  0A84               	incf	fsr0,f
  3505+ 0E30  3000               	movlw	high(05h)
  3506+ 0E31  0080               	movwf	indf
  3507+                          	
  3508+ 0E32                     l30001328:	
  3509+                          	line	325
  3510+                          ;ATM.c: 325: data(var+48);
  3511+ 0E32  3035               	movlw	(035h)
  3512+ 0E33  120A  118A  2045   	fcall	_data
      +       120A  158A         
  3513+                          	
  3514+ 0E38                     l91:	
  3515+                          	line	326
  3516+ 0E38  1283               	bcf	status, 5	;RP0=0, select bank0
  3517+ 0E39  1303               	bcf	status, 6	;RP1=0, select bank0
  3518+ 0E3A  1886               	btfsc	(49/8),(49)&7
  3519+ 0E3B  2E3D               	goto	u3091
  3520+ 0E3C  2E3E               	goto	u3090
  3521+ 0E3D                     u3091:
  3522+ 0E3D  2E38               	goto	l91
  3523+ 0E3E                     u3090:
  3524+                          	
  3525+ 0E3E                     l90:	
  3526+                          	line	329
  3527+                          ;ATM.c: 327: }
  3528+                          ;ATM.c: 329: if(RB2==1)
  3529+ 0E3E  1D06               	btfss	(50/8),(50)&7
  3530+ 0E3F  2E41               	goto	u3101
  3531+ 0E40  2E42               	goto	u3100
  3532+ 0E41                     u3101:
  3533+ 0E41  2E69               	goto	l94
  3534+ 0E42                     u3100:
  3535+                          	
  3536+ 0E42                     l30001329:	
  3537+                          	line	331
  3538+                          ;ATM.c: 330: {
  3539+                          ;ATM.c: 331: var=6;
  3540+ 0E42  3006               	movlw	low(06h)
  3541+ 0E43  00F9               	movwf	(_var)
  3542+ 0E44  3000               	movlw	high(06h)
  3543+ 0E45  00FA               	movwf	((_var))+1
  3544+                          	line	332
  3545+                          ;ATM.c: 332: count++;
  3546+ 0E46  3001               	movlw	low(01h)
  3547+ 0E47  07B4               	addwf	(_count),f
  3548+ 0E48  1803               	skipnc
  3549+ 0E49  0AB5               	incf	(_count+1),f
  3550+ 0E4A  3000               	movlw	high(01h)
  3551+ 0E4B  07B5               	addwf	(_count+1),f
  3552+                          	line	333
  3553+                          ;ATM.c: 333: countp++;
  3554+ 0E4C  3001               	movlw	low(01h)
  3555+ 0E4D  07DC               	addwf	(_countp),f
  3556+ 0E4E  1803               	skipnc
  3557+ 0E4F  0ADD               	incf	(_countp+1),f
  3558+ 0E50  3000               	movlw	high(01h)
  3559+ 0E51  07DD               	addwf	(_countp+1),f
  3560+                          	
  3561+ 0E52                     l30001330:	
  3562+                          	line	334
  3563+                          ;ATM.c: 334: inputpass[countp]=var;
  3564+ 0E52  085C               	movf	(_countp),w
  3565+ 0E53  00F7               	movwf	(??_main+0+0)
  3566+ 0E54  0777               	addwf	(??_main+0+0),w
  3567+ 0E55  3EA0               	addlw	(_inputpass)&0ffh
  3568+ 0E56  0084               	movwf	fsr0
  3569+ 0E57  3006               	movlw	low(06h)
  3570+ 0E58  1383               	bcf	status, 7	;select IRP bank1
  3571+ 0E59  0080               	movwf	indf
  3572+ 0E5A  0A84               	incf	fsr0,f
  3573+ 0E5B  3000               	movlw	high(06h)
  3574+ 0E5C  0080               	movwf	indf
  3575+                          	
  3576+ 0E5D                     l30001331:	
  3577+                          	line	335
  3578+                          ;ATM.c: 335: data(var+48);
  3579+ 0E5D  3036               	movlw	(036h)
  3580+ 0E5E  120A  118A  2045   	fcall	_data
      +       120A  158A         
  3581+                          	
  3582+ 0E63                     l95:	
  3583+                          	line	336
  3584+ 0E63  1283               	bcf	status, 5	;RP0=0, select bank0
  3585+ 0E64  1303               	bcf	status, 6	;RP1=0, select bank0
  3586+ 0E65  1906               	btfsc	(50/8),(50)&7
  3587+ 0E66  2E68               	goto	u3111
  3588+ 0E67  2E69               	goto	u3110
  3589+ 0E68                     u3111:
  3590+ 0E68  2E63               	goto	l95
  3591+ 0E69                     u3110:
  3592+                          	
  3593+ 0E69                     l94:	
  3594+                          	line	339
  3595+                          ;ATM.c: 337: }
  3596+                          ;ATM.c: 339: RB3=0,RB4=0,RB5=1,RB6=0;
  3597+ 0E69  1186               	bcf	(51/8),(51)&7
  3598+ 0E6A  1206               	bcf	(52/8),(52)&7
  3599+ 0E6B  1686               	bsf	(53/8),(53)&7
  3600+ 0E6C  1306               	bcf	(54/8),(54)&7
  3601+                          	line	340
  3602+                          ;ATM.c: 340: if(RB0==1)
  3603+ 0E6D  1C06               	btfss	(48/8),(48)&7
  3604+ 0E6E  2E70               	goto	u3121
  3605+ 0E6F  2E71               	goto	u3120
  3606+ 0E70                     u3121:
  3607+ 0E70  2E98               	goto	l98
  3608+ 0E71                     u3120:
  3609+                          	
  3610+ 0E71                     l30001332:	
  3611+                          	line	342
  3612+                          ;ATM.c: 341: {
  3613+                          ;ATM.c: 342: var=7;
  3614+ 0E71  3007               	movlw	low(07h)
  3615+ 0E72  00F9               	movwf	(_var)
  3616+ 0E73  3000               	movlw	high(07h)
  3617+ 0E74  00FA               	movwf	((_var))+1
  3618+                          	line	343
  3619+                          ;ATM.c: 343: count++;
  3620+ 0E75  3001               	movlw	low(01h)
  3621+ 0E76  07B4               	addwf	(_count),f
  3622+ 0E77  1803               	skipnc
  3623+ 0E78  0AB5               	incf	(_count+1),f
  3624+ 0E79  3000               	movlw	high(01h)
  3625+ 0E7A  07B5               	addwf	(_count+1),f
  3626+                          	line	344
  3627+                          ;ATM.c: 344: countp++;
  3628+ 0E7B  3001               	movlw	low(01h)
  3629+ 0E7C  07DC               	addwf	(_countp),f
  3630+ 0E7D  1803               	skipnc
  3631+ 0E7E  0ADD               	incf	(_countp+1),f
  3632+ 0E7F  3000               	movlw	high(01h)
  3633+ 0E80  07DD               	addwf	(_countp+1),f
  3634+                          	
  3635+ 0E81                     l30001333:	
  3636+                          	line	345
  3637+                          ;ATM.c: 345: inputpass[countp]=var;
  3638+ 0E81  085C               	movf	(_countp),w
  3639+ 0E82  00F7               	movwf	(??_main+0+0)
  3640+ 0E83  0777               	addwf	(??_main+0+0),w
  3641+ 0E84  3EA0               	addlw	(_inputpass)&0ffh
  3642+ 0E85  0084               	movwf	fsr0
  3643+ 0E86  3007               	movlw	low(07h)
  3644+ 0E87  1383               	bcf	status, 7	;select IRP bank1
  3645+ 0E88  0080               	movwf	indf
  3646+ 0E89  0A84               	incf	fsr0,f
  3647+ 0E8A  3000               	movlw	high(07h)
  3648+ 0E8B  0080               	movwf	indf
  3649+                          	
  3650+ 0E8C                     l30001334:	
  3651+                          	line	346
  3652+                          ;ATM.c: 346: data(var+48);
  3653+ 0E8C  3037               	movlw	(037h)
  3654+ 0E8D  120A  118A  2045   	fcall	_data
      +       120A  158A         
  3655+                          	
  3656+ 0E92                     l99:	
  3657+                          	line	347
  3658+ 0E92  1283               	bcf	status, 5	;RP0=0, select bank0
  3659+ 0E93  1303               	bcf	status, 6	;RP1=0, select bank0
  3660+ 0E94  1806               	btfsc	(48/8),(48)&7
  3661+ 0E95  2E97               	goto	u3131
  3662+ 0E96  2E98               	goto	u3130
  3663+ 0E97                     u3131:
  3664+ 0E97  2E92               	goto	l99
  3665+ 0E98                     u3130:
  3666+                          	
  3667+ 0E98                     l98:	
  3668+                          	line	350
  3669+                          ;ATM.c: 348: }
  3670+                          ;ATM.c: 350: if(RB1==1)
  3671+ 0E98  1C86               	btfss	(49/8),(49)&7
  3672+ 0E99  2E9B               	goto	u3141
  3673+ 0E9A  2E9C               	goto	u3140
  3674+ 0E9B                     u3141:
  3675+ 0E9B  2EC3               	goto	l102
  3676+ 0E9C                     u3140:
  3677+                          	
  3678+ 0E9C                     l30001335:	
  3679+                          	line	352
  3680+                          ;ATM.c: 351: {
  3681+                          ;ATM.c: 352: var=8;
  3682+ 0E9C  3008               	movlw	low(08h)
  3683+ 0E9D  00F9               	movwf	(_var)
  3684+ 0E9E  3000               	movlw	high(08h)
  3685+ 0E9F  00FA               	movwf	((_var))+1
  3686+                          	line	353
  3687+                          ;ATM.c: 353: count++;
  3688+ 0EA0  3001               	movlw	low(01h)
  3689+ 0EA1  07B4               	addwf	(_count),f
  3690+ 0EA2  1803               	skipnc
  3691+ 0EA3  0AB5               	incf	(_count+1),f
  3692+ 0EA4  3000               	movlw	high(01h)
  3693+ 0EA5  07B5               	addwf	(_count+1),f
  3694+                          	line	354
  3695+                          ;ATM.c: 354: countp++;
  3696+ 0EA6  3001               	movlw	low(01h)
  3697+ 0EA7  07DC               	addwf	(_countp),f
  3698+ 0EA8  1803               	skipnc
  3699+ 0EA9  0ADD               	incf	(_countp+1),f
  3700+ 0EAA  3000               	movlw	high(01h)
  3701+ 0EAB  07DD               	addwf	(_countp+1),f
  3702+                          	
  3703+ 0EAC                     l30001336:	
  3704+                          	line	355
  3705+                          ;ATM.c: 355: inputpass[countp]=var;
  3706+ 0EAC  085C               	movf	(_countp),w
  3707+ 0EAD  00F7               	movwf	(??_main+0+0)
  3708+ 0EAE  0777               	addwf	(??_main+0+0),w
  3709+ 0EAF  3EA0               	addlw	(_inputpass)&0ffh
  3710+ 0EB0  0084               	movwf	fsr0
  3711+ 0EB1  3008               	movlw	low(08h)
  3712+ 0EB2  1383               	bcf	status, 7	;select IRP bank1
  3713+ 0EB3  0080               	movwf	indf
  3714+ 0EB4  0A84               	incf	fsr0,f
  3715+ 0EB5  3000               	movlw	high(08h)
  3716+ 0EB6  0080               	movwf	indf
  3717+                          	
  3718+ 0EB7                     l30001337:	
  3719+                          	line	356
  3720+                          ;ATM.c: 356: data(var+48);
  3721+ 0EB7  3038               	movlw	(038h)
  3722+ 0EB8  120A  118A  2045   	fcall	_data
      +       120A  158A         
  3723+                          	
  3724+ 0EBD                     l103:	
  3725+                          	line	357
  3726+ 0EBD  1283               	bcf	status, 5	;RP0=0, select bank0
  3727+ 0EBE  1303               	bcf	status, 6	;RP1=0, select bank0
  3728+ 0EBF  1886               	btfsc	(49/8),(49)&7
  3729+ 0EC0  2EC2               	goto	u3151
  3730+ 0EC1  2EC3               	goto	u3150
  3731+ 0EC2                     u3151:
  3732+ 0EC2  2EBD               	goto	l103
  3733+ 0EC3                     u3150:
  3734+                          	
  3735+ 0EC3                     l102:	
  3736+                          	line	360
  3737+                          ;ATM.c: 358: }
  3738+                          ;ATM.c: 360: if(RB2==1)
  3739+ 0EC3  1D06               	btfss	(50/8),(50)&7
  3740+ 0EC4  2EC6               	goto	u3161
  3741+ 0EC5  2EC7               	goto	u3160
  3742+ 0EC6                     u3161:
  3743+ 0EC6  2EEE               	goto	l106
  3744+ 0EC7                     u3160:
  3745+                          	
  3746+ 0EC7                     l30001338:	
  3747+                          	line	362
  3748+                          ;ATM.c: 361: {
  3749+                          ;ATM.c: 362: var=9;
  3750+ 0EC7  3009               	movlw	low(09h)
  3751+ 0EC8  00F9               	movwf	(_var)
  3752+ 0EC9  3000               	movlw	high(09h)
  3753+ 0ECA  00FA               	movwf	((_var))+1
  3754+                          	line	363
  3755+                          ;ATM.c: 363: count++;
  3756+ 0ECB  3001               	movlw	low(01h)
  3757+ 0ECC  07B4               	addwf	(_count),f
  3758+ 0ECD  1803               	skipnc
  3759+ 0ECE  0AB5               	incf	(_count+1),f
  3760+ 0ECF  3000               	movlw	high(01h)
  3761+ 0ED0  07B5               	addwf	(_count+1),f
  3762+                          	line	364
  3763+                          ;ATM.c: 364: countp++;
  3764+ 0ED1  3001               	movlw	low(01h)
  3765+ 0ED2  07DC               	addwf	(_countp),f
  3766+ 0ED3  1803               	skipnc
  3767+ 0ED4  0ADD               	incf	(_countp+1),f
  3768+ 0ED5  3000               	movlw	high(01h)
  3769+ 0ED6  07DD               	addwf	(_countp+1),f
  3770+                          	
  3771+ 0ED7                     l30001339:	
  3772+                          	line	365
  3773+                          ;ATM.c: 365: inputpass[countp]=var;
  3774+ 0ED7  085C               	movf	(_countp),w
  3775+ 0ED8  00F7               	movwf	(??_main+0+0)
  3776+ 0ED9  0777               	addwf	(??_main+0+0),w
  3777+ 0EDA  3EA0               	addlw	(_inputpass)&0ffh
  3778+ 0EDB  0084               	movwf	fsr0
  3779+ 0EDC  3009               	movlw	low(09h)
  3780+ 0EDD  1383               	bcf	status, 7	;select IRP bank1
  3781+ 0EDE  0080               	movwf	indf
  3782+ 0EDF  0A84               	incf	fsr0,f
  3783+ 0EE0  3000               	movlw	high(09h)
  3784+ 0EE1  0080               	movwf	indf
  3785+                          	
  3786+ 0EE2                     l30001340:	
  3787+                          	line	366
  3788+                          ;ATM.c: 366: data(var+48);
  3789+ 0EE2  3039               	movlw	(039h)
  3790+ 0EE3  120A  118A  2045   	fcall	_data
      +       120A  158A         
  3791+                          	
  3792+ 0EE8                     l107:	
  3793+                          	line	367
  3794+ 0EE8  1283               	bcf	status, 5	;RP0=0, select bank0
  3795+ 0EE9  1303               	bcf	status, 6	;RP1=0, select bank0
  3796+ 0EEA  1906               	btfsc	(50/8),(50)&7
  3797+ 0EEB  2EED               	goto	u3171
  3798+ 0EEC  2EEE               	goto	u3170
  3799+ 0EED                     u3171:
  3800+ 0EED  2EE8               	goto	l107
  3801+ 0EEE                     u3170:
  3802+                          	
  3803+ 0EEE                     l106:	
  3804+                          	line	370
  3805+                          ;ATM.c: 368: }
  3806+                          ;ATM.c: 370: RB3=0,RB4=0,RB5=0,RB6=1;
  3807+ 0EEE  1186               	bcf	(51/8),(51)&7
  3808+ 0EEF  1206               	bcf	(52/8),(52)&7
  3809+ 0EF0  1286               	bcf	(53/8),(53)&7
  3810+ 0EF1  1706               	bsf	(54/8),(54)&7
  3811+                          	line	372
  3812+                          ;ATM.c: 372: if(RB1==1)
  3813+ 0EF2  1C86               	btfss	(49/8),(49)&7
  3814+ 0EF3  2EF5               	goto	u3181
  3815+ 0EF4  2EF6               	goto	u3180
  3816+ 0EF5                     u3181:
  3817+ 0EF5  2F1D               	goto	l30001344
  3818+ 0EF6                     u3180:
  3819+                          	
  3820+ 0EF6                     l30001341:	
  3821+                          	line	374
  3822+                          ;ATM.c: 373: {
  3823+                          ;ATM.c: 374: var=0;
  3824+ 0EF6  3000               	movlw	low(0)
  3825+ 0EF7  00F9               	movwf	(_var)
  3826+ 0EF8  3000               	movlw	high(0)
  3827+ 0EF9  00FA               	movwf	((_var))+1
  3828+                          	line	375
  3829+                          ;ATM.c: 375: count++;
  3830+ 0EFA  3001               	movlw	low(01h)
  3831+ 0EFB  07B4               	addwf	(_count),f
  3832+ 0EFC  1803               	skipnc
  3833+ 0EFD  0AB5               	incf	(_count+1),f
  3834+ 0EFE  3000               	movlw	high(01h)
  3835+ 0EFF  07B5               	addwf	(_count+1),f
  3836+                          	line	376
  3837+                          ;ATM.c: 376: countp++;
  3838+ 0F00  3001               	movlw	low(01h)
  3839+ 0F01  07DC               	addwf	(_countp),f
  3840+ 0F02  1803               	skipnc
  3841+ 0F03  0ADD               	incf	(_countp+1),f
  3842+ 0F04  3000               	movlw	high(01h)
  3843+ 0F05  07DD               	addwf	(_countp+1),f
  3844+                          	
  3845+ 0F06                     l30001342:	
  3846+                          	line	377
  3847+                          ;ATM.c: 377: inputpass[countp]=var;
  3848+ 0F06  085C               	movf	(_countp),w
  3849+ 0F07  00F7               	movwf	(??_main+0+0)
  3850+ 0F08  0777               	addwf	(??_main+0+0),w
  3851+ 0F09  3EA0               	addlw	(_inputpass)&0ffh
  3852+ 0F0A  0084               	movwf	fsr0
  3853+ 0F0B  3000               	movlw	low(0)
  3854+ 0F0C  1383               	bcf	status, 7	;select IRP bank1
  3855+ 0F0D  0080               	movwf	indf
  3856+ 0F0E  0A84               	incf	fsr0,f
  3857+ 0F0F  3000               	movlw	high(0)
  3858+ 0F10  0080               	movwf	indf
  3859+                          	
  3860+ 0F11                     l30001343:	
  3861+                          	line	378
  3862+                          ;ATM.c: 378: data(var+48);
  3863+ 0F11  3030               	movlw	(030h)
  3864+ 0F12  120A  118A  2045   	fcall	_data
      +       120A  158A         
  3865+                          	
  3866+ 0F17                     l111:	
  3867+                          	line	379
  3868+ 0F17  1283               	bcf	status, 5	;RP0=0, select bank0
  3869+ 0F18  1303               	bcf	status, 6	;RP1=0, select bank0
  3870+ 0F19  1886               	btfsc	(49/8),(49)&7
  3871+ 0F1A  2F1C               	goto	u3191
  3872+ 0F1B  2F1D               	goto	u3190
  3873+ 0F1C                     u3191:
  3874+ 0F1C  2F17               	goto	l111
  3875+ 0F1D                     u3190:
  3876+                          	
  3877+ 0F1D                     l30001344:	
  3878+                          	line	383
  3879+                          ;ATM.c: 380: }
  3880+                          ;ATM.c: 383: if(countp==3)
  3881+ 0F1D  3003               	movlw	03h
  3882+ 0F1E  065C               	xorwf	(_countp),w
  3883+ 0F1F  045D               	iorwf	(_countp+1),w
  3884+ 0F20  1D03               	skipz
  3885+ 0F21  2F23               	goto	u3201
  3886+ 0F22  2F24               	goto	u3200
  3887+ 0F23                     u3201:
  3888+ 0F23  2D5D               	goto	l30001309
  3889+ 0F24                     u3200:
  3890+                          	
  3891+ 0F24                     l30001345:	
  3892+                          	line	385
  3893+                          ;ATM.c: 384: {
  3894+                          ;ATM.c: 385: command(0X01);
  3895+ 0F24  3001               	movlw	(01h)
  3896+ 0F25  120A  118A  2051   	fcall	_command
      +       120A  158A         
  3897+                          	line	386
  3898+                          ;ATM.c: 386: command(0X80);
  3899+ 0F2A  3080               	movlw	(080h)
  3900+ 0F2B  120A  118A  2051   	fcall	_command
      +       120A  158A         
  3901+                          	
  3902+ 0F30                     l30001346:	
  3903+                          	line	388
  3904+                          ;ATM.c: 388: if(count33==0)
  3905+ 0F30  1283               	bcf	status, 5	;RP0=0, select bank0
  3906+ 0F31  1303               	bcf	status, 6	;RP1=0, select bank0
  3907+ 0F32  0839               	movf	((_count33+1)),w
  3908+ 0F33  0438               	iorwf	((_count33)),w
  3909+ 0F34  1D03               	skipz
  3910+ 0F35  2F37               	goto	u3211
  3911+ 0F36  2F38               	goto	u3210
  3912+ 0F37                     u3211:
  3913+ 0F37  2F9F               	goto	l30001355
  3914+ 0F38                     u3210:
  3915+                          	
  3916+ 0F38                     l30001347:	
  3917+                          	line	390
  3918+                          ;ATM.c: 389: {
  3919+                          ;ATM.c: 390: count33++;
  3920+ 0F38  3001               	movlw	low(01h)
  3921+ 0F39  07B8               	addwf	(_count33),f
  3922+ 0F3A  1803               	skipnc
  3923+ 0F3B  0AB9               	incf	(_count33+1),f
  3924+ 0F3C  3000               	movlw	high(01h)
  3925+ 0F3D  07B9               	addwf	(_count33+1),f
  3926+                          	
  3927+ 0F3E                     l30001348:	
  3928+                          	line	391
  3929+                          ;ATM.c: 391: command(0X01);
  3930+ 0F3E  3001               	movlw	(01h)
  3931+ 0F3F  120A  118A  2051   	fcall	_command
      +       120A  158A         
  3932+                          	
  3933+ 0F44                     l30001349:	
  3934+                          	line	393
  3935+                          ;ATM.c: 393: if((password[0]==inputpass[0])&&(password[1]==inputpass[1])&&(password[2]==
      +                          inputpass[2])&&(password[3]==inputpass[3]))
  3936+ 0F44  1683               	bsf	status, 5	;RP0=1, select bank1
  3937+ 0F45  1303               	bcf	status, 6	;RP1=0, select bank1
  3938+ 0F46  0821               	movf	(_inputpass+1)^080h,w
  3939+ 0F47  1683               	bsf	status, 5	;RP0=1, select bank3
  3940+ 0F48  1703               	bsf	status, 6	;RP1=1, select bank3
  3941+ 0F49  0611               	xorwf	(_password+1)^0180h,w
  3942+ 0F4A  1D03               	skipz
  3943+ 0F4B  2F52               	goto	u3225
  3944+ 0F4C  1683               	bsf	status, 5	;RP0=1, select bank1
  3945+ 0F4D  1303               	bcf	status, 6	;RP1=0, select bank1
  3946+ 0F4E  0820               	movf	(_inputpass)^080h,w
  3947+ 0F4F  1683               	bsf	status, 5	;RP0=1, select bank3
  3948+ 0F50  1703               	bsf	status, 6	;RP1=1, select bank3
  3949+ 0F51  0610               	xorwf	(_password)^0180h,w
  3950+ 0F52                     u3225:
  3951+                          
  3952+ 0F52  1D03               	skipz
  3953+ 0F53  2F55               	goto	u3221
  3954+ 0F54  2F56               	goto	u3220
  3955+ 0F55                     u3221:
  3956+ 0F55  2F96               	goto	l30001354
  3957+ 0F56                     u3220:
  3958+                          	
  3959+ 0F56                     l30001350:	
  3960+ 0F56  1683               	bsf	status, 5	;RP0=1, select bank1
  3961+ 0F57  1303               	bcf	status, 6	;RP1=0, select bank1
  3962+ 0F58  0823               	movf	1+(_inputpass)^080h+02h,w
  3963+ 0F59  1683               	bsf	status, 5	;RP0=1, select bank3
  3964+ 0F5A  1703               	bsf	status, 6	;RP1=1, select bank3
  3965+ 0F5B  0613               	xorwf	1+(_password)^0180h+02h,w
  3966+ 0F5C  1D03               	skipz
  3967+ 0F5D  2F64               	goto	u3235
  3968+ 0F5E  1683               	bsf	status, 5	;RP0=1, select bank1
  3969+ 0F5F  1303               	bcf	status, 6	;RP1=0, select bank1
  3970+ 0F60  0822               	movf	0+(_inputpass)^080h+02h,w
  3971+ 0F61  1683               	bsf	status, 5	;RP0=1, select bank3
  3972+ 0F62  1703               	bsf	status, 6	;RP1=1, select bank3
  3973+ 0F63  0612               	xorwf	0+(_password)^0180h+02h,w
  3974+ 0F64                     u3235:
  3975+                          
  3976+ 0F64  1D03               	skipz
  3977+ 0F65  2F67               	goto	u3231
  3978+ 0F66  2F68               	goto	u3230
  3979+ 0F67                     u3231:
  3980+ 0F67  2F96               	goto	l30001354
  3981+ 0F68                     u3230:
  3982+                          	
  3983+ 0F68                     l30001351:	
  3984+ 0F68  1683               	bsf	status, 5	;RP0=1, select bank1
  3985+ 0F69  1303               	bcf	status, 6	;RP1=0, select bank1
  3986+ 0F6A  0825               	movf	1+(_inputpass)^080h+04h,w
  3987+ 0F6B  1683               	bsf	status, 5	;RP0=1, select bank3
  3988+ 0F6C  1703               	bsf	status, 6	;RP1=1, select bank3
  3989+ 0F6D  0615               	xorwf	1+(_password)^0180h+04h,w
  3990+ 0F6E  1D03               	skipz
  3991+ 0F6F  2F76               	goto	u3245
  3992+ 0F70  1683               	bsf	status, 5	;RP0=1, select bank1
  3993+ 0F71  1303               	bcf	status, 6	;RP1=0, select bank1
  3994+ 0F72  0824               	movf	0+(_inputpass)^080h+04h,w
  3995+ 0F73  1683               	bsf	status, 5	;RP0=1, select bank3
  3996+ 0F74  1703               	bsf	status, 6	;RP1=1, select bank3
  3997+ 0F75  0614               	xorwf	0+(_password)^0180h+04h,w
  3998+ 0F76                     u3245:
  3999+                          
  4000+ 0F76  1D03               	skipz
  4001+ 0F77  2F79               	goto	u3241
  4002+ 0F78  2F7A               	goto	u3240
  4003+ 0F79                     u3241:
  4004+ 0F79  2F96               	goto	l30001354
  4005+ 0F7A                     u3240:
  4006+                          	
  4007+ 0F7A                     l30001352:	
  4008+ 0F7A  1683               	bsf	status, 5	;RP0=1, select bank1
  4009+ 0F7B  1303               	bcf	status, 6	;RP1=0, select bank1
  4010+ 0F7C  0827               	movf	1+(_inputpass)^080h+06h,w
  4011+ 0F7D  1683               	bsf	status, 5	;RP0=1, select bank3
  4012+ 0F7E  1703               	bsf	status, 6	;RP1=1, select bank3
  4013+ 0F7F  0617               	xorwf	1+(_password)^0180h+06h,w
  4014+ 0F80  1D03               	skipz
  4015+ 0F81  2F88               	goto	u3255
  4016+ 0F82  1683               	bsf	status, 5	;RP0=1, select bank1
  4017+ 0F83  1303               	bcf	status, 6	;RP1=0, select bank1
  4018+ 0F84  0826               	movf	0+(_inputpass)^080h+06h,w
  4019+ 0F85  1683               	bsf	status, 5	;RP0=1, select bank3
  4020+ 0F86  1703               	bsf	status, 6	;RP1=1, select bank3
  4021+ 0F87  0616               	xorwf	0+(_password)^0180h+06h,w
  4022+ 0F88                     u3255:
  4023+                          
  4024+ 0F88  1D03               	skipz
  4025+ 0F89  2F8B               	goto	u3251
  4026+ 0F8A  2F8C               	goto	u3250
  4027+ 0F8B                     u3251:
  4028+ 0F8B  2F96               	goto	l30001354
  4029+ 0F8C                     u3250:
  4030+                          	
  4031+ 0F8C                     l30001353:	
  4032+                          	line	395
  4033+                          ;ATM.c: 394: {
  4034+                          ;ATM.c: 395: string("CORRECT PASSWORD");
  4035+ 0F8C  30D5               	movlw	low((STR_6))
  4036+ 0F8D  00F3               	movwf	(?_string)
  4037+ 0F8E  3000               	movlw	high((STR_6))
  4038+ 0F8F  00F4               	movwf	((?_string))+1
  4039+ 0F90  120A  118A  218A   	fcall	_string
      +       120A  158A         
  4040+ 0F95  2F9F               	goto	l30001355
  4041+                          	
  4042+ 0F96                     l30001354:	
  4043+                          	line	400
  4044+                          ;ATM.c: 398: else
  4045+                          ;ATM.c: 399: {
  4046+                          ;ATM.c: 400: string("INVALID PASSWORD");
  4047+ 0F96  3008               	movlw	low((STR_7))
  4048+ 0F97  00F3               	movwf	(?_string)
  4049+ 0F98  3001               	movlw	high((STR_7))
  4050+ 0F99  00F4               	movwf	((?_string))+1
  4051+ 0F9A  120A  118A  218A   	fcall	_string
      +       120A  158A         
  4052+                          	
  4053+ 0F9F                     l30001355:	
  4054+                          	line	404
  4055+                          ;ATM.c: 401: }
  4056+                          ;ATM.c: 402: }
  4057+                          ;ATM.c: 404: for(i=0;i<5;i++)
  4058+ 0F9F  3000               	movlw	low(0)
  4059+ 0FA0  1283               	bcf	status, 5	;RP0=0, select bank0
  4060+ 0FA1  1303               	bcf	status, 6	;RP1=0, select bank0
  4061+ 0FA2  00C2               	movwf	(_i)
  4062+ 0FA3  3000               	movlw	high(0)
  4063+ 0FA4  00C3               	movwf	((_i))+1
  4064+                          	
  4065+ 0FA5                     l30001358:	
  4066+                          	line	406
  4067+                          ;ATM.c: 405: {
  4068+                          ;ATM.c: 406: _delay((unsigned long)((100)*(4000000/4000.0)));
  4069+ 0FA5  3082               	movlw	130
  4070+ 0FA6  00F8               movwf	(??_main+0+0+1),f
  4071+ 0FA7  30DD               	movlw	221
  4072+ 0FA8  00F7               movwf	(??_main+0+0),f
  4073+ 0FA9                     u3797:
  4074+ 0FA9  0BF7               	decfsz	(??_main+0+0),f
  4075+ 0FAA  2FA9               	goto	u3797
  4076+ 0FAB  0BF8               	decfsz	(??_main+0+0+1),f
  4077+ 0FAC  2FA9               	goto	u3797
  4078+ 0FAD  2FAE               	nop2
  4079+                          
  4080+                          	line	404
  4081+ 0FAE  3001               	movlw	low(01h)
  4082+ 0FAF  1283               	bcf	status, 5	;RP0=0, select bank0
  4083+ 0FB0  1303               	bcf	status, 6	;RP1=0, select bank0
  4084+ 0FB1  07C2               	addwf	(_i),f
  4085+ 0FB2  1803               	skipnc
  4086+ 0FB3  0AC3               	incf	(_i+1),f
  4087+ 0FB4  3000               	movlw	high(01h)
  4088+ 0FB5  07C3               	addwf	(_i+1),f
  4089+ 0FB6  0843               	movf	(_i+1),w
  4090+ 0FB7  3A80               	xorlw	80h
  4091+ 0FB8  00F7               	movwf	(??_main+0+0)
  4092+ 0FB9  3080               	movlw	(high(05h))^80h
  4093+ 0FBA  0277               	subwf	(??_main+0+0),w
  4094+ 0FBB  1D03               	skipz
  4095+ 0FBC  2FBF               	goto	u3265
  4096+ 0FBD  3005               	movlw	low(05h)
  4097+ 0FBE  0242               	subwf	(_i),w
  4098+ 0FBF                     u3265:
  4099+                          
  4100+ 0FBF  1C03               	skipc
  4101+ 0FC0  2FC2               	goto	u3261
  4102+ 0FC1  2FC3               	goto	u3260
  4103+ 0FC2                     u3261:
  4104+ 0FC2  2FA5               	goto	l30001358
  4105+ 0FC3                     u3260:
  4106+                          	
  4107+ 0FC3                     l30001359:	
  4108+                          	line	408
  4109+                          ;ATM.c: 407: }
  4110+                          ;ATM.c: 408: command(0X01);
  4111+ 0FC3  3001               	movlw	(01h)
  4112+ 0FC4  120A  118A  2051   	fcall	_command
      +       120A  158A         
  4113+ 0FC9  2FD1               	goto	l30001361
  4114+                          	
  4115+ 0FCA                     l121:	
  4116+                          	line	410
  4117+ 0FCA  1283               	bcf	status, 5	;RP0=0, select bank0
  4118+ 0FCB  1303               	bcf	status, 6	;RP1=0, select bank0
  4119+ 0FCC  1806               	btfsc	(48/8),(48)&7
  4120+ 0FCD  2FCF               	goto	u3271
  4121+ 0FCE  2FD0               	goto	u3270
  4122+ 0FCF                     u3271:
  4123+ 0FCF  2FCA               	goto	l121
  4124+ 0FD0                     u3270:
  4125+ 0FD0  2D5D               	goto	l30001309
  4126+                          	
  4127+ 0FD1                     l30001361:	
  4128+                          	line	416
  4129+                          ;ATM.c: 411: }
  4130+                          ;ATM.c: 414: }
  4131+                          ;ATM.c: 416: string("WELCOME");
  4132+ 0FD1  301F               	movlw	low((STR_8))
  4133+ 0FD2  00F3               	movwf	(?_string)
  4134+ 0FD3  3000               	movlw	high((STR_8))
  4135+ 0FD4  00F4               	movwf	((?_string))+1
  4136+ 0FD5  120A  118A  218A   	fcall	_string
      +       120A  158A         
  4137+                          	
  4138+ 0FDA                     l30001362:	
  4139+                          	line	417
  4140+                          ;ATM.c: 417: for(i=0;i<7;i++)
  4141+ 0FDA  3000               	movlw	low(0)
  4142+ 0FDB  1283               	bcf	status, 5	;RP0=0, select bank0
  4143+ 0FDC  1303               	bcf	status, 6	;RP1=0, select bank0
  4144+ 0FDD  00C2               	movwf	(_i)
  4145+ 0FDE  3000               	movlw	high(0)
  4146+ 0FDF  00C3               	movwf	((_i))+1
  4147+                          	
  4148+ 0FE0                     l30001365:	
  4149+                          	line	419
  4150+                          ;ATM.c: 418: {
  4151+                          ;ATM.c: 419: _delay((unsigned long)((100)*(4000000/4000.0)));
  4152+ 0FE0  3082               	movlw	130
  4153+ 0FE1  00F8               movwf	(??_main+0+0+1),f
  4154+ 0FE2  30DD               	movlw	221
  4155+ 0FE3  00F7               movwf	(??_main+0+0),f
  4156+ 0FE4                     u3807:
  4157+ 0FE4  0BF7               	decfsz	(??_main+0+0),f
  4158+ 0FE5  2FE4               	goto	u3807
  4159+ 0FE6  0BF8               	decfsz	(??_main+0+0+1),f
  4160+ 0FE7  2FE4               	goto	u3807
  4161+ 0FE8  2FE9               	nop2
  4162+                          
  4163+                          	line	417
  4164+ 0FE9  3001               	movlw	low(01h)
  4165+ 0FEA  1283               	bcf	status, 5	;RP0=0, select bank0
  4166+ 0FEB  1303               	bcf	status, 6	;RP1=0, select bank0
  4167+ 0FEC  07C2               	addwf	(_i),f
  4168+ 0FED  1803               	skipnc
  4169+ 0FEE  0AC3               	incf	(_i+1),f
  4170+ 0FEF  3000               	movlw	high(01h)
  4171+ 0FF0  07C3               	addwf	(_i+1),f
  4172+ 0FF1  0843               	movf	(_i+1),w
  4173+ 0FF2  3A80               	xorlw	80h
  4174+ 0FF3  00F7               	movwf	(??_main+0+0)
  4175+ 0FF4  3080               	movlw	(high(07h))^80h
  4176+ 0FF5  0277               	subwf	(??_main+0+0),w
  4177+ 0FF6  1D03               	skipz
  4178+ 0FF7  2FFA               	goto	u3285
  4179+ 0FF8  3007               	movlw	low(07h)
  4180+ 0FF9  0242               	subwf	(_i),w
  4181+ 0FFA                     u3285:
  4182+                          
  4183+ 0FFA  1C03               	skipc
  4184+ 0FFB  2FFF               	goto	u3281
  4185+ 0FFC  120A  118A  2AD8   	goto	u3280
  4186+ 0FFF                     u3281:
  4187+ 0FFF  2FE0               	goto	l30001365
  4188+ 02D8                     u3280:
  4189+                          	
  4190+ 02D8                     l30001366:	
  4191+                          	line	421
  4192+                          ;ATM.c: 420: }
  4193+                          ;ATM.c: 421: command(0X01);
  4194+ 02D8  3001               	movlw	(01h)
  4195+ 02D9  120A  118A  2051   	fcall	_command
      +       120A  118A         
  4196+                          	
  4197+ 02DE                     l30001367:	
  4198+                          	line	424
  4199+                          ;ATM.c: 424: string("CHOOSE OPTION");
  4200+ 02DE  3077               	movlw	low((STR_9))
  4201+ 02DF  00F3               	movwf	(?_string)
  4202+ 02E0  3000               	movlw	high((STR_9))
  4203+ 02E1  00F4               	movwf	((?_string))+1
  4204+ 02E2  120A  118A  218A   	fcall	_string
      +       120A  118A         
  4205+                          	
  4206+ 02E7                     l30001368:	
  4207+                          	line	425
  4208+                          ;ATM.c: 425: for(i=0;i<7;i++)
  4209+ 02E7  3000               	movlw	low(0)
  4210+ 02E8  1283               	bcf	status, 5	;RP0=0, select bank0
  4211+ 02E9  1303               	bcf	status, 6	;RP1=0, select bank0
  4212+ 02EA  00C2               	movwf	(_i)
  4213+ 02EB  3000               	movlw	high(0)
  4214+ 02EC  00C3               	movwf	((_i))+1
  4215+                          	
  4216+ 02ED                     l30001371:	
  4217+                          	line	427
  4218+                          ;ATM.c: 426: {
  4219+                          ;ATM.c: 427: _delay((unsigned long)((100)*(4000000/4000.0)));
  4220+ 02ED  3082               	movlw	130
  4221+ 02EE  00F8               movwf	(??_main+0+0+1),f
  4222+ 02EF  30DD               	movlw	221
  4223+ 02F0  00F7               movwf	(??_main+0+0),f
  4224+ 02F1                     u3817:
  4225+ 02F1  0BF7               	decfsz	(??_main+0+0),f
  4226+ 02F2  2AF1               	goto	u3817
  4227+ 02F3  0BF8               	decfsz	(??_main+0+0+1),f
  4228+ 02F4  2AF1               	goto	u3817
  4229+ 02F5  2AF6               	nop2
  4230+                          
  4231+                          	line	425
  4232+ 02F6  3001               	movlw	low(01h)
  4233+ 02F7  1283               	bcf	status, 5	;RP0=0, select bank0
  4234+ 02F8  1303               	bcf	status, 6	;RP1=0, select bank0
  4235+ 02F9  07C2               	addwf	(_i),f
  4236+ 02FA  1803               	skipnc
  4237+ 02FB  0AC3               	incf	(_i+1),f
  4238+ 02FC  3000               	movlw	high(01h)
  4239+ 02FD  07C3               	addwf	(_i+1),f
  4240+ 02FE  0843               	movf	(_i+1),w
  4241+ 02FF  3A80               	xorlw	80h
  4242+ 0300  00F7               	movwf	(??_main+0+0)
  4243+ 0301  3080               	movlw	(high(07h))^80h
  4244+ 0302  0277               	subwf	(??_main+0+0),w
  4245+ 0303  1D03               	skipz
  4246+ 0304  2B07               	goto	u3295
  4247+ 0305  3007               	movlw	low(07h)
  4248+ 0306  0242               	subwf	(_i),w
  4249+ 0307                     u3295:
  4250+                          
  4251+ 0307  1C03               	skipc
  4252+ 0308  2B0A               	goto	u3291
  4253+ 0309  2B0B               	goto	u3290
  4254+ 030A                     u3291:
  4255+ 030A  2AED               	goto	l30001371
  4256+ 030B                     u3290:
  4257+                          	
  4258+ 030B                     l30001372:	
  4259+                          	line	429
  4260+                          ;ATM.c: 428: }
  4261+                          ;ATM.c: 429: command(0X01);
  4262+ 030B  3001               	movlw	(01h)
  4263+ 030C  120A  118A  2051   	fcall	_command
      +       120A  118A         
  4264+                          	
  4265+ 0311                     l30001373:	
  4266+                          	line	432
  4267+                          ;ATM.c: 432: string("1.WITHDRAW MONEY");
  4268+ 0311  304C               	movlw	low((STR_10))
  4269+ 0312  00F3               	movwf	(?_string)
  4270+ 0313  3001               	movlw	high((STR_10))
  4271+ 0314  00F4               	movwf	((?_string))+1
  4272+ 0315  120A  118A  218A   	fcall	_string
      +       120A  118A         
  4273+                          	
  4274+ 031A                     l30001374:	
  4275+                          	line	433
  4276+                          ;ATM.c: 433: command(0XC0);
  4277+ 031A  30C0               	movlw	(0C0h)
  4278+ 031B  120A  118A  2051   	fcall	_command
      +       120A  118A         
  4279+                          	
  4280+ 0320                     l30001375:	
  4281+                          	line	435
  4282+                          ;ATM.c: 435: for(i=0;i<5;i++)
  4283+ 0320  3000               	movlw	low(0)
  4284+ 0321  1283               	bcf	status, 5	;RP0=0, select bank0
  4285+ 0322  1303               	bcf	status, 6	;RP1=0, select bank0
  4286+ 0323  00C2               	movwf	(_i)
  4287+ 0324  3000               	movlw	high(0)
  4288+ 0325  00C3               	movwf	((_i))+1
  4289+                          	
  4290+ 0326                     l30001378:	
  4291+                          	line	437
  4292+                          ;ATM.c: 436: {
  4293+                          ;ATM.c: 437: _delay((unsigned long)((100)*(4000000/4000.0)));
  4294+ 0326  3082               	movlw	130
  4295+ 0327  00F8               movwf	(??_main+0+0+1),f
  4296+ 0328  30DD               	movlw	221
  4297+ 0329  00F7               movwf	(??_main+0+0),f
  4298+ 032A                     u3827:
  4299+ 032A  0BF7               	decfsz	(??_main+0+0),f
  4300+ 032B  2B2A               	goto	u3827
  4301+ 032C  0BF8               	decfsz	(??_main+0+0+1),f
  4302+ 032D  2B2A               	goto	u3827
  4303+ 032E  2B2F               	nop2
  4304+                          
  4305+                          	line	435
  4306+ 032F  3001               	movlw	low(01h)
  4307+ 0330  1283               	bcf	status, 5	;RP0=0, select bank0
  4308+ 0331  1303               	bcf	status, 6	;RP1=0, select bank0
  4309  0332  07C2               	addwf	(_i),f
  4310  0333  1803               	skipnc
  4311  0334  0AC3               	incf	(_i+1),f
  4312  0335  3000               	movlw	high(01h)
  4313  0336  07C3               	addwf	(_i+1),f
  4314  0337  0843               	movf	(_i+1),w
  4315  0338  3A80               	xorlw	80h
  4316  0339  00F7               	movwf	(??_main+0+0)
  4317  033A  3080               	movlw	(high(05h))^80h
  4318  033B  0277               	subwf	(??_main+0+0),w
  4319  033C  1D03               	skipz
  4320  033D  2B40               	goto	u3305
  4321  033E  3005               	movlw	low(05h)
  4322  033F  0242               	subwf	(_i),w
  4323  0340                     u3305:
  4324                           
  4325  0340  1C03               	skipc
  4326  0341  2B43               	goto	u3301
  4327  0342  2B44               	goto	u3300
  4328  0343                     u3301:
  4329  0343  2B26               	goto	l30001378
  4330  0344                     u3300:
  4331                           	
  4332  0344                     l30001379:	
  4333                           	line	440
  4334                           ;ATM.c: 438: }
  4335                           ;ATM.c: 440: string("2.CHECK BALANCE");
  4336  0344  30A3               	movlw	low((STR_11))
  4337  0345  00F3               	movwf	(?_string)
  4338  0346  3000               	movlw	high((STR_11))
  4339  0347  00F4               	movwf	((?_string))+1
  4340  0348  120A  118A  218A   	fcall	_string
              120A  118A         
  4341                           	
  4342  034D                     l30001380:	
  4343                           	line	441
  4344                           ;ATM.c: 441: for(i=0;i<5;i++)
  4345  034D  3000               	movlw	low(0)
  4346  034E  1283               	bcf	status, 5	;RP0=0, select bank0
  4347  034F  1303               	bcf	status, 6	;RP1=0, select bank0
  4348  0350  00C2               	movwf	(_i)
  4349  0351  3000               	movlw	high(0)
  4350  0352  00C3               	movwf	((_i))+1
  4351                           	
  4352  0353                     l30001383:	
  4353                           	line	443
  4354                           ;ATM.c: 442: {
  4355                           ;ATM.c: 443: _delay((unsigned long)((100)*(4000000/4000.0)));
  4356  0353  3082               	movlw	130
  4357  0354  00F8               movwf	(??_main+0+0+1),f
  4358  0355  30DD               	movlw	221
  4359  0356  00F7               movwf	(??_main+0+0),f
  4360  0357                     u3837:
  4361  0357  0BF7               	decfsz	(??_main+0+0),f
  4362  0358  2B57               	goto	u3837
  4363  0359  0BF8               	decfsz	(??_main+0+0+1),f
  4364  035A  2B57               	goto	u3837
  4365  035B  2B5C               	nop2
  4366                           
  4367                           	line	441
  4368  035C  3001               	movlw	low(01h)
  4369  035D  1283               	bcf	status, 5	;RP0=0, select bank0
  4370  035E  1303               	bcf	status, 6	;RP1=0, select bank0
  4371  035F  07C2               	addwf	(_i),f
  4372  0360  1803               	skipnc
  4373  0361  0AC3               	incf	(_i+1),f
  4374  0362  3000               	movlw	high(01h)
  4375  0363  07C3               	addwf	(_i+1),f
  4376  0364  0843               	movf	(_i+1),w
  4377  0365  3A80               	xorlw	80h
  4378  0366  00F7               	movwf	(??_main+0+0)
  4379  0367  3080               	movlw	(high(05h))^80h
  4380  0368  0277               	subwf	(??_main+0+0),w
  4381  0369  1D03               	skipz
  4382  036A  2B6D               	goto	u3315
  4383  036B  3005               	movlw	low(05h)
  4384  036C  0242               	subwf	(_i),w
  4385  036D                     u3315:
  4386                           
  4387  036D  1C03               	skipc
  4388  036E  2B70               	goto	u3311
  4389  036F  2B71               	goto	u3310
  4390  0370                     u3311:
  4391  0370  2B53               	goto	l30001383
  4392  0371                     u3310:
  4393                           	
  4394  0371                     l137:	
  4395                           	line	450
  4396                           ;ATM.c: 449: {
  4397                           ;ATM.c: 450: RB3=1,RB4=0,RB5=0,RB6=0;
  4398  0371  1283               	bcf	status, 5	;RP0=0, select bank0
  4399  0372  1303               	bcf	status, 6	;RP1=0, select bank0
  4400  0373  1586               	bsf	(51/8),(51)&7
  4401  0374  1206               	bcf	(52/8),(52)&7
  4402  0375  1286               	bcf	(53/8),(53)&7
  4403  0376  1306               	bcf	(54/8),(54)&7
  4404                           	line	452
  4405                           ;ATM.c: 452: if(RB0==1)
  4406  0377  1C06               	btfss	(48/8),(48)&7
  4407  0378  2B7A               	goto	u3321
  4408  0379  2B7B               	goto	u3320
  4409  037A                     u3321:
  4410  037A  2B8F               	goto	l139
  4411  037B                     u3320:
  4412                           	
  4413  037B                     l30001384:	
  4414                           	line	454
  4415                           ;ATM.c: 453: {
  4416                           ;ATM.c: 454: var=1;
  4417  037B  3001               	movlw	low(01h)
  4418  037C  00F9               	movwf	(_var)
  4419  037D  3000               	movlw	high(01h)
  4420  037E  00FA               	movwf	((_var))+1
  4421                           	line	455
  4422                           ;ATM.c: 455: countspecial=1;
  4423  037F  3001               	movlw	low(01h)
  4424  0380  00C0               	movwf	(_countspecial)
  4425  0381  3000               	movlw	high(01h)
  4426  0382  00C1               	movwf	((_countspecial))+1
  4427                           	
  4428  0383                     l30001385:	
  4429                           	line	456
  4430                           ;ATM.c: 456: data(var+48);
  4431  0383  3031               	movlw	(031h)
  4432  0384  120A  118A  2045   	fcall	_data
              120A  118A         
  4433                           	
  4434  0389                     l140:	
  4435                           	line	457
  4436  0389  1283               	bcf	status, 5	;RP0=0, select bank0
  4437  038A  1303               	bcf	status, 6	;RP1=0, select bank0
  4438  038B  1806               	btfsc	(48/8),(48)&7
  4439  038C  2B8E               	goto	u3331
  4440  038D  2B8F               	goto	u3330
  4441  038E                     u3331:
  4442  038E  2B89               	goto	l140
  4443  038F                     u3330:
  4444                           	
  4445  038F                     l139:	
  4446                           	line	460
  4447                           ;ATM.c: 458: }
  4448                           ;ATM.c: 460: if(RB1==1)
  4449  038F  1C86               	btfss	(49/8),(49)&7
  4450  0390  2B92               	goto	u3341
  4451  0391  2B93               	goto	u3340
  4452  0392                     u3341:
  4453  0392  2BA7               	goto	l30001388
  4454  0393                     u3340:
  4455                           	
  4456  0393                     l30001386:	
  4457                           	line	462
  4458                           ;ATM.c: 461: {
  4459                           ;ATM.c: 462: var=2;
  4460  0393  3002               	movlw	low(02h)
  4461  0394  00F9               	movwf	(_var)
  4462  0395  3000               	movlw	high(02h)
  4463  0396  00FA               	movwf	((_var))+1
  4464                           	line	463
  4465                           ;ATM.c: 463: countspecial=2;
  4466  0397  3002               	movlw	low(02h)
  4467  0398  00C0               	movwf	(_countspecial)
  4468  0399  3000               	movlw	high(02h)
  4469  039A  00C1               	movwf	((_countspecial))+1
  4470                           	
  4471  039B                     l30001387:	
  4472                           	line	464
  4473                           ;ATM.c: 464: data(var+48);
  4474  039B  3032               	movlw	(032h)
  4475  039C  120A  118A  2045   	fcall	_data
              120A  118A         
  4476                           	
  4477  03A1                     l144:	
  4478                           	line	465
  4479  03A1  1283               	bcf	status, 5	;RP0=0, select bank0
  4480  03A2  1303               	bcf	status, 6	;RP1=0, select bank0
  4481  03A3  1886               	btfsc	(49/8),(49)&7
  4482  03A4  2BA6               	goto	u3351
  4483  03A5  2BA7               	goto	u3350
  4484  03A6                     u3351:
  4485  03A6  2BA1               	goto	l144
  4486  03A7                     u3350:
  4487                           	
  4488  03A7                     l30001388:	
  4489                           	line	468
  4490                           ;ATM.c: 466: }
  4491                           ;ATM.c: 468: if(countspecial>0)
  4492  03A7  0841               	movf	(_countspecial+1),w
  4493  03A8  3A80               	xorlw	80h
  4494  03A9  00F7               	movwf	(??_main+0+0)
  4495  03AA  3080               	movlw	(high(01h))^80h
  4496  03AB  0277               	subwf	(??_main+0+0),w
  4497  03AC  1D03               	skipz
  4498  03AD  2BB0               	goto	u3365
  4499  03AE  3001               	movlw	low(01h)
  4500  03AF  0240               	subwf	(_countspecial),w
  4501  03B0                     u3365:
  4502                           
  4503  03B0  1C03               	skipc
  4504  03B1  2BB3               	goto	u3361
  4505  03B2  2BB4               	goto	u3360
  4506  03B3                     u3361:
  4507  03B3  2B71               	goto	l137
  4508  03B4                     u3360:
  4509                           	
  4510  03B4                     l30001390:	
  4511                           	line	476
  4512                           ;ATM.c: 471: }
  4513                           ;ATM.c: 473: }
  4514                           ;ATM.c: 476: if(countspecial==1)
  4515  03B4  3001               	movlw	01h
  4516  03B5  1283               	bcf	status, 5	;RP0=0, select bank0
  4517  03B6  1303               	bcf	status, 6	;RP1=0, select bank0
  4518  03B7  0640               	xorwf	(_countspecial),w
  4519  03B8  0441               	iorwf	(_countspecial+1),w
  4520  03B9  1D03               	skipz
  4521  03BA  2BBC               	goto	u3371
  4522  03BB  2BBD               	goto	u3370
  4523  03BC                     u3371:
  4524  03BC  2F40               	goto	l30001480
  4525  03BD                     u3370:
  4526                           	
  4527  03BD                     l30001391:	
  4528                           	line	479
  4529                           ;ATM.c: 477: {
  4530                           ;ATM.c: 479: for(i=0;i<5;i++)
  4531  03BD  3000               	movlw	low(0)
  4532  03BE  00C2               	movwf	(_i)
  4533  03BF  3000               	movlw	high(0)
  4534  03C0  00C3               	movwf	((_i))+1
  4535                           	
  4536  03C1                     l30001393:	
  4537                           	line	481
  4538                           ;ATM.c: 480: {
  4539                           ;ATM.c: 481: _delay((unsigned long)((100)*(4000000/4000.0)));
  4540  03C1  3082               	movlw	130
  4541  03C2  00F8               movwf	(??_main+0+0+1),f
  4542  03C3  30DD               	movlw	221
  4543  03C4  00F7               movwf	(??_main+0+0),f
  4544  03C5                     u3847:
  4545  03C5  0BF7               	decfsz	(??_main+0+0),f
  4546  03C6  2BC5               	goto	u3847
  4547  03C7  0BF8               	decfsz	(??_main+0+0+1),f
  4548  03C8  2BC5               	goto	u3847
  4549  03C9  2BCA               	nop2
  4550                           
  4551                           	line	479
  4552  03CA  3001               	movlw	low(01h)
  4553  03CB  1283               	bcf	status, 5	;RP0=0, select bank0
  4554  03CC  1303               	bcf	status, 6	;RP1=0, select bank0
  4555  03CD  07C2               	addwf	(_i),f
  4556  03CE  1803               	skipnc
  4557  03CF  0AC3               	incf	(_i+1),f
  4558  03D0  3000               	movlw	high(01h)
  4559  03D1  07C3               	addwf	(_i+1),f
  4560  03D2  0843               	movf	(_i+1),w
  4561  03D3  3A80               	xorlw	80h
  4562  03D4  00F7               	movwf	(??_main+0+0)
  4563  03D5  3080               	movlw	(high(05h))^80h
  4564  03D6  0277               	subwf	(??_main+0+0),w
  4565  03D7  1D03               	skipz
  4566  03D8  2BDB               	goto	u3385
  4567  03D9  3005               	movlw	low(05h)
  4568  03DA  0242               	subwf	(_i),w
  4569  03DB                     u3385:
  4570                           
  4571  03DB  1C03               	skipc
  4572  03DC  2BDE               	goto	u3381
  4573  03DD  2BDF               	goto	u3380
  4574  03DE                     u3381:
  4575  03DE  2BC1               	goto	l30001393
  4576  03DF                     u3380:
  4577                           	
  4578  03DF                     l30001394:	
  4579                           	line	484
  4580                           ;ATM.c: 482: }
  4581                           ;ATM.c: 484: command(0X01);
  4582  03DF  3001               	movlw	(01h)
  4583  03E0  120A  118A  2051   	fcall	_command
              120A  118A         
  4584                           	
  4585  03E5                     l30001395:	
  4586                           	line	486
  4587                           ;ATM.c: 486: string("EXAMPLE:");
  4588  03E5  3027               	movlw	low((STR_12))
  4589  03E6  00F3               	movwf	(?_string)
  4590  03E7  3000               	movlw	high((STR_12))
  4591  03E8  00F4               	movwf	((?_string))+1
  4592  03E9  120A  118A  218A   	fcall	_string
              120A  118A         
  4593                           	
  4594  03EE                     l30001396:	
  4595                           	line	488
  4596                           ;ATM.c: 488: for(i=0;i<7;i++)
  4597  03EE  3000               	movlw	low(0)
  4598  03EF  1283               	bcf	status, 5	;RP0=0, select bank0
  4599  03F0  1303               	bcf	status, 6	;RP1=0, select bank0
  4600  03F1  00C2               	movwf	(_i)
  4601  03F2  3000               	movlw	high(0)
  4602  03F3  00C3               	movwf	((_i))+1
  4603                           	
  4604  03F4                     l30001399:	
  4605                           	line	490
  4606                           ;ATM.c: 489: {
  4607                           ;ATM.c: 490: _delay((unsigned long)((100)*(4000000/4000.0)));
  4608  03F4  3082               	movlw	130
  4609  03F5  00F8               movwf	(??_main+0+0+1),f
  4610  03F6  30DD               	movlw	221
  4611  03F7  00F7               movwf	(??_main+0+0),f
  4612  03F8                     u3857:
  4613  03F8  0BF7               	decfsz	(??_main+0+0),f
  4614  03F9  2BF8               	goto	u3857
  4615  03FA  0BF8               	decfsz	(??_main+0+0+1),f
  4616  03FB  2BF8               	goto	u3857
  4617  03FC  2BFD               	nop2
  4618                           
  4619                           	line	488
  4620  03FD  3001               	movlw	low(01h)
  4621  03FE  1283               	bcf	status, 5	;RP0=0, select bank0
  4622  03FF  1303               	bcf	status, 6	;RP1=0, select bank0
  4623  0400  07C2               	addwf	(_i),f
  4624  0401  1803               	skipnc
  4625  0402  0AC3               	incf	(_i+1),f
  4626  0403  3000               	movlw	high(01h)
  4627  0404  07C3               	addwf	(_i+1),f
  4628  0405  0843               	movf	(_i+1),w
  4629  0406  3A80               	xorlw	80h
  4630  0407  00F7               	movwf	(??_main+0+0)
  4631  0408  3080               	movlw	(high(07h))^80h
  4632  0409  0277               	subwf	(??_main+0+0),w
  4633  040A  1D03               	skipz
  4634  040B  2C0E               	goto	u3395
  4635  040C  3007               	movlw	low(07h)
  4636  040D  0242               	subwf	(_i),w
  4637  040E                     u3395:
  4638                           
  4639  040E  1C03               	skipc
  4640  040F  2C11               	goto	u3391
  4641  0410  2C12               	goto	u3390
  4642  0411                     u3391:
  4643  0411  2BF4               	goto	l30001399
  4644  0412                     u3390:
  4645                           	
  4646  0412                     l30001400:	
  4647                           	line	493
  4648                           ;ATM.c: 491: }
  4649                           ;ATM.c: 493: command(0X01);
  4650  0412  3001               	movlw	(01h)
  4651  0413  120A  118A  2051   	fcall	_command
              120A  118A         
  4652                           	
  4653  0418                     l30001401:	
  4654                           	line	496
  4655                           ;ATM.c: 496: string("TO WITHDRAW");
  4656  0418  305D               	movlw	low((STR_13))
  4657  0419  00F3               	movwf	(?_string)
  4658  041A  3000               	movlw	high((STR_13))
  4659  041B  00F4               	movwf	((?_string))+1
  4660  041C  120A  118A  218A   	fcall	_string
              120A  118A         
  4661                           	
  4662  0421                     l30001402:	
  4663                           	line	497
  4664                           ;ATM.c: 497: command(0XC0);
  4665  0421  30C0               	movlw	(0C0h)
  4666  0422  120A  118A  2051   	fcall	_command
              120A  118A         
  4667                           	line	498
  4668                           ;ATM.c: 498: string("55 RUPEES");
  4669  0427  3030               	movlw	low((STR_14))
  4670  0428  00F3               	movwf	(?_string)
  4671  0429  3000               	movlw	high((STR_14))
  4672  042A  00F4               	movwf	((?_string))+1
  4673  042B  120A  118A  218A   	fcall	_string
              120A  118A         
  4674                           	
  4675  0430                     l30001403:	
  4676                           	line	500
  4677                           ;ATM.c: 500: for(i=0;i<7;i++)
  4678  0430  3000               	movlw	low(0)
  4679  0431  1283               	bcf	status, 5	;RP0=0, select bank0
  4680  0432  1303               	bcf	status, 6	;RP1=0, select bank0
  4681  0433  00C2               	movwf	(_i)
  4682  0434  3000               	movlw	high(0)
  4683  0435  00C3               	movwf	((_i))+1
  4684                           	
  4685  0436                     l30001406:	
  4686                           	line	502
  4687                           ;ATM.c: 501: {
  4688                           ;ATM.c: 502: _delay((unsigned long)((100)*(4000000/4000.0)));
  4689  0436  3082               	movlw	130
  4690  0437  00F8               movwf	(??_main+0+0+1),f
  4691  0438  30DD               	movlw	221
  4692  0439  00F7               movwf	(??_main+0+0),f
  4693  043A                     u3867:
  4694  043A  0BF7               	decfsz	(??_main+0+0),f
  4695  043B  2C3A               	goto	u3867
  4696  043C  0BF8               	decfsz	(??_main+0+0+1),f
  4697  043D  2C3A               	goto	u3867
  4698  043E  2C3F               	nop2
  4699                           
  4700                           	line	500
  4701  043F  3001               	movlw	low(01h)
  4702  0440  1283               	bcf	status, 5	;RP0=0, select bank0
  4703  0441  1303               	bcf	status, 6	;RP1=0, select bank0
  4704  0442  07C2               	addwf	(_i),f
  4705  0443  1803               	skipnc
  4706  0444  0AC3               	incf	(_i+1),f
  4707  0445  3000               	movlw	high(01h)
  4708  0446  07C3               	addwf	(_i+1),f
  4709  0447  0843               	movf	(_i+1),w
  4710  0448  3A80               	xorlw	80h
  4711  0449  00F7               	movwf	(??_main+0+0)
  4712  044A  3080               	movlw	(high(07h))^80h
  4713  044B  0277               	subwf	(??_main+0+0),w
  4714  044C  1D03               	skipz
  4715  044D  2C50               	goto	u3405
  4716  044E  3007               	movlw	low(07h)
  4717  044F  0242               	subwf	(_i),w
  4718  0450                     u3405:
  4719                           
  4720  0450  1C03               	skipc
  4721  0451  2C53               	goto	u3401
  4722  0452  2C54               	goto	u3400
  4723  0453                     u3401:
  4724  0453  2C36               	goto	l30001406
  4725  0454                     u3400:
  4726                           	
  4727  0454                     l30001407:	
  4728                           	line	504
  4729                           ;ATM.c: 503: }
  4730                           ;ATM.c: 504: command(0X01);
  4731  0454  3001               	movlw	(01h)
  4732  0455  120A  118A  2051   	fcall	_command
              120A  118A         
  4733                           	
  4734  045A                     l30001408:	
  4735                           	line	506
  4736                           ;ATM.c: 506: string("ENTER 0055");
  4737  045A  303A               	movlw	low((STR_15))
  4738  045B  00F3               	movwf	(?_string)
  4739  045C  3000               	movlw	high((STR_15))
  4740  045D  00F4               	movwf	((?_string))+1
  4741  045E  120A  118A  218A   	fcall	_string
              120A  118A         
  4742                           	
  4743  0463                     l30001409:	
  4744                           	line	507
  4745                           ;ATM.c: 507: for(i=0;i<7;i++)
  4746  0463  3000               	movlw	low(0)
  4747  0464  1283               	bcf	status, 5	;RP0=0, select bank0
  4748  0465  1303               	bcf	status, 6	;RP1=0, select bank0
  4749  0466  00C2               	movwf	(_i)
  4750  0467  3000               	movlw	high(0)
  4751  0468  00C3               	movwf	((_i))+1
  4752                           	
  4753  0469                     l30001412:	
  4754                           	line	509
  4755                           ;ATM.c: 508: {
  4756                           ;ATM.c: 509: _delay((unsigned long)((100)*(4000000/4000.0)));
  4757  0469  3082               	movlw	130
  4758  046A  00F8               movwf	(??_main+0+0+1),f
  4759  046B  30DD               	movlw	221
  4760  046C  00F7               movwf	(??_main+0+0),f
  4761  046D                     u3877:
  4762  046D  0BF7               	decfsz	(??_main+0+0),f
  4763  046E  2C6D               	goto	u3877
  4764  046F  0BF8               	decfsz	(??_main+0+0+1),f
  4765  0470  2C6D               	goto	u3877
  4766  0471  2C72               	nop2
  4767                           
  4768                           	line	507
  4769  0472  3001               	movlw	low(01h)
  4770  0473  1283               	bcf	status, 5	;RP0=0, select bank0
  4771  0474  1303               	bcf	status, 6	;RP1=0, select bank0
  4772  0475  07C2               	addwf	(_i),f
  4773  0476  1803               	skipnc
  4774  0477  0AC3               	incf	(_i+1),f
  4775  0478  3000               	movlw	high(01h)
  4776  0479  07C3               	addwf	(_i+1),f
  4777  047A  0843               	movf	(_i+1),w
  4778  047B  3A80               	xorlw	80h
  4779  047C  00F7               	movwf	(??_main+0+0)
  4780  047D  3080               	movlw	(high(07h))^80h
  4781  047E  0277               	subwf	(??_main+0+0),w
  4782  047F  1D03               	skipz
  4783  0480  2C83               	goto	u3415
  4784  0481  3007               	movlw	low(07h)
  4785  0482  0242               	subwf	(_i),w
  4786  0483                     u3415:
  4787                           
  4788  0483  1C03               	skipc
  4789  0484  2C86               	goto	u3411
  4790  0485  2C87               	goto	u3410
  4791  0486                     u3411:
  4792  0486  2C69               	goto	l30001412
  4793  0487                     u3410:
  4794                           	
  4795  0487                     l30001413:	
  4796                           	line	511
  4797                           ;ATM.c: 510: }
  4798                           ;ATM.c: 511: command(0X01);
  4799  0487  3001               	movlw	(01h)
  4800  0488  120A  118A  2051   	fcall	_command
              120A  118A         
  4801                           	
  4802  048D                     l30001414:	
  4803                           	line	513
  4804                           ;ATM.c: 513: string("ENTER AMOUNT + #");
  4805  048D  30F7               	movlw	low((STR_16))
  4806  048E  00F3               	movwf	(?_string)
  4807  048F  3000               	movlw	high((STR_16))
  4808  0490  00F4               	movwf	((?_string))+1
  4809  0491  120A  118A  218A   	fcall	_string
              120A  118A         
  4810                           	
  4811  0496                     l30001415:	
  4812                           	line	514
  4813                           ;ATM.c: 514: command(0XC0);
  4814  0496  30C0               	movlw	(0C0h)
  4815  0497  120A  118A  2051   	fcall	_command
              120A  118A         
  4816                           	
  4817  049C                     l30001416:	
  4818                           	line	520
  4819                           ;ATM.c: 518: {
  4820                           ;ATM.c: 520: RB3=1,RB4=0,RB5=0,RB6=0;
  4821  049C  1283               	bcf	status, 5	;RP0=0, select bank0
  4822  049D  1303               	bcf	status, 6	;RP1=0, select bank0
  4823  049E  1586               	bsf	(51/8),(51)&7
  4824                           	
  4825  049F                     l30001417:	
  4826  049F  1206               	bcf	(52/8),(52)&7
  4827                           	
  4828  04A0                     l30001418:	
  4829  04A0  1286               	bcf	(53/8),(53)&7
  4830                           	
  4831  04A1                     l30001419:	
  4832  04A1  1306               	bcf	(54/8),(54)&7
  4833                           	
  4834  04A2                     l30001420:	
  4835                           	line	521
  4836                           ;ATM.c: 521: if(RB0==1)
  4837  04A2  1C06               	btfss	(48/8),(48)&7
  4838  04A3  2CA5               	goto	u3421
  4839  04A4  2CA6               	goto	u3420
  4840  04A5                     u3421:
  4841  04A5  2CCD               	goto	l164
  4842  04A6                     u3420:
  4843                           	
  4844  04A6                     l30001421:	
  4845                           	line	523
  4846                           ;ATM.c: 522: {
  4847                           ;ATM.c: 523: var=1;
  4848  04A6  3001               	movlw	low(01h)
  4849  04A7  00F9               	movwf	(_var)
  4850  04A8  3000               	movlw	high(01h)
  4851  04A9  00FA               	movwf	((_var))+1
  4852                           	line	524
  4853                           ;ATM.c: 524: count++;
  4854  04AA  3001               	movlw	low(01h)
  4855  04AB  07B4               	addwf	(_count),f
  4856  04AC  1803               	skipnc
  4857  04AD  0AB5               	incf	(_count+1),f
  4858  04AE  3000               	movlw	high(01h)
  4859  04AF  07B5               	addwf	(_count+1),f
  4860                           	line	525
  4861                           ;ATM.c: 525: countw++;
  4862  04B0  3001               	movlw	low(01h)
  4863  04B1  07E0               	addwf	(_countw),f
  4864  04B2  1803               	skipnc
  4865  04B3  0AE1               	incf	(_countw+1),f
  4866  04B4  3000               	movlw	high(01h)
  4867  04B5  07E1               	addwf	(_countw+1),f
  4868                           	
  4869  04B6                     l30001422:	
  4870                           	line	526
  4871                           ;ATM.c: 526: wdraw[countw]=var;
  4872  04B6  0860               	movf	(_countw),w
  4873  04B7  00F7               	movwf	(??_main+0+0)
  4874  04B8  0777               	addwf	(??_main+0+0),w
  4875  04B9  3E20               	addlw	(_wdraw)&0ffh
  4876  04BA  0084               	movwf	fsr0
  4877  04BB  3001               	movlw	low(01h)
  4878  04BC  1383               	bcf	status, 7	;select IRP bank0
  4879  04BD  0080               	movwf	indf
  4880  04BE  0A84               	incf	fsr0,f
  4881  04BF  3000               	movlw	high(01h)
  4882  04C0  0080               	movwf	indf
  4883                           	
  4884  04C1                     l30001423:	
  4885                           	line	527
  4886                           ;ATM.c: 527: data(var+48);
  4887  04C1  3031               	movlw	(031h)
  4888  04C2  120A  118A  2045   	fcall	_data
              120A  118A         
  4889                           	
  4890  04C7                     l165:	
  4891                           	line	528
  4892  04C7  1283               	bcf	status, 5	;RP0=0, select bank0
  4893  04C8  1303               	bcf	status, 6	;RP1=0, select bank0
  4894  04C9  1806               	btfsc	(48/8),(48)&7
  4895  04CA  2CCC               	goto	u3431
  4896  04CB  2CCD               	goto	u3430
  4897  04CC                     u3431:
  4898  04CC  2CC7               	goto	l165
  4899  04CD                     u3430:
  4900                           	
  4901  04CD                     l164:	
  4902                           	line	531
  4903                           ;ATM.c: 529: }
  4904                           ;ATM.c: 531: if(RB1==1)
  4905  04CD  1C86               	btfss	(49/8),(49)&7
  4906  04CE  2CD0               	goto	u3441
  4907  04CF  2CD1               	goto	u3440
  4908  04D0                     u3441:
  4909  04D0  2CF8               	goto	l168
  4910  04D1                     u3440:
  4911                           	
  4912  04D1                     l30001424:	
  4913                           	line	533
  4914                           ;ATM.c: 532: {
  4915                           ;ATM.c: 533: var=2;
  4916  04D1  3002               	movlw	low(02h)
  4917  04D2  00F9               	movwf	(_var)
  4918  04D3  3000               	movlw	high(02h)
  4919  04D4  00FA               	movwf	((_var))+1
  4920                           	line	534
  4921                           ;ATM.c: 534: count++;
  4922  04D5  3001               	movlw	low(01h)
  4923  04D6  07B4               	addwf	(_count),f
  4924  04D7  1803               	skipnc
  4925  04D8  0AB5               	incf	(_count+1),f
  4926  04D9  3000               	movlw	high(01h)
  4927  04DA  07B5               	addwf	(_count+1),f
  4928                           	line	535
  4929                           ;ATM.c: 535: countw++;
  4930  04DB  3001               	movlw	low(01h)
  4931  04DC  07E0               	addwf	(_countw),f
  4932  04DD  1803               	skipnc
  4933  04DE  0AE1               	incf	(_countw+1),f
  4934  04DF  3000               	movlw	high(01h)
  4935  04E0  07E1               	addwf	(_countw+1),f
  4936                           	
  4937  04E1                     l30001425:	
  4938                           	line	536
  4939                           ;ATM.c: 536: wdraw[countw]=var;
  4940  04E1  0860               	movf	(_countw),w
  4941  04E2  00F7               	movwf	(??_main+0+0)
  4942  04E3  0777               	addwf	(??_main+0+0),w
  4943  04E4  3E20               	addlw	(_wdraw)&0ffh
  4944  04E5  0084               	movwf	fsr0
  4945  04E6  3002               	movlw	low(02h)
  4946  04E7  1383               	bcf	status, 7	;select IRP bank0
  4947  04E8  0080               	movwf	indf
  4948  04E9  0A84               	incf	fsr0,f
  4949  04EA  3000               	movlw	high(02h)
  4950  04EB  0080               	movwf	indf
  4951                           	
  4952  04EC                     l30001426:	
  4953                           	line	537
  4954                           ;ATM.c: 537: data(var+48);
  4955  04EC  3032               	movlw	(032h)
  4956  04ED  120A  118A  2045   	fcall	_data
              120A  118A         
  4957                           	
  4958  04F2                     l169:	
  4959                           	line	538
  4960  04F2  1283               	bcf	status, 5	;RP0=0, select bank0
  4961  04F3  1303               	bcf	status, 6	;RP1=0, select bank0
  4962  04F4  1886               	btfsc	(49/8),(49)&7
  4963  04F5  2CF7               	goto	u3451
  4964  04F6  2CF8               	goto	u3450
  4965  04F7                     u3451:
  4966  04F7  2CF2               	goto	l169
  4967  04F8                     u3450:
  4968                           	
  4969  04F8                     l168:	
  4970                           	line	541
  4971                           ;ATM.c: 539: }
  4972                           ;ATM.c: 541: if(RB2==1)
  4973  04F8  1D06               	btfss	(50/8),(50)&7
  4974  04F9  2CFB               	goto	u3461
  4975  04FA  2CFC               	goto	u3460
  4976  04FB                     u3461:
  4977  04FB  2D23               	goto	l172
  4978  04FC                     u3460:
  4979                           	
  4980  04FC                     l30001427:	
  4981                           	line	543
  4982                           ;ATM.c: 542: {
  4983                           ;ATM.c: 543: var=3;
  4984  04FC  3003               	movlw	low(03h)
  4985  04FD  00F9               	movwf	(_var)
  4986  04FE  3000               	movlw	high(03h)
  4987  04FF  00FA               	movwf	((_var))+1
  4988                           	line	544
  4989                           ;ATM.c: 544: count++;
  4990  0500  3001               	movlw	low(01h)
  4991  0501  07B4               	addwf	(_count),f
  4992  0502  1803               	skipnc
  4993  0503  0AB5               	incf	(_count+1),f
  4994  0504  3000               	movlw	high(01h)
  4995  0505  07B5               	addwf	(_count+1),f
  4996                           	line	545
  4997                           ;ATM.c: 545: countw++;
  4998  0506  3001               	movlw	low(01h)
  4999  0507  07E0               	addwf	(_countw),f
  5000  0508  1803               	skipnc
  5001  0509  0AE1               	incf	(_countw+1),f
  5002  050A  3000               	movlw	high(01h)
  5003  050B  07E1               	addwf	(_countw+1),f
  5004                           	
  5005  050C                     l30001428:	
  5006                           	line	546
  5007                           ;ATM.c: 546: wdraw[countw]=var;
  5008  050C  0860               	movf	(_countw),w
  5009  050D  00F7               	movwf	(??_main+0+0)
  5010  050E  0777               	addwf	(??_main+0+0),w
  5011  050F  3E20               	addlw	(_wdraw)&0ffh
  5012  0510  0084               	movwf	fsr0
  5013  0511  3003               	movlw	low(03h)
  5014  0512  1383               	bcf	status, 7	;select IRP bank0
  5015  0513  0080               	movwf	indf
  5016  0514  0A84               	incf	fsr0,f
  5017  0515  3000               	movlw	high(03h)
  5018  0516  0080               	movwf	indf
  5019                           	
  5020  0517                     l30001429:	
  5021                           	line	547
  5022                           ;ATM.c: 547: data(var+48);
  5023  0517  3033               	movlw	(033h)
  5024  0518  120A  118A  2045   	fcall	_data
              120A  118A         
  5025                           	
  5026  051D                     l173:	
  5027                           	line	548
  5028  051D  1283               	bcf	status, 5	;RP0=0, select bank0
  5029  051E  1303               	bcf	status, 6	;RP1=0, select bank0
  5030  051F  1906               	btfsc	(50/8),(50)&7
  5031  0520  2D22               	goto	u3471
  5032  0521  2D23               	goto	u3470
  5033  0522                     u3471:
  5034  0522  2D1D               	goto	l173
  5035  0523                     u3470:
  5036                           	
  5037  0523                     l172:	
  5038                           	line	553
  5039                           ;ATM.c: 549: }
  5040                           ;ATM.c: 553: RB3=0,RB4=1,RB5=0,RB6=0;
  5041  0523  1186               	bcf	(51/8),(51)&7
  5042  0524  1606               	bsf	(52/8),(52)&7
  5043  0525  1286               	bcf	(53/8),(53)&7
  5044  0526  1306               	bcf	(54/8),(54)&7
  5045                           	line	554
  5046                           ;ATM.c: 554: if(RB0==1)
  5047  0527  1C06               	btfss	(48/8),(48)&7
  5048  0528  2D2A               	goto	u3481
  5049  0529  2D2B               	goto	u3480
  5050  052A                     u3481:
  5051  052A  2D52               	goto	l176
  5052  052B                     u3480:
  5053                           	
  5054  052B                     l30001430:	
  5055                           	line	556
  5056                           ;ATM.c: 555: {
  5057                           ;ATM.c: 556: var=4;
  5058  052B  3004               	movlw	low(04h)
  5059  052C  00F9               	movwf	(_var)
  5060  052D  3000               	movlw	high(04h)
  5061  052E  00FA               	movwf	((_var))+1
  5062                           	line	557
  5063                           ;ATM.c: 557: count++;
  5064  052F  3001               	movlw	low(01h)
  5065  0530  07B4               	addwf	(_count),f
  5066  0531  1803               	skipnc
  5067  0532  0AB5               	incf	(_count+1),f
  5068  0533  3000               	movlw	high(01h)
  5069  0534  07B5               	addwf	(_count+1),f
  5070                           	line	558
  5071                           ;ATM.c: 558: countw++;
  5072  0535  3001               	movlw	low(01h)
  5073  0536  07E0               	addwf	(_countw),f
  5074  0537  1803               	skipnc
  5075  0538  0AE1               	incf	(_countw+1),f
  5076  0539  3000               	movlw	high(01h)
  5077  053A  07E1               	addwf	(_countw+1),f
  5078                           	
  5079  053B                     l30001431:	
  5080                           	line	559
  5081                           ;ATM.c: 559: wdraw[countw]=var;
  5082  053B  0860               	movf	(_countw),w
  5083  053C  00F7               	movwf	(??_main+0+0)
  5084  053D  0777               	addwf	(??_main+0+0),w
  5085  053E  3E20               	addlw	(_wdraw)&0ffh
  5086  053F  0084               	movwf	fsr0
  5087  0540  3004               	movlw	low(04h)
  5088  0541  1383               	bcf	status, 7	;select IRP bank0
  5089  0542  0080               	movwf	indf
  5090  0543  0A84               	incf	fsr0,f
  5091  0544  3000               	movlw	high(04h)
  5092  0545  0080               	movwf	indf
  5093                           	
  5094  0546                     l30001432:	
  5095                           	line	560
  5096                           ;ATM.c: 560: data(var+48);
  5097  0546  3034               	movlw	(034h)
  5098  0547  120A  118A  2045   	fcall	_data
              120A  118A         
  5099                           	
  5100  054C                     l177:	
  5101                           	line	561
  5102  054C  1283               	bcf	status, 5	;RP0=0, select bank0
  5103  054D  1303               	bcf	status, 6	;RP1=0, select bank0
  5104  054E  1806               	btfsc	(48/8),(48)&7
  5105  054F  2D51               	goto	u3491
  5106  0550  2D52               	goto	u3490
  5107  0551                     u3491:
  5108  0551  2D4C               	goto	l177
  5109  0552                     u3490:
  5110                           	
  5111  0552                     l176:	
  5112                           	line	564
  5113                           ;ATM.c: 562: }
  5114                           ;ATM.c: 564: if(RB1==1)
  5115  0552  1C86               	btfss	(49/8),(49)&7
  5116  0553  2D55               	goto	u3501
  5117  0554  2D56               	goto	u3500
  5118  0555                     u3501:
  5119  0555  2D7D               	goto	l180
  5120  0556                     u3500:
  5121                           	
  5122  0556                     l30001433:	
  5123                           	line	566
  5124                           ;ATM.c: 565: {
  5125                           ;ATM.c: 566: var=5;
  5126  0556  3005               	movlw	low(05h)
  5127  0557  00F9               	movwf	(_var)
  5128  0558  3000               	movlw	high(05h)
  5129  0559  00FA               	movwf	((_var))+1
  5130                           	line	567
  5131                           ;ATM.c: 567: count++;
  5132  055A  3001               	movlw	low(01h)
  5133  055B  07B4               	addwf	(_count),f
  5134  055C  1803               	skipnc
  5135  055D  0AB5               	incf	(_count+1),f
  5136  055E  3000               	movlw	high(01h)
  5137  055F  07B5               	addwf	(_count+1),f
  5138                           	line	568
  5139                           ;ATM.c: 568: countw++;
  5140  0560  3001               	movlw	low(01h)
  5141  0561  07E0               	addwf	(_countw),f
  5142  0562  1803               	skipnc
  5143+ 0563  0AE1               	incf	(_countw+1),f
  5144+ 0564  3000               	movlw	high(01h)
  5145+ 0565  07E1               	addwf	(_countw+1),f
  5146+                          	
  5147+ 0566                     l30001434:	
  5148+                          	line	569
  5149+                          ;ATM.c: 569: wdraw[countw]=var;
  5150+ 0566  0860               	movf	(_countw),w
  5151+ 0567  00F7               	movwf	(??_main+0+0)
  5152+ 0568  0777               	addwf	(??_main+0+0),w
  5153+ 0569  3E20               	addlw	(_wdraw)&0ffh
  5154+ 056A  0084               	movwf	fsr0
  5155+ 056B  3005               	movlw	low(05h)
  5156+ 056C  1383               	bcf	status, 7	;select IRP bank0
  5157+ 056D  0080               	movwf	indf
  5158+ 056E  0A84               	incf	fsr0,f
  5159+ 056F  3000               	movlw	high(05h)
  5160+ 0570  0080               	movwf	indf
  5161+                          	
  5162+ 0571                     l30001435:	
  5163+                          	line	570
  5164+                          ;ATM.c: 570: data(var+48);
  5165+ 0571  3035               	movlw	(035h)
  5166+ 0572  120A  118A  2045   	fcall	_data
      +       120A  118A         
  5167+                          	
  5168+ 0577                     l181:	
  5169+                          	line	571
  5170+ 0577  1283               	bcf	status, 5	;RP0=0, select bank0
  5171+ 0578  1303               	bcf	status, 6	;RP1=0, select bank0
  5172+ 0579  1886               	btfsc	(49/8),(49)&7
  5173+ 057A  2D7C               	goto	u3511
  5174+ 057B  2D7D               	goto	u3510
  5175+ 057C                     u3511:
  5176+ 057C  2D77               	goto	l181
  5177+ 057D                     u3510:
  5178+                          	
  5179+ 057D                     l180:	
  5180+                          	line	574
  5181+                          ;ATM.c: 572: }
  5182+                          ;ATM.c: 574: if(RB2==1)
  5183+ 057D  1D06               	btfss	(50/8),(50)&7
  5184+ 057E  2D80               	goto	u3521
  5185+ 057F  2D81               	goto	u3520
  5186+ 0580                     u3521:
  5187+ 0580  2DA8               	goto	l184
  5188+ 0581                     u3520:
  5189+                          	
  5190+ 0581                     l30001436:	
  5191+                          	line	576
  5192+                          ;ATM.c: 575: {
  5193+                          ;ATM.c: 576: var=6;
  5194+ 0581  3006               	movlw	low(06h)
  5195+ 0582  00F9               	movwf	(_var)
  5196+ 0583  3000               	movlw	high(06h)
  5197+ 0584  00FA               	movwf	((_var))+1
  5198+                          	line	577
  5199+                          ;ATM.c: 577: count++;
  5200+ 0585  3001               	movlw	low(01h)
  5201+ 0586  07B4               	addwf	(_count),f
  5202+ 0587  1803               	skipnc
  5203+ 0588  0AB5               	incf	(_count+1),f
  5204+ 0589  3000               	movlw	high(01h)
  5205+ 058A  07B5               	addwf	(_count+1),f
  5206+                          	line	578
  5207+                          ;ATM.c: 578: countw++;
  5208+ 058B  3001               	movlw	low(01h)
  5209+ 058C  07E0               	addwf	(_countw),f
  5210+ 058D  1803               	skipnc
  5211+ 058E  0AE1               	incf	(_countw+1),f
  5212+ 058F  3000               	movlw	high(01h)
  5213+ 0590  07E1               	addwf	(_countw+1),f
  5214+                          	
  5215+ 0591                     l30001437:	
  5216+                          	line	579
  5217+                          ;ATM.c: 579: wdraw[countw]=var;
  5218+ 0591  0860               	movf	(_countw),w
  5219+ 0592  00F7               	movwf	(??_main+0+0)
  5220+ 0593  0777               	addwf	(??_main+0+0),w
  5221+ 0594  3E20               	addlw	(_wdraw)&0ffh
  5222+ 0595  0084               	movwf	fsr0
  5223+ 0596  3006               	movlw	low(06h)
  5224+ 0597  1383               	bcf	status, 7	;select IRP bank0
  5225+ 0598  0080               	movwf	indf
  5226+ 0599  0A84               	incf	fsr0,f
  5227+ 059A  3000               	movlw	high(06h)
  5228+ 059B  0080               	movwf	indf
  5229+                          	
  5230+ 059C                     l30001438:	
  5231+                          	line	580
  5232+                          ;ATM.c: 580: data(var+48);
  5233+ 059C  3036               	movlw	(036h)
  5234+ 059D  120A  118A  2045   	fcall	_data
      +       120A  118A         
  5235+                          	
  5236+ 05A2                     l185:	
  5237+                          	line	581
  5238+ 05A2  1283               	bcf	status, 5	;RP0=0, select bank0
  5239+ 05A3  1303               	bcf	status, 6	;RP1=0, select bank0
  5240+ 05A4  1906               	btfsc	(50/8),(50)&7
  5241+ 05A5  2DA7               	goto	u3531
  5242+ 05A6  2DA8               	goto	u3530
  5243+ 05A7                     u3531:
  5244+ 05A7  2DA2               	goto	l185
  5245+ 05A8                     u3530:
  5246+                          	
  5247+ 05A8                     l184:	
  5248+                          	line	586
  5249+                          ;ATM.c: 582: }
  5250+                          ;ATM.c: 586: RB3=0,RB4=0,RB5=1,RB6=0;
  5251+ 05A8  1186               	bcf	(51/8),(51)&7
  5252+ 05A9  1206               	bcf	(52/8),(52)&7
  5253+ 05AA  1686               	bsf	(53/8),(53)&7
  5254+ 05AB  1306               	bcf	(54/8),(54)&7
  5255+                          	line	587
  5256+                          ;ATM.c: 587: if(RB0==1)
  5257+ 05AC  1C06               	btfss	(48/8),(48)&7
  5258+ 05AD  2DAF               	goto	u3541
  5259+ 05AE  2DB0               	goto	u3540
  5260+ 05AF                     u3541:
  5261+ 05AF  2DD7               	goto	l188
  5262+ 05B0                     u3540:
  5263+                          	
  5264+ 05B0                     l30001439:	
  5265+                          	line	589
  5266+                          ;ATM.c: 588: {
  5267+                          ;ATM.c: 589: var=7;
  5268+ 05B0  3007               	movlw	low(07h)
  5269+ 05B1  00F9               	movwf	(_var)
  5270+ 05B2  3000               	movlw	high(07h)
  5271+ 05B3  00FA               	movwf	((_var))+1
  5272+                          	line	590
  5273+                          ;ATM.c: 590: count++;
  5274+ 05B4  3001               	movlw	low(01h)
  5275+ 05B5  07B4               	addwf	(_count),f
  5276+ 05B6  1803               	skipnc
  5277+ 05B7  0AB5               	incf	(_count+1),f
  5278+ 05B8  3000               	movlw	high(01h)
  5279+ 05B9  07B5               	addwf	(_count+1),f
  5280+                          	line	591
  5281+                          ;ATM.c: 591: countw++;
  5282+ 05BA  3001               	movlw	low(01h)
  5283+ 05BB  07E0               	addwf	(_countw),f
  5284+ 05BC  1803               	skipnc
  5285+ 05BD  0AE1               	incf	(_countw+1),f
  5286+ 05BE  3000               	movlw	high(01h)
  5287+ 05BF  07E1               	addwf	(_countw+1),f
  5288+                          	
  5289+ 05C0                     l30001440:	
  5290+                          	line	592
  5291+                          ;ATM.c: 592: wdraw[countw]=var;
  5292+ 05C0  0860               	movf	(_countw),w
  5293+ 05C1  00F7               	movwf	(??_main+0+0)
  5294+ 05C2  0777               	addwf	(??_main+0+0),w
  5295+ 05C3  3E20               	addlw	(_wdraw)&0ffh
  5296+ 05C4  0084               	movwf	fsr0
  5297+ 05C5  3007               	movlw	low(07h)
  5298+ 05C6  1383               	bcf	status, 7	;select IRP bank0
  5299+ 05C7  0080               	movwf	indf
  5300+ 05C8  0A84               	incf	fsr0,f
  5301+ 05C9  3000               	movlw	high(07h)
  5302+ 05CA  0080               	movwf	indf
  5303+                          	
  5304+ 05CB                     l30001441:	
  5305+                          	line	593
  5306+                          ;ATM.c: 593: data(var+48);
  5307+ 05CB  3037               	movlw	(037h)
  5308+ 05CC  120A  118A  2045   	fcall	_data
      +       120A  118A         
  5309+                          	
  5310+ 05D1                     l189:	
  5311+                          	line	594
  5312+ 05D1  1283               	bcf	status, 5	;RP0=0, select bank0
  5313+ 05D2  1303               	bcf	status, 6	;RP1=0, select bank0
  5314+ 05D3  1806               	btfsc	(48/8),(48)&7
  5315+ 05D4  2DD6               	goto	u3551
  5316+ 05D5  2DD7               	goto	u3550
  5317+ 05D6                     u3551:
  5318+ 05D6  2DD1               	goto	l189
  5319+ 05D7                     u3550:
  5320+                          	
  5321+ 05D7                     l188:	
  5322+                          	line	597
  5323+                          ;ATM.c: 595: }
  5324+                          ;ATM.c: 597: if(RB1==1)
  5325+ 05D7  1C86               	btfss	(49/8),(49)&7
  5326+ 05D8  2DDA               	goto	u3561
  5327+ 05D9  2DDB               	goto	u3560
  5328+ 05DA                     u3561:
  5329+ 05DA  2E02               	goto	l192
  5330+ 05DB                     u3560:
  5331+                          	
  5332+ 05DB                     l30001442:	
  5333+                          	line	599
  5334+                          ;ATM.c: 598: {
  5335+                          ;ATM.c: 599: var=8;
  5336+ 05DB  3008               	movlw	low(08h)
  5337+ 05DC  00F9               	movwf	(_var)
  5338+ 05DD  3000               	movlw	high(08h)
  5339+ 05DE  00FA               	movwf	((_var))+1
  5340+                          	line	600
  5341+                          ;ATM.c: 600: count++;
  5342+ 05DF  3001               	movlw	low(01h)
  5343+ 05E0  07B4               	addwf	(_count),f
  5344+ 05E1  1803               	skipnc
  5345+ 05E2  0AB5               	incf	(_count+1),f
  5346+ 05E3  3000               	movlw	high(01h)
  5347+ 05E4  07B5               	addwf	(_count+1),f
  5348+                          	line	601
  5349+                          ;ATM.c: 601: countw++;
  5350+ 05E5  3001               	movlw	low(01h)
  5351+ 05E6  07E0               	addwf	(_countw),f
  5352+ 05E7  1803               	skipnc
  5353+ 05E8  0AE1               	incf	(_countw+1),f
  5354+ 05E9  3000               	movlw	high(01h)
  5355+ 05EA  07E1               	addwf	(_countw+1),f
  5356+                          	
  5357+ 05EB                     l30001443:	
  5358+                          	line	602
  5359+                          ;ATM.c: 602: wdraw[countw]=var;
  5360+ 05EB  0860               	movf	(_countw),w
  5361+ 05EC  00F7               	movwf	(??_main+0+0)
  5362+ 05ED  0777               	addwf	(??_main+0+0),w
  5363+ 05EE  3E20               	addlw	(_wdraw)&0ffh
  5364+ 05EF  0084               	movwf	fsr0
  5365+ 05F0  3008               	movlw	low(08h)
  5366+ 05F1  1383               	bcf	status, 7	;select IRP bank0
  5367+ 05F2  0080               	movwf	indf
  5368+ 05F3  0A84               	incf	fsr0,f
  5369+ 05F4  3000               	movlw	high(08h)
  5370+ 05F5  0080               	movwf	indf
  5371+                          	
  5372+ 05F6                     l30001444:	
  5373+                          	line	603
  5374+                          ;ATM.c: 603: data(var+48);
  5375+ 05F6  3038               	movlw	(038h)
  5376+ 05F7  120A  118A  2045   	fcall	_data
      +       120A  118A         
  5377+                          	
  5378+ 05FC                     l193:	
  5379+                          	line	604
  5380+ 05FC  1283               	bcf	status, 5	;RP0=0, select bank0
  5381+ 05FD  1303               	bcf	status, 6	;RP1=0, select bank0
  5382+ 05FE  1886               	btfsc	(49/8),(49)&7
  5383+ 05FF  2E01               	goto	u3571
  5384+ 0600  2E02               	goto	u3570
  5385+ 0601                     u3571:
  5386+ 0601  2DFC               	goto	l193
  5387+ 0602                     u3570:
  5388+                          	
  5389+ 0602                     l192:	
  5390+                          	line	607
  5391+                          ;ATM.c: 605: }
  5392+                          ;ATM.c: 607: if(RB2==1)
  5393+ 0602  1D06               	btfss	(50/8),(50)&7
  5394+ 0603  2E05               	goto	u3581
  5395+ 0604  2E06               	goto	u3580
  5396+ 0605                     u3581:
  5397+ 0605  2E2D               	goto	l196
  5398+ 0606                     u3580:
  5399+                          	
  5400+ 0606                     l30001445:	
  5401+                          	line	609
  5402+                          ;ATM.c: 608: {
  5403+                          ;ATM.c: 609: var=9;
  5404+ 0606  3009               	movlw	low(09h)
  5405+ 0607  00F9               	movwf	(_var)
  5406+ 0608  3000               	movlw	high(09h)
  5407+ 0609  00FA               	movwf	((_var))+1
  5408+                          	line	610
  5409+                          ;ATM.c: 610: count++;
  5410+ 060A  3001               	movlw	low(01h)
  5411+ 060B  07B4               	addwf	(_count),f
  5412+ 060C  1803               	skipnc
  5413+ 060D  0AB5               	incf	(_count+1),f
  5414+ 060E  3000               	movlw	high(01h)
  5415+ 060F  07B5               	addwf	(_count+1),f
  5416+                          	line	611
  5417+                          ;ATM.c: 611: countw++;
  5418+ 0610  3001               	movlw	low(01h)
  5419+ 0611  07E0               	addwf	(_countw),f
  5420+ 0612  1803               	skipnc
  5421+ 0613  0AE1               	incf	(_countw+1),f
  5422+ 0614  3000               	movlw	high(01h)
  5423+ 0615  07E1               	addwf	(_countw+1),f
  5424+                          	
  5425+ 0616                     l30001446:	
  5426+                          	line	612
  5427+                          ;ATM.c: 612: wdraw[countw]=var;
  5428+ 0616  0860               	movf	(_countw),w
  5429+ 0617  00F7               	movwf	(??_main+0+0)
  5430+ 0618  0777               	addwf	(??_main+0+0),w
  5431+ 0619  3E20               	addlw	(_wdraw)&0ffh
  5432+ 061A  0084               	movwf	fsr0
  5433+ 061B  3009               	movlw	low(09h)
  5434+ 061C  1383               	bcf	status, 7	;select IRP bank0
  5435+ 061D  0080               	movwf	indf
  5436+ 061E  0A84               	incf	fsr0,f
  5437+ 061F  3000               	movlw	high(09h)
  5438+ 0620  0080               	movwf	indf
  5439+                          	
  5440+ 0621                     l30001447:	
  5441+                          	line	613
  5442+                          ;ATM.c: 613: data(var+48);
  5443+ 0621  3039               	movlw	(039h)
  5444+ 0622  120A  118A  2045   	fcall	_data
      +       120A  118A         
  5445+                          	
  5446+ 0627                     l197:	
  5447+                          	line	614
  5448+ 0627  1283               	bcf	status, 5	;RP0=0, select bank0
  5449+ 0628  1303               	bcf	status, 6	;RP1=0, select bank0
  5450+ 0629  1906               	btfsc	(50/8),(50)&7
  5451+ 062A  2E2C               	goto	u3591
  5452+ 062B  2E2D               	goto	u3590
  5453+ 062C                     u3591:
  5454+ 062C  2E27               	goto	l197
  5455+ 062D                     u3590:
  5456+                          	
  5457+ 062D                     l196:	
  5458+                          	line	619
  5459+                          ;ATM.c: 615: }
  5460+                          ;ATM.c: 619: RB3=0,RB4=0,RB5=0,RB6=1;
  5461+ 062D  1186               	bcf	(51/8),(51)&7
  5462+ 062E  1206               	bcf	(52/8),(52)&7
  5463+ 062F  1286               	bcf	(53/8),(53)&7
  5464+ 0630  1706               	bsf	(54/8),(54)&7
  5465+                          	line	620
  5466+                          ;ATM.c: 620: if(RB1==1)
  5467+ 0631  1C86               	btfss	(49/8),(49)&7
  5468+ 0632  2E34               	goto	u3601
  5469+ 0633  2E35               	goto	u3600
  5470+ 0634                     u3601:
  5471+ 0634  2E5C               	goto	l200
  5472+ 0635                     u3600:
  5473+                          	
  5474+ 0635                     l30001448:	
  5475+                          	line	622
  5476+                          ;ATM.c: 621: {
  5477+                          ;ATM.c: 622: var=0;
  5478+ 0635  3000               	movlw	low(0)
  5479+ 0636  00F9               	movwf	(_var)
  5480+ 0637  3000               	movlw	high(0)
  5481+ 0638  00FA               	movwf	((_var))+1
  5482+                          	line	623
  5483+                          ;ATM.c: 623: count++;
  5484+ 0639  3001               	movlw	low(01h)
  5485+ 063A  07B4               	addwf	(_count),f
  5486+ 063B  1803               	skipnc
  5487+ 063C  0AB5               	incf	(_count+1),f
  5488+ 063D  3000               	movlw	high(01h)
  5489+ 063E  07B5               	addwf	(_count+1),f
  5490+                          	line	624
  5491+                          ;ATM.c: 624: countw++;
  5492+ 063F  3001               	movlw	low(01h)
  5493+ 0640  07E0               	addwf	(_countw),f
  5494+ 0641  1803               	skipnc
  5495+ 0642  0AE1               	incf	(_countw+1),f
  5496+ 0643  3000               	movlw	high(01h)
  5497+ 0644  07E1               	addwf	(_countw+1),f
  5498+                          	
  5499+ 0645                     l30001449:	
  5500+                          	line	625
  5501+                          ;ATM.c: 625: wdraw[countw]=var;
  5502+ 0645  0860               	movf	(_countw),w
  5503+ 0646  00F7               	movwf	(??_main+0+0)
  5504+ 0647  0777               	addwf	(??_main+0+0),w
  5505+ 0648  3E20               	addlw	(_wdraw)&0ffh
  5506+ 0649  0084               	movwf	fsr0
  5507+ 064A  3000               	movlw	low(0)
  5508+ 064B  1383               	bcf	status, 7	;select IRP bank0
  5509+ 064C  0080               	movwf	indf
  5510+ 064D  0A84               	incf	fsr0,f
  5511+ 064E  3000               	movlw	high(0)
  5512+ 064F  0080               	movwf	indf
  5513+                          	
  5514+ 0650                     l30001450:	
  5515+                          	line	626
  5516+                          ;ATM.c: 626: data(var+48);
  5517+ 0650  3030               	movlw	(030h)
  5518+ 0651  120A  118A  2045   	fcall	_data
      +       120A  118A         
  5519+                          	
  5520+ 0656                     l201:	
  5521+                          	line	627
  5522+ 0656  1283               	bcf	status, 5	;RP0=0, select bank0
  5523+ 0657  1303               	bcf	status, 6	;RP1=0, select bank0
  5524+ 0658  1886               	btfsc	(49/8),(49)&7
  5525+ 0659  2E5B               	goto	u3611
  5526+ 065A  2E5C               	goto	u3610
  5527+ 065B                     u3611:
  5528+ 065B  2E56               	goto	l201
  5529+ 065C                     u3610:
  5530+                          	
  5531+ 065C                     l200:	
  5532+                          	line	630
  5533+                          ;ATM.c: 628: }
  5534+                          ;ATM.c: 630: if(RB2==1)
  5535+ 065C  1D06               	btfss	(50/8),(50)&7
  5536+ 065D  2E5F               	goto	u3621
  5537+ 065E  2E60               	goto	u3620
  5538+ 065F                     u3621:
  5539+ 065F  2C9C               	goto	l30001416
  5540+ 0660                     u3620:
  5541+ 0660  2E66               	goto	l30001453
  5542+                          	
  5543+ 0661                     l205:	
  5544+                          	line	633
  5545+ 0661  1886               	btfsc	(49/8),(49)&7
  5546+ 0662  2E64               	goto	u3631
  5547+ 0663  2E65               	goto	u3630
  5548+ 0664                     u3631:
  5549+ 0664  2E61               	goto	l205
  5550+ 0665                     u3630:
  5551+ 0665  2C9C               	goto	l30001416
  5552+                          	
  5553+ 0666                     l30001453:	
  5554+                          	line	637
  5555+                          ;ATM.c: 634: }
  5556+                          ;ATM.c: 635: }
  5557+                          ;ATM.c: 637: command(0X01);
  5558+ 0666  3001               	movlw	(01h)
  5559+ 0667  120A  118A  2051   	fcall	_command
      +       120A  118A         
  5560+                          	
  5561+ 066C                     l30001454:	
  5562+                          	line	639
  5563+                          ;ATM.c: 639: for(i=0;i<4;i++)
  5564+ 066C  3000               	movlw	low(0)
  5565+ 066D  1283               	bcf	status, 5	;RP0=0, select bank0
  5566+ 066E  1303               	bcf	status, 6	;RP1=0, select bank0
  5567+ 066F  00C2               	movwf	(_i)
  5568+ 0670  3000               	movlw	high(0)
  5569+ 0671  00C3               	movwf	((_i))+1
  5570+                          	
  5571+ 0672                     l30001457:	
  5572+                          	line	641
  5573+                          ;ATM.c: 640: {
  5574+                          ;ATM.c: 641: var=wdraw[i];
  5575+ 0672  1283               	bcf	status, 5	;RP0=0, select bank0
  5576+ 0673  1303               	bcf	status, 6	;RP1=0, select bank0
  5577+ 0674  0842               	movf	(_i),w
  5578+ 0675  00F7               	movwf	(??_main+0+0)
  5579+ 0676  0777               	addwf	(??_main+0+0),w
  5580+ 0677  3E20               	addlw	(_wdraw)&0ffh
  5581+ 0678  0084               	movwf	fsr0
  5582+ 0679  1383               	bcf	status, 7	;select IRP bank0
  5583+ 067A  0800               	movf	indf,w
  5584+ 067B  00F9               	movwf	(_var)
  5585+ 067C  0A84               	incf	fsr0,f
  5586+ 067D  0800               	movf	indf,w
  5587+ 067E  00FA               	movwf	(_var+1)
  5588+                          	
  5589+ 067F                     l30001458:	
  5590+                          	line	642
  5591+                          ;ATM.c: 642: data(var+48);
  5592+ 067F  0879               	movf	(_var),w
  5593+ 0680  3E30               	addlw	030h
  5594+ 0681  120A  118A  2045   	fcall	_data
      +       120A  118A         
  5595+                          	
  5596+ 0686                     l30001459:	
  5597+                          	line	643
  5598+                          ;ATM.c: 643: _delay((unsigned long)((100)*(4000000/4000.0)));
  5599+ 0686  3082               	movlw	130
  5600+ 0687  00F8               movwf	(??_main+0+0+1),f
  5601+ 0688  30DD               	movlw	221
  5602+ 0689  00F7               movwf	(??_main+0+0),f
  5603+ 068A                     u3887:
  5604+ 068A  0BF7               	decfsz	(??_main+0+0),f
  5605+ 068B  2E8A               	goto	u3887
  5606+ 068C  0BF8               	decfsz	(??_main+0+0+1),f
  5607+ 068D  2E8A               	goto	u3887
  5608+ 068E  2E8F               	nop2
  5609+                          
  5610+                          	
  5611+ 068F                     l30001460:	
  5612+                          	line	639
  5613+ 068F  3001               	movlw	low(01h)
  5614+ 0690  1283               	bcf	status, 5	;RP0=0, select bank0
  5615+ 0691  1303               	bcf	status, 6	;RP1=0, select bank0
  5616+ 0692  07C2               	addwf	(_i),f
  5617+ 0693  1803               	skipnc
  5618+ 0694  0AC3               	incf	(_i+1),f
  5619+ 0695  3000               	movlw	high(01h)
  5620+ 0696  07C3               	addwf	(_i+1),f
  5621+                          	
  5622+ 0697                     l30001461:	
  5623+ 0697  0843               	movf	(_i+1),w
  5624+ 0698  3A80               	xorlw	80h
  5625+ 0699  00F7               	movwf	(??_main+0+0)
  5626+ 069A  3080               	movlw	(high(04h))^80h
  5627+ 069B  0277               	subwf	(??_main+0+0),w
  5628+ 069C  1D03               	skipz
  5629+ 069D  2EA0               	goto	u3645
  5630+ 069E  3004               	movlw	low(04h)
  5631+ 069F  0242               	subwf	(_i),w
  5632+ 06A0                     u3645:
  5633+                          
  5634+ 06A0  1C03               	skipc
  5635+ 06A1  2EA3               	goto	u3641
  5636+ 06A2  2EA4               	goto	u3640
  5637+ 06A3                     u3641:
  5638+ 06A3  2E72               	goto	l30001457
  5639+ 06A4                     u3640:
  5640+                          	
  5641+ 06A4                     l30001462:	
  5642+                          	line	647
  5643+                          ;ATM.c: 644: }
  5644+                          ;ATM.c: 647: command(0X01);
  5645+ 06A4  3001               	movlw	(01h)
  5646+ 06A5  120A  118A  2051   	fcall	_command
      +       120A  118A         
  5647+                          	
  5648+ 06AA                     l30001463:	
  5649+                          	line	649
  5650+                          ;ATM.c: 649: for(i=0;i<5;i++)
  5651+ 06AA  3000               	movlw	low(0)
  5652+ 06AB  1283               	bcf	status, 5	;RP0=0, select bank0
  5653+ 06AC  1303               	bcf	status, 6	;RP1=0, select bank0
  5654+ 06AD  00C2               	movwf	(_i)
  5655+ 06AE  3000               	movlw	high(0)
  5656+ 06AF  00C3               	movwf	((_i))+1
  5657+                          	
  5658+ 06B0                     l30001466:	
  5659+                          	line	651
  5660+                          ;ATM.c: 650: {
  5661+                          ;ATM.c: 651: _delay((unsigned long)((100)*(4000000/4000.0)));
  5662+ 06B0  3082               	movlw	130
  5663+ 06B1  00F8               movwf	(??_main+0+0+1),f
  5664+ 06B2  30DD               	movlw	221
  5665+ 06B3  00F7               movwf	(??_main+0+0),f
  5666+ 06B4                     u3897:
  5667+ 06B4  0BF7               	decfsz	(??_main+0+0),f
  5668+ 06B5  2EB4               	goto	u3897
  5669+ 06B6  0BF8               	decfsz	(??_main+0+0+1),f
  5670+ 06B7  2EB4               	goto	u3897
  5671+ 06B8  2EB9               	nop2
  5672+                          
  5673+                          	line	649
  5674+ 06B9  3001               	movlw	low(01h)
  5675+ 06BA  1283               	bcf	status, 5	;RP0=0, select bank0
  5676+ 06BB  1303               	bcf	status, 6	;RP1=0, select bank0
  5677+ 06BC  07C2               	addwf	(_i),f
  5678+ 06BD  1803               	skipnc
  5679+ 06BE  0AC3               	incf	(_i+1),f
  5680+ 06BF  3000               	movlw	high(01h)
  5681+ 06C0  07C3               	addwf	(_i+1),f
  5682+ 06C1  0843               	movf	(_i+1),w
  5683+ 06C2  3A80               	xorlw	80h
  5684+ 06C3  00F7               	movwf	(??_main+0+0)
  5685+ 06C4  3080               	movlw	(high(05h))^80h
  5686+ 06C5  0277               	subwf	(??_main+0+0),w
  5687+ 06C6  1D03               	skipz
  5688+ 06C7  2ECA               	goto	u3655
  5689+ 06C8  3005               	movlw	low(05h)
  5690+ 06C9  0242               	subwf	(_i),w
  5691+ 06CA                     u3655:
  5692+                          
  5693+ 06CA  1C03               	skipc
  5694+ 06CB  2ECD               	goto	u3651
  5695+ 06CC  2ECE               	goto	u3650
  5696+ 06CD                     u3651:
  5697+ 06CD  2EB0               	goto	l30001466
  5698+ 06CE                     u3650:
  5699+                          	
  5700+ 06CE                     l30001467:	
  5701+                          	line	654
  5702+                          ;ATM.c: 652: }
  5703+                          ;ATM.c: 654: if((wdraw[0]==5)&&(wdraw[1]==0)&&(wdraw[2]==0)&&(wdraw[3]==0)||(wdraw[0]<5)
      +                          )
  5704+ 06CE  3005               	movlw	05h
  5705+ 06CF  1283               	bcf	status, 5	;RP0=0, select bank0
  5706+ 06D0  1303               	bcf	status, 6	;RP1=0, select bank0
  5707+ 06D1  0620               	xorwf	(_wdraw),w
  5708+ 06D2  0421               	iorwf	(_wdraw+1),w
  5709+ 06D3  1D03               	skipz
  5710+ 06D4  2ED6               	goto	u3661
  5711+ 06D5  2ED7               	goto	u3660
  5712+ 06D6                     u3661:
  5713+ 06D6  2EED               	goto	l30001471
  5714+ 06D7                     u3660:
  5715+                          	
  5716+ 06D7                     l30001468:	
  5717+ 06D7  0823               	movf	(1+(_wdraw)+02h),w
  5718+ 06D8  0422               	iorwf	(0+(_wdraw)+02h),w
  5719+ 06D9  1D03               	skipz
  5720+ 06DA  2EDC               	goto	u3671
  5721+ 06DB  2EDD               	goto	u3670
  5722+ 06DC                     u3671:
  5723+ 06DC  2EED               	goto	l30001471
  5724+ 06DD                     u3670:
  5725+                          	
  5726+ 06DD                     l30001469:	
  5727+ 06DD  0825               	movf	(1+(_wdraw)+04h),w
  5728+ 06DE  0424               	iorwf	(0+(_wdraw)+04h),w
  5729+ 06DF  1D03               	skipz
  5730+ 06E0  2EE2               	goto	u3681
  5731+ 06E1  2EE3               	goto	u3680
  5732+ 06E2                     u3681:
  5733+ 06E2  2EED               	goto	l30001471
  5734+ 06E3                     u3680:
  5735+                          	
  5736+ 06E3                     l30001470:	
  5737+ 06E3  3026               	movlw	low((_wdraw)+06h)
  5738+ 06E4  0084               	movwf	fsr0
  5739+ 06E5  1383               	bcf	status, 7	;select IRP bank0
  5740+                          	
  5741+ 06E6  0800               	movf	indf,w
  5742+ 06E7  0A84               	incf	fsr0,f
  5743+ 06E8  0400               	iorwf	indf,w
  5744+ 06E9  1903               	skipnz
  5745+ 06EA  2EEC               	goto	u3691
  5746+ 06EB  2EED               	goto	u3690
  5747+ 06EC                     u3691:
  5748+ 06EC  2EFA               	goto	l30001472
  5749+ 06ED                     u3690:
  5750+                          	
  5751+ 06ED                     l30001471:	
  5752+ 06ED  0821               	movf	(_wdraw+1),w
  5753+ 06EE  3A80               	xorlw	80h
  5754+ 06EF  00F7               	movwf	(??_main+0+0)
  5755+ 06F0  3080               	movlw	(high(05h))^80h
  5756+ 06F1  0277               	subwf	(??_main+0+0),w
  5757+ 06F2  1D03               	skipz
  5758+ 06F3  2EF6               	goto	u3705
  5759+ 06F4  3005               	movlw	low(05h)
  5760+ 06F5  0220               	subwf	(_wdraw),w
  5761+ 06F6                     u3705:
  5762+                          
  5763+ 06F6  1803               	skipnc
  5764+ 06F7  2EF9               	goto	u3701
  5765+ 06F8  2EFA               	goto	u3700
  5766+ 06F9                     u3701:
  5767+ 06F9  2F04               	goto	l30001473
  5768+ 06FA                     u3700:
  5769+                          	
  5770+ 06FA                     l30001472:	
  5771+                          	line	656
  5772+                          ;ATM.c: 655: {
  5773+                          ;ATM.c: 656: string("WITHDRAW SUCCESSFUL");
  5774+ 06FA  305D               	movlw	low((STR_17))
  5775+ 06FB  00F3               	movwf	(?_string)
  5776+ 06FC  3001               	movlw	high((STR_17))
  5777+ 06FD  00F4               	movwf	((?_string))+1
  5778+ 06FE  120A  118A  218A   	fcall	_string
      +       120A  118A         
  5779+ 0703  2F1C               	goto	l30001476
  5780+                          	
  5781+ 0704                     l30001473:	
  5782+                          	line	661
  5783+                          ;ATM.c: 659: else
  5784+                          ;ATM.c: 660: {
  5785+                          ;ATM.c: 661: string("INSUFFICIENCT");
  5786+ 0704  3069               	movlw	low((STR_18))
  5787+ 0705  00F3               	movwf	(?_string)
  5788+ 0706  3000               	movlw	high((STR_18))
  5789+ 0707  00F4               	movwf	((?_string))+1
  5790+ 0708  120A  118A  218A   	fcall	_string
      +       120A  118A         
  5791+                          	
  5792+ 070D                     l30001474:	
  5793+                          	line	662
  5794+                          ;ATM.c: 662: command(0XC0);
  5795+ 070D  30C0               	movlw	(0C0h)
  5796+ 070E  120A  118A  2051   	fcall	_command
      +       120A  118A         
  5797+                          	
  5798+ 0713                     l30001475:	
  5799+                          	line	663
  5800+                          ;ATM.c: 663: string("BALANCE");
  5801+ 0713  30AB               	movlw	low((STR_19))
  5802+ 0714  00F3               	movwf	(?_string)
  5803+ 0715  3000               	movlw	high((STR_19))
  5804+ 0716  00F4               	movwf	((?_string))+1
  5805+ 0717  120A  118A  218A   	fcall	_string
      +       120A  118A         
  5806+                          	
  5807+ 071C                     l30001476:	
  5808+                          	line	666
  5809+                          ;ATM.c: 664: }
  5810+                          ;ATM.c: 666: for(i=0;i<5;i++)
  5811+ 071C  3000               	movlw	low(0)
  5812+ 071D  1283               	bcf	status, 5	;RP0=0, select bank0
  5813+ 071E  1303               	bcf	status, 6	;RP1=0, select bank0
  5814+ 071F  00C2               	movwf	(_i)
  5815+ 0720  3000               	movlw	high(0)
  5816+ 0721  00C3               	movwf	((_i))+1
  5817+                          	
  5818+ 0722                     l30001479:	
  5819+                          	line	668
  5820+                          ;ATM.c: 667: {
  5821+                          ;ATM.c: 668: _delay((unsigned long)((100)*(4000000/4000.0)));
  5822+ 0722  3082               	movlw	130
  5823+ 0723  00F8               movwf	(??_main+0+0+1),f
  5824+ 0724  30DD               	movlw	221
  5825+ 0725  00F7               movwf	(??_main+0+0),f
  5826+ 0726                     u3907:
  5827+ 0726  0BF7               	decfsz	(??_main+0+0),f
  5828+ 0727  2F26               	goto	u3907
  5829+ 0728  0BF8               	decfsz	(??_main+0+0+1),f
  5830+ 0729  2F26               	goto	u3907
  5831+ 072A  2F2B               	nop2
  5832+                          
  5833+                          	line	666
  5834+ 072B  3001               	movlw	low(01h)
  5835+ 072C  1283               	bcf	status, 5	;RP0=0, select bank0
  5836+ 072D  1303               	bcf	status, 6	;RP1=0, select bank0
  5837+ 072E  07C2               	addwf	(_i),f
  5838+ 072F  1803               	skipnc
  5839+ 0730  0AC3               	incf	(_i+1),f
  5840+ 0731  3000               	movlw	high(01h)
  5841+ 0732  07C3               	addwf	(_i+1),f
  5842+ 0733  0843               	movf	(_i+1),w
  5843+ 0734  3A80               	xorlw	80h
  5844+ 0735  00F7               	movwf	(??_main+0+0)
  5845+ 0736  3080               	movlw	(high(05h))^80h
  5846+ 0737  0277               	subwf	(??_main+0+0),w
  5847+ 0738  1D03               	skipz
  5848+ 0739  2F3C               	goto	u3715
  5849+ 073A  3005               	movlw	low(05h)
  5850+ 073B  0242               	subwf	(_i),w
  5851+ 073C                     u3715:
  5852+                          
  5853+ 073C  1C03               	skipc
  5854+ 073D  2F3F               	goto	u3711
  5855+ 073E  2F40               	goto	u3710
  5856+ 073F                     u3711:
  5857+ 073F  2F22               	goto	l30001479
  5858+ 0740                     u3710:
  5859+                          	
  5860+ 0740                     l30001480:	
  5861+                          	line	674
  5862+                          ;ATM.c: 669: }
  5863+                          ;ATM.c: 671: }
  5864+                          ;ATM.c: 674: if(countspecial==2)
  5865+ 0740  3002               	movlw	02h
  5866+ 0741  1283               	bcf	status, 5	;RP0=0, select bank0
  5867+ 0742  1303               	bcf	status, 6	;RP1=0, select bank0
  5868+ 0743  0640               	xorwf	(_countspecial),w
  5869+ 0744  0441               	iorwf	(_countspecial+1),w
  5870+ 0745  1D03               	skipz
  5871+ 0746  2F48               	goto	u3721
  5872+ 0747  2F49               	goto	u3720
  5873+ 0748                     u3721:
  5874+ 0748  2F9B               	goto	l30001485
  5875+ 0749                     u3720:
  5876+                          	
  5877+ 0749                     l30001481:	
  5878+                          	line	677
  5879+                          ;ATM.c: 675: {
  5880+                          ;ATM.c: 677: for(i=0;i<5;i++)
  5881+ 0749  3000               	movlw	low(0)
  5882+ 074A  00C2               	movwf	(_i)
  5883+ 074B  3000               	movlw	high(0)
  5884+ 074C  00C3               	movwf	((_i))+1
  5885+                          	
  5886+ 074D                     l30001483:	
  5887+                          	line	679
  5888+                          ;ATM.c: 678: {
  5889+                          ;ATM.c: 679: _delay((unsigned long)((100)*(4000000/4000.0)));
  5890+ 074D  3082               	movlw	130
  5891+ 074E  00F8               movwf	(??_main+0+0+1),f
  5892+ 074F  30DD               	movlw	221
  5893+ 0750  00F7               movwf	(??_main+0+0),f
  5894+ 0751                     u3917:
  5895+ 0751  0BF7               	decfsz	(??_main+0+0),f
  5896+ 0752  2F51               	goto	u3917
  5897+ 0753  0BF8               	decfsz	(??_main+0+0+1),f
  5898+ 0754  2F51               	goto	u3917
  5899+ 0755  2F56               	nop2
  5900+                          
  5901+                          	line	677
  5902+ 0756  3001               	movlw	low(01h)
  5903+ 0757  1283               	bcf	status, 5	;RP0=0, select bank0
  5904+ 0758  1303               	bcf	status, 6	;RP1=0, select bank0
  5905+ 0759  07C2               	addwf	(_i),f
  5906+ 075A  1803               	skipnc
  5907+ 075B  0AC3               	incf	(_i+1),f
  5908+ 075C  3000               	movlw	high(01h)
  5909+ 075D  07C3               	addwf	(_i+1),f
  5910+ 075E  0843               	movf	(_i+1),w
  5911+ 075F  3A80               	xorlw	80h
  5912+ 0760  00F7               	movwf	(??_main+0+0)
  5913+ 0761  3080               	movlw	(high(05h))^80h
  5914+ 0762  0277               	subwf	(??_main+0+0),w
  5915+ 0763  1D03               	skipz
  5916+ 0764  2F67               	goto	u3735
  5917+ 0765  3005               	movlw	low(05h)
  5918+ 0766  0242               	subwf	(_i),w
  5919+ 0767                     u3735:
  5920+                          
  5921+ 0767  1C03               	skipc
  5922+ 0768  2F6A               	goto	u3731
  5923+ 0769  2F6B               	goto	u3730
  5924+ 076A                     u3731:
  5925+ 076A  2F4D               	goto	l30001483
  5926+ 076B                     u3730:
  5927+                          	
  5928+ 076B                     l30001484:	
  5929+                          	line	682
  5930+                          ;ATM.c: 680: }
  5931+                          ;ATM.c: 682: command(0X01);
  5932+ 076B  3001               	movlw	(01h)
  5933+ 076C  120A  118A  2051   	fcall	_command
      +       120A  118A         
  5934+                          	line	684
  5935+                          ;ATM.c: 684: command(0X80);
  5936+ 0771  3080               	movlw	(080h)
  5937+ 0772  120A  118A  2051   	fcall	_command
      +       120A  118A         
  5938+                          	line	685
  5939+                          ;ATM.c: 685: data(l+48);
  5940+ 0777  1283               	bcf	status, 5	;RP0=0, select bank0
  5941+ 0778  1303               	bcf	status, 6	;RP1=0, select bank0
  5942+ 0779  0854               	movf	(main@l),w
  5943+ 077A  3E30               	addlw	030h
  5944+ 077B  120A  118A  2045   	fcall	_data
      +       120A  118A         
  5945+                          	line	686
  5946+                          ;ATM.c: 686: data(n+48);
  5947+ 0780  1283               	bcf	status, 5	;RP0=0, select bank0
  5948+ 0781  1303               	bcf	status, 6	;RP1=0, select bank0
  5949+ 0782  0852               	movf	(main@n),w
  5950+ 0783  3E30               	addlw	030h
  5951+ 0784  120A  118A  2045   	fcall	_data
      +       120A  118A         
  5952+                          	line	687
  5953+                          ;ATM.c: 687: data(p+48);
  5954+ 0789  1283               	bcf	status, 5	;RP0=0, select bank0
  5955+ 078A  1303               	bcf	status, 6	;RP1=0, select bank0
  5956+ 078B  084E               	movf	(main@p),w
  5957+ 078C  3E30               	addlw	030h
  5958+ 078D  120A  118A  2045   	fcall	_data
      +       120A  118A         
  5959+                          	line	688
  5960+                          ;ATM.c: 688: data(q+48);
  5961+ 0792  1283               	bcf	status, 5	;RP0=0, select bank0
  5962+ 0793  1303               	bcf	status, 6	;RP1=0, select bank0
  5963+ 0794  0850               	movf	(main@q),w
  5964+ 0795  3E30               	addlw	030h
  5965+ 0796  120A  118A  2045   	fcall	_data
      +       120A  118A         
  5966+                          	
  5967+ 079B                     l30001485:	
  5968+                          	line	692
  5969+                          ;ATM.c: 690: }
  5970+                          ;ATM.c: 692: for(i=0;i<5;i++)
  5971+ 079B  3000               	movlw	low(0)
  5972+ 079C  1283               	bcf	status, 5	;RP0=0, select bank0
  5973+ 079D  1303               	bcf	status, 6	;RP1=0, select bank0
  5974+ 079E  00C2               	movwf	(_i)
  5975+ 079F  3000               	movlw	high(0)
  5976+ 07A0  00C3               	movwf	((_i))+1
  5977+                          	
  5978+ 07A1                     l30001488:	
  5979+                          	line	694
  5980+                          ;ATM.c: 693: {
  5981+                          ;ATM.c: 694: _delay((unsigned long)((100)*(4000000/4000.0)));
  5982+ 07A1  3082               	movlw	130
  5983+ 07A2  00F8               movwf	(??_main+0+0+1),f
  5984+ 07A3  30DD               	movlw	221
  5985+ 07A4  00F7               movwf	(??_main+0+0),f
  5986+ 07A5                     u3927:
  5987+ 07A5  0BF7               	decfsz	(??_main+0+0),f
  5988+ 07A6  2FA5               	goto	u3927
  5989+ 07A7  0BF8               	decfsz	(??_main+0+0+1),f
  5990+ 07A8  2FA5               	goto	u3927
  5991+ 07A9  2FAA               	nop2
  5992+                          
  5993+                          	line	692
  5994+ 07AA  3001               	movlw	low(01h)
  5995+ 07AB  1283               	bcf	status, 5	;RP0=0, select bank0
  5996+ 07AC  1303               	bcf	status, 6	;RP1=0, select bank0
  5997+ 07AD  07C2               	addwf	(_i),f
  5998+ 07AE  1803               	skipnc
  5999+ 07AF  0AC3               	incf	(_i+1),f
  6000+ 07B0  3000               	movlw	high(01h)
  6001+ 07B1  07C3               	addwf	(_i+1),f
  6002+ 07B2  0843               	movf	(_i+1),w
  6003+ 07B3  3A80               	xorlw	80h
  6004+ 07B4  00F7               	movwf	(??_main+0+0)
  6005+ 07B5  3080               	movlw	(high(05h))^80h
  6006+ 07B6  0277               	subwf	(??_main+0+0),w
  6007+ 07B7  1D03               	skipz
  6008+ 07B8  2FBB               	goto	u3745
  6009+ 07B9  3005               	movlw	low(05h)
  6010+ 07BA  0242               	subwf	(_i),w
  6011+ 07BB                     u3745:
  6012+                          
  6013+ 07BB  1C03               	skipc
  6014+ 07BC  2FBE               	goto	u3741
  6015+ 07BD  2FBF               	goto	u3740
  6016+ 07BE                     u3741:
  6017+ 07BE  2FA1               	goto	l30001488
  6018+ 07BF                     u3740:
  6019+ 07BF  2FC9               	goto	l30001490
  6020+                          	
  6021+ 07C0                     l30001489:	
  6022+                          	line	704
  6023+                          ;ATM.c: 702: else
  6024+                          ;ATM.c: 703: {
  6025+                          ;ATM.c: 704: string("INVALID NUMBER");
  6026+ 07C0  3094               	movlw	low((STR_20))
  6027+ 07C1  00F3               	movwf	(?_string)
  6028+ 07C2  3000               	movlw	high((STR_20))
  6029+ 07C3  00F4               	movwf	((?_string))+1
  6030+ 07C4  120A  118A  218A   	fcall	_string
      +       120A  118A         
  6031+                          	
  6032+ 07C9                     l30001490:	
  6033+                          	line	709
  6034+                          ;ATM.c: 705: }
  6035+                          ;ATM.c: 706: }
  6036+                          ;ATM.c: 709: for(i=0;i<5;i++)
  6037+ 07C9  3000               	movlw	low(0)
  6038+ 07CA  1283               	bcf	status, 5	;RP0=0, select bank0
  6039+ 07CB  1303               	bcf	status, 6	;RP1=0, select bank0
  6040+ 07CC  00C2               	movwf	(_i)
  6041+ 07CD  3000               	movlw	high(0)
  6042+ 07CE  00C3               	movwf	((_i))+1
  6043+                          	
  6044+ 07CF                     l30001493:	
  6045+                          	line	711
  6046+                          ;ATM.c: 710: {
  6047+                          ;ATM.c: 711: _delay((unsigned long)((100)*(4000000/4000.0)));
  6048+ 07CF  3082               	movlw	130
  6049+ 07D0  00F8               movwf	(??_main+0+0+1),f
  6050+ 07D1  30DD               	movlw	221
  6051+ 07D2  00F7               movwf	(??_main+0+0),f
  6052+ 07D3                     u3937:
  6053+ 07D3  0BF7               	decfsz	(??_main+0+0),f
  6054+ 07D4  2FD3               	goto	u3937
  6055+ 07D5  0BF8               	decfsz	(??_main+0+0+1),f
  6056+ 07D6  2FD3               	goto	u3937
  6057+ 07D7  2FD8               	nop2
  6058+                          
  6059+                          	line	709
  6060+ 07D8  3001               	movlw	low(01h)
  6061+ 07D9  1283               	bcf	status, 5	;RP0=0, select bank0
  6062+ 07DA  1303               	bcf	status, 6	;RP1=0, select bank0
  6063+ 07DB  07C2               	addwf	(_i),f
  6064+ 07DC  1803               	skipnc
  6065+ 07DD  0AC3               	incf	(_i+1),f
  6066+ 07DE  3000               	movlw	high(01h)
  6067+ 07DF  07C3               	addwf	(_i+1),f
  6068+ 07E0  0843               	movf	(_i+1),w
  6069+ 07E1  3A80               	xorlw	80h
  6070+ 07E2  00F7               	movwf	(??_main+0+0)
  6071+ 07E3  3080               	movlw	(high(05h))^80h
  6072+ 07E4  0277               	subwf	(??_main+0+0),w
  6073+ 07E5  1D03               	skipz
  6074+ 07E6  2FE9               	goto	u3755
  6075+ 07E7  3005               	movlw	low(05h)
  6076+ 07E8  0242               	subwf	(_i),w
  6077+ 07E9                     u3755:
  6078+                          
  6079+ 07E9  1C03               	skipc
  6080+ 07EA  2FEC               	goto	u3751
  6081+ 07EB  2FED               	goto	u3750
  6082+ 07EC                     u3751:
  6083+ 07EC  2FCF               	goto	l30001493
  6084+ 07ED                     u3750:
  6085+                          	
  6086+ 07ED                     l30001494:	
  6087+                          	line	713
  6088+                          ;ATM.c: 712: }
  6089+                          ;ATM.c: 713: command(0X01);
  6090+ 07ED  3001               	movlw	(01h)
  6091+ 07EE  120A  118A  2051   	fcall	_command
      +       120A  118A         
  6092+ 07F3  2FFD               	goto	l12
  6093+                          	
  6094+ 07F4                     l230:	
  6095+                          	line	715
  6096+ 07F4  1283               	bcf	status, 5	;RP0=0, select bank0
  6097+ 07F5  1303               	bcf	status, 6	;RP1=0, select bank0
  6098  07F6  1806               	btfsc	(48/8),(48)&7
  6099  07F7  2FF9               	goto	u3761
  6100  07F8  2FFA               	goto	u3760
  6101  07F9                     u3761:
  6102  07F9  2FF4               	goto	l230
  6103  07FA                     u3760:
  6104  07FA  120A  158A  2AC2   	goto	l20
  6105                           	
  6106  07FD                     l12:	
  6107                           	global	start
  6108  07FD  120A  118A  2800   	ljmp	start
  6109                           	opt stack 0
  6110                           GLOBAL	__end_of_main
  6111  0800                     	__end_of_main:
  6112                           ; =============== function _main ends ============
  6113                           
  6114                           psect	maintext
  6115                           	line	721
  6116                           	signat	_main,88
  6117                           	global	_string
  6118                           psect	text47,local,class=CODE,delta=2
  6119                           global __ptext47
  6120  018A                     __ptext47:
  6121                           
  6122                           ; *************** function _string *****************
  6123                           ; Defined at:
  6124                           ;		line 71 in file "C:\Users\gowth\Documents\PIC Programs\LCD\ATM\ATM.c"
  6125                           ; Parameters:    Size  Location     Type
  6126                           ;  ptr             2    3[COMMON] PTR unsigned char 
  6127                           ;		 -> STR_2(17), STR_1(15), STR_3(17), STR_4(17), 
  6128                           ;		 -> STR_5(17), STR_7(17), STR_6(17), STR_8(8), 
  6129                           ;		 -> STR_10(17), STR_11(16), STR_9(14), STR_18(14), 
  6130                           ;		 -> STR_17(20), STR_19(8), STR_20(15), STR_13(12), 
  6131                           ;		 -> STR_14(10), STR_12(9), STR_15(11), STR_16(17), 
  6132                           ; Auto vars:     Size  Location     Type
  6133                           ;		None
  6134                           ; Return value:  Size  Location     Type
  6135                           ;		None               void
  6136                           ; Registers used:
  6137                           ;		wreg, fsr0l, fsr0h, status,2, status,0, pclath, cstack
  6138                           ; Tracked objects:
  6139                           ;		On entry : 0/0
  6140                           ;		On exit  : 0/0
  6141                           ;		Unchanged: 0/0
  6142                           ; Data sizes:     COMMON   BANK0   BANK1   BANK3   BANK2
  6143                           ;      Locals:         2       0       0       0       0
  6144                           ;      Temp:     0
  6145                           ;      Total:    2
  6146                           ; This function calls:
  6147                           ;		_data
  6148                           ; This function is called by:
  6149                           ;		_main
  6150                           ; This function uses a non-reentrant model
  6151                           ; 
  6152                           psect	text47
  6153                           	file	"C:\Users\gowth\Documents\PIC Programs\LCD\ATM\ATM.c"
  6154                           	line	71
  6155                           	global	__size_of_string
  6156  0022                     	__size_of_string	equ	__end_of_string-_string
  6157                           ;ATM.c: 70: void string(char *ptr)
  6158                           ;ATM.c: 71: {
  6159                           	
  6160  018A                     _string:	
  6161                           	opt stack 6
  6162                           ; Regs used in _string: [wreg-fsr0h+status,2+status,0+pclath+cstack]
  6163                           	
  6164  018A                     l30001155:	
  6165  018A  299E               	goto	l30001158
  6166                           	
  6167  018B                     l30001156:	
  6168                           	line	74
  6169                           ;ATM.c: 73: {
  6170                           ;ATM.c: 74: data(*ptr);
  6171  018B  0873               	movf	(string@ptr),w
  6172  018C  0084               	movwf	fsr0
  6173  018D  0874               	movf	(string@ptr+1),w
  6174                           	FNCALL _string,stringtab
  6175  018E  120A  158A  2100   	fcall	stringtab
              120A  118A         
  6176  0193  120A  118A  2045   	fcall	_data
              120A  118A         
  6177                           	
  6178  0198                     l30001157:	
  6179                           	line	75
  6180                           ;ATM.c: 75: *ptr++;
  6181  0198  3001               	movlw	low(01h)
  6182  0199  07F3               	addwf	(string@ptr),f
  6183  019A  1803               	skipnc
  6184  019B  0AF4               	incf	(string@ptr+1),f
  6185  019C  3000               	movlw	high(01h)
  6186  019D  07F4               	addwf	(string@ptr+1),f
  6187                           	
  6188  019E                     l30001158:	
  6189                           	line	72
  6190  019E  0873               	movf	(string@ptr),w
  6191  019F  0084               	movwf	fsr0
  6192  01A0  0874               	movf	(string@ptr+1),w
  6193                           	FNCALL _string,stringtab
  6194  01A1  120A  158A  2100   	fcall	stringtab
              120A  118A         
  6195  01A6  3800               	iorlw	0
  6196  01A7  1D03               	skipz
  6197  01A8  29AA               	goto	u2381
  6198  01A9  29AB               	goto	u2380
  6199  01AA                     u2381:
  6200  01AA  298B               	goto	l30001156
  6201  01AB                     u2380:
  6202                           	
  6203  01AB                     l8:	
  6204  01AB  0008               	return
  6205                           	opt stack 0
  6206                           GLOBAL	__end_of_string
  6207  01AC                     	__end_of_string:
  6208                           ; =============== function _string ends ============
  6209                           
  6210                           psect	text48,local,class=CODE,delta=2
  6211                           global __ptext48
  6212  0051                     __ptext48:
  6213                           	line	77
  6214                           	signat	_string,4216
  6215                           	global	_command
  6216                           
  6217                           ; *************** function _command *****************
  6218                           ; Defined at:
  6219                           ;		line 57 in file "C:\Users\gowth\Documents\PIC Programs\LCD\ATM\ATM.c"
  6220                           ; Parameters:    Size  Location     Type
  6221                           ;  data            1    wreg     unsigned char 
  6222                           ; Auto vars:     Size  Location     Type
  6223                           ;  data            1    2[COMMON] unsigned char 
  6224                           ; Return value:  Size  Location     Type
  6225                           ;		None               void
  6226                           ; Registers used:
  6227                           ;		wreg, status,2, status,0, pclath, cstack
  6228                           ; Tracked objects:
  6229                           ;		On entry : 0/0
  6230                           ;		On exit  : 0/0
  6231                           ;		Unchanged: 0/0
  6232                           ; Data sizes:     COMMON   BANK0   BANK1   BANK3   BANK2
  6233                           ;      Locals:         1       0       0       0       0
  6234                           ;      Temp:     0
  6235                           ;      Total:    1
  6236                           ; This function calls:
  6237                           ;		_pulse
  6238                           ; This function is called by:
  6239                           ;		_main
  6240                           ; This function uses a non-reentrant model
  6241                           ; 
  6242                           psect	text48
  6243                           	file	"C:\Users\gowth\Documents\PIC Programs\LCD\ATM\ATM.c"
  6244                           	line	57
  6245                           	global	__size_of_command
  6246  000C                     	__size_of_command	equ	__end_of_command-_command
  6247                           ;ATM.c: 56: void command(char data)
  6248                           ;ATM.c: 57: {
  6249                           	
  6250  0051                     _command:	
  6251                           	opt stack 6
  6252                           ; Regs used in _command: [wreg+status,2+status,0+pclath+cstack]
  6253                           ;command@data stored from wreg
  6254  0051  00F2               	movwf	(command@data)
  6255                           	
  6256  0052                     l30001159:	
  6257                           	line	58
  6258                           ;ATM.c: 58: RE0=0;
  6259  0052  1283               	bcf	status, 5	;RP0=0, select bank0
  6260  0053  1303               	bcf	status, 6	;RP1=0, select bank0
  6261  0054  1009               	bcf	(72/8),(72)&7
  6262                           	
  6263  0055                     l30001160:	
  6264                           	line	59
  6265                           ;ATM.c: 59: PORTD=data;
  6266  0055  0872               	movf	(command@data),w
  6267  0056  0088               	movwf	(8)	;volatile
  6268                           	
  6269  0057                     l30001161:	
  6270                           	line	60
  6271                           ;ATM.c: 60: pulse();
  6272  0057  120A  118A  2171   	fcall	_pulse
              120A  118A         
  6273                           	
  6274  005C                     l6:	
  6275  005C  0008               	return
  6276                           	opt stack 0
  6277                           GLOBAL	__end_of_command
  6278  005D                     	__end_of_command:
  6279                           ; =============== function _command ends ============
  6280                           
  6281                           psect	text49,local,class=CODE,delta=2
  6282                           global __ptext49
  6283  0266                     __ptext49:
  6284                           	line	61
  6285                           	signat	_command,4216
  6286                           	global	___awdiv
  6287                           
  6288                           ; *************** function ___awdiv *****************
  6289                           ; Defined at:
  6290                           ;		line 5 in file "C:\Program Files (x86)\HI-TECH Software\PICC\9.70\sources\awdiv.c"
  6291                           ; Parameters:    Size  Location     Type
  6292                           ;  dividend        2    0[BANK0 ] int 
  6293                           ;  divisor         2    2[BANK0 ] int 
  6294                           ; Auto vars:     Size  Location     Type
  6295                           ;  quotient        2    3[COMMON] int 
  6296                           ;  sign            1    2[COMMON] unsigned char 
  6297                           ;  counter         1    1[COMMON] unsigned char 
  6298                           ; Return value:  Size  Location     Type
  6299                           ;                  2    0[BANK0 ] int 
  6300                           ; Registers used:
  6301                           ;		wreg, status,2, status,0
  6302                           ; Tracked objects:
  6303                           ;		On entry : 0/0
  6304                           ;		On exit  : 0/0
  6305                           ;		Unchanged: 0/0
  6306                           ; Data sizes:     COMMON   BANK0   BANK1   BANK3   BANK2
  6307                           ;      Locals:         5       4       0       0       0
  6308                           ;      Temp:     1
  6309                           ;      Total:    9
  6310                           ; This function calls:
  6311                           ;		Nothing
  6312                           ; This function is called by:
  6313                           ;		_main
  6314                           ; This function uses a non-reentrant model
  6315                           ; 
  6316                           psect	text49
  6317                           	file	"C:\Program Files (x86)\HI-TECH Software\PICC\9.70\sources\awdiv.c"
  6318                           	line	5
  6319                           	global	__size_of___awdiv
  6320  0072                     	__size_of___awdiv	equ	__end_of___awdiv-___awdiv
  6321                           	
  6322  0266                     ___awdiv:	
  6323                           	opt stack 6
  6324                           ; Regs used in ___awdiv: [wreg+status,2+status,0]
  6325                           	line	9
  6326                           	
  6327  0266                     l30001213:	
  6328  0266  1003               	clrc
  6329  0267  3000               	movlw	0
  6330  0268  1803               	btfsc	status,0
  6331  0269  3001               	movlw	1
  6332  026A  00F2               	movwf	(___awdiv@sign)
  6333                           	
  6334  026B                     l30001214:	
  6335                           	line	10
  6336  026B  1283               	bcf	status, 5	;RP0=0, select bank0
  6337  026C  1303               	bcf	status, 6	;RP1=0, select bank0
  6338  026D  1FCD               	btfss	(___awdiv@divisor+1),7
  6339  026E  2A70               	goto	u2591
  6340  026F  2A71               	goto	u2590
  6341  0270                     u2591:
  6342  0270  2A79               	goto	l30001216
  6343  0271                     u2590:
  6344                           	
  6345  0271                     l30001215:	
  6346                           	line	11
  6347  0271  09CC               	comf	(___awdiv@divisor),f
  6348  0272  09CD               	comf	(___awdiv@divisor+1),f
  6349  0273  0ACC               	incf	(___awdiv@divisor),f
  6350  0274  1903               	skipnz
  6351  0275  0ACD               	incf	(___awdiv@divisor+1),f
  6352                           	line	12
  6353  0276  01F2               	clrf	(___awdiv@sign)
  6354  0277  1403               	bsf	status,0
  6355  0278  0DF2               	rlf	(___awdiv@sign),f
  6356                           	
  6357  0279                     l30001216:	
  6358                           	line	14
  6359  0279  1FCB               	btfss	(___awdiv@dividend+1),7
  6360  027A  2A7C               	goto	u2601
  6361  027B  2A7D               	goto	u2600
  6362  027C                     u2601:
  6363  027C  2A86               	goto	l384
  6364  027D                     u2600:
  6365                           	
  6366  027D                     l30001217:	
  6367                           	line	15
  6368  027D  09CA               	comf	(___awdiv@dividend),f
  6369  027E  09CB               	comf	(___awdiv@dividend+1),f
  6370  027F  0ACA               	incf	(___awdiv@dividend),f
  6371  0280  1903               	skipnz
  6372  0281  0ACB               	incf	(___awdiv@dividend+1),f
  6373                           	
  6374  0282                     l30001218:	
  6375                           	line	16
  6376  0282  3001               	movlw	(01h)
  6377  0283  00F0               	movwf	(??___awdiv+0+0)
  6378  0284  0870               	movf	(??___awdiv+0+0),w
  6379  0285  06F2               	xorwf	(___awdiv@sign),f
  6380                           	
  6381  0286                     l384:	
  6382                           	line	18
  6383  0286  3000               	movlw	low(0)
  6384  0287  00F3               	movwf	(___awdiv@quotient)
  6385  0288  3000               	movlw	high(0)
  6386  0289  00F4               	movwf	((___awdiv@quotient))+1
  6387                           	line	19
  6388  028A  084D               	movf	(___awdiv@divisor+1),w
  6389  028B  044C               	iorwf	(___awdiv@divisor),w
  6390  028C  1903               	skipnz
  6391  028D  2A8F               	goto	u2611
  6392  028E  2A90               	goto	u2610
  6393  028F                     u2611:
  6394  028F  2AC8               	goto	l30001228
  6395  0290                     u2610:
  6396                           	
  6397  0290                     l30001219:	
  6398                           	line	20
  6399  0290  01F1               	clrf	(___awdiv@counter)
  6400  0291  1403               	bsf	status,0
  6401  0292  0DF1               	rlf	(___awdiv@counter),f
  6402  0293  2A9F               	goto	l30001222
  6403                           	
  6404  0294                     l30001220:	
  6405                           	line	22
  6406  0294  3001               	movlw	01h
  6407  0295                     u2625:
  6408  0295  1003               	clrc
  6409  0296  0DCC               	rlf	(___awdiv@divisor),f
  6410  0297  0DCD               	rlf	(___awdiv@divisor+1),f
  6411  0298  3EFF               	addlw	-1
  6412  0299  1D03               	skipz
  6413  029A  2A95               	goto	u2625
  6414                           	
  6415  029B                     l30001221:	
  6416                           	line	23
  6417  029B  3001               	movlw	(01h)
  6418  029C  00F0               	movwf	(??___awdiv+0+0)
  6419  029D  0870               	movf	(??___awdiv+0+0),w
  6420  029E  07F1               	addwf	(___awdiv@counter),f
  6421                           	
  6422  029F                     l30001222:	
  6423                           	line	21
  6424  029F  1FCD               	btfss	(___awdiv@divisor+1),(15)&7
  6425  02A0  2AA2               	goto	u2631
  6426  02A1  2AA3               	goto	u2630
  6427  02A2                     u2631:
  6428  02A2  2A94               	goto	l30001220
  6429  02A3                     u2630:
  6430                           	
  6431  02A3                     l30001223:	
  6432                           	line	26
  6433  02A3  3001               	movlw	01h
  6434  02A4                     u2645:
  6435  02A4  1003               	clrc
  6436  02A5  0DF3               	rlf	(___awdiv@quotient),f
  6437  02A6  0DF4               	rlf	(___awdiv@quotient+1),f
  6438  02A7  3EFF               	addlw	-1
  6439  02A8  1D03               	skipz
  6440  02A9  2AA4               	goto	u2645
  6441                           	line	27
  6442  02AA  084D               	movf	(___awdiv@divisor+1),w
  6443  02AB  024B               	subwf	(___awdiv@dividend+1),w
  6444  02AC  1D03               	skipz
  6445  02AD  2AB0               	goto	u2655
  6446  02AE  084C               	movf	(___awdiv@divisor),w
  6447  02AF  024A               	subwf	(___awdiv@dividend),w
  6448  02B0                     u2655:
  6449  02B0  1C03               	skipc
  6450  02B1  2AB3               	goto	u2651
  6451  02B2  2AB4               	goto	u2650
  6452  02B3                     u2651:
  6453  02B3  2ABB               	goto	l30001226
  6454  02B4                     u2650:
  6455                           	
  6456  02B4                     l30001224:	
  6457                           	line	28
  6458  02B4  084C               	movf	(___awdiv@divisor),w
  6459  02B5  02CA               	subwf	(___awdiv@dividend),f
  6460  02B6  084D               	movf	(___awdiv@divisor+1),w
  6461  02B7  1C03               	skipc
  6462  02B8  03CB               	decf	(___awdiv@dividend+1),f
  6463  02B9  02CB               	subwf	(___awdiv@dividend+1),f
  6464                           	
  6465  02BA                     l30001225:	
  6466                           	line	29
  6467  02BA  1473               	bsf	(___awdiv@quotient)+(0/8),(0)&7
  6468                           	
  6469  02BB                     l30001226:	
  6470                           	line	31
  6471  02BB  3001               	movlw	01h
  6472  02BC                     u2665:
  6473  02BC  1003               	clrc
  6474  02BD  0CCD               	rrf	(___awdiv@divisor+1),f
  6475  02BE  0CCC               	rrf	(___awdiv@divisor),f
  6476  02BF  3EFF               	addlw	-1
  6477  02C0  1D03               	skipz
  6478  02C1  2ABC               	goto	u2665
  6479                           	
  6480  02C2                     l30001227:	
  6481                           	line	32
  6482  02C2  3001               	movlw	low(01h)
  6483  02C3  02F1               	subwf	(___awdiv@counter),f
  6484  02C4  1D03               	btfss	status,2
  6485  02C5  2AC7               	goto	u2671
  6486  02C6  2AC8               	goto	u2670
  6487  02C7                     u2671:
  6488  02C7  2AA3               	goto	l30001223
  6489  02C8                     u2670:
  6490                           	
  6491  02C8                     l30001228:	
  6492                           	line	34
  6493  02C8  0872               	movf	(___awdiv@sign),w
  6494  02C9  1D03               	skipz
  6495  02CA  2ACC               	goto	u2680
  6496  02CB  2AD1               	goto	l30001230
  6497  02CC                     u2680:
  6498                           	
  6499  02CC                     l30001229:	
  6500                           	line	35
  6501  02CC  09F3               	comf	(___awdiv@quotient),f
  6502  02CD  09F4               	comf	(___awdiv@quotient+1),f
  6503  02CE  0AF3               	incf	(___awdiv@quotient),f
  6504  02CF  1903               	skipnz
  6505  02D0  0AF4               	incf	(___awdiv@quotient+1),f
  6506                           	
  6507  02D1                     l30001230:	
  6508                           	line	36
  6509  02D1  0874               	movf	(___awdiv@quotient+1),w
  6510  02D2  01CB               	clrf	(?___awdiv+1)
  6511  02D3  07CB               	addwf	(?___awdiv+1)
  6512  02D4  0873               	movf	(___awdiv@quotient),w
  6513  02D5  01CA               	clrf	(?___awdiv)
  6514  02D6  07CA               	addwf	(?___awdiv)
  6515                           
  6516                           	
  6517  02D7                     l382:	
  6518  02D7  0008               	return
  6519                           	opt stack 0
  6520                           GLOBAL	__end_of___awdiv
  6521  02D8                     	__end_of___awdiv:
  6522                           ; =============== function ___awdiv ends ============
  6523                           
  6524                           psect	text50,local,class=CODE,delta=2
  6525                           global __ptext50
  6526  0206                     __ptext50:
  6527                           	line	37
  6528                           	signat	___awdiv,8314
  6529                           	global	___awmod
  6530                           
  6531                           ; *************** function ___awmod *****************
  6532                           ; Defined at:
  6533                           ;		line 5 in file "C:\Program Files (x86)\HI-TECH Software\PICC\9.70\sources\awmod.c"
  6534                           ; Parameters:    Size  Location     Type
  6535                           ;  dividend        2    3[COMMON] int 
  6536                           ;  divisor         2    5[COMMON] int 
  6537                           ; Auto vars:     Size  Location     Type
  6538                           ;  sign            1    1[COMMON] unsigned char 
  6539                           ;  counter         1    2[COMMON] unsigned char 
  6540                           ; Return value:  Size  Location     Type
  6541                           ;                  2    3[COMMON] int 
  6542                           ; Registers used:
  6543                           ;		wreg, status,2, status,0
  6544                           ; Tracked objects:
  6545                           ;		On entry : 0/0
  6546                           ;		On exit  : 0/0
  6547                           ;		Unchanged: 0/0
  6548                           ; Data sizes:     COMMON   BANK0   BANK1   BANK3   BANK2
  6549                           ;      Locals:         7       0       0       0       0
  6550                           ;      Temp:     1
  6551                           ;      Total:    7
  6552                           ; This function calls:
  6553                           ;		Nothing
  6554                           ; This function is called by:
  6555                           ;		_main
  6556                           ; This function uses a non-reentrant model
  6557                           ; 
  6558                           psect	text50
  6559                           	file	"C:\Program Files (x86)\HI-TECH Software\PICC\9.70\sources\awmod.c"
  6560                           	line	5
  6561                           	global	__size_of___awmod
  6562  0060                     	__size_of___awmod	equ	__end_of___awmod-___awmod
  6563                           	
  6564  0206                     ___awmod:	
  6565                           	opt stack 6
  6566                           ; Regs used in ___awmod: [wreg+status,2+status,0]
  6567                           	line	8
  6568                           	
  6569  0206                     l30001181:	
  6570  0206  1003               	clrc
  6571  0207  3000               	movlw	0
  6572  0208  1803               	btfsc	status,0
  6573  0209  3001               	movlw	1
  6574  020A  00F1               	movwf	(___awmod@sign)
  6575                           	
  6576  020B                     l30001182:	
  6577                           	line	9
  6578  020B  1FF4               	btfss	(___awmod@dividend+1),7
  6579  020C  2A0E               	goto	u2491
  6580  020D  2A0F               	goto	u2490
  6581  020E                     u2491:
  6582  020E  2A17               	goto	l30001184
  6583  020F                     u2490:
  6584                           	
  6585  020F                     l30001183:	
  6586                           	line	10
  6587  020F  09F3               	comf	(___awmod@dividend),f
  6588  0210  09F4               	comf	(___awmod@dividend+1),f
  6589  0211  0AF3               	incf	(___awmod@dividend),f
  6590  0212  1903               	skipnz
  6591  0213  0AF4               	incf	(___awmod@dividend+1),f
  6592                           	line	11
  6593  0214  01F1               	clrf	(___awmod@sign)
  6594  0215  1403               	bsf	status,0
  6595  0216  0DF1               	rlf	(___awmod@sign),f
  6596                           	
  6597  0217                     l30001184:	
  6598                           	line	13
  6599  0217  1FF6               	btfss	(___awmod@divisor+1),7
  6600  0218  2A1A               	goto	u2501
  6601  0219  2A1B               	goto	u2500
  6602  021A                     u2501:
  6603  021A  2A20               	goto	l30001186
  6604  021B                     u2500:
  6605                           	
  6606  021B                     l30001185:	
  6607                           	line	14
  6608  021B  09F5               	comf	(___awmod@divisor),f
  6609  021C  09F6               	comf	(___awmod@divisor+1),f
  6610  021D  0AF5               	incf	(___awmod@divisor),f
  6611  021E  1903               	skipnz
  6612  021F  0AF6               	incf	(___awmod@divisor+1),f
  6613                           	
  6614  0220                     l30001186:	
  6615                           	line	15
  6616  0220  0876               	movf	(___awmod@divisor+1),w
  6617  0221  0475               	iorwf	(___awmod@divisor),w
  6618  0222  1903               	skipnz
  6619  0223  2A25               	goto	u2511
  6620  0224  2A26               	goto	u2510
  6621  0225                     u2511:
  6622  0225  2A56               	goto	l30001195
  6623  0226                     u2510:
  6624                           	
  6625  0226                     l30001187:	
  6626                           	line	16
  6627  0226  01F2               	clrf	(___awmod@counter)
  6628  0227  1403               	bsf	status,0
  6629  0228  0DF2               	rlf	(___awmod@counter),f
  6630  0229  2A35               	goto	l30001190
  6631                           	
  6632  022A                     l30001188:	
  6633                           	line	18
  6634  022A  3001               	movlw	01h
  6635  022B                     u2525:
  6636  022B  1003               	clrc
  6637  022C  0DF5               	rlf	(___awmod@divisor),f
  6638  022D  0DF6               	rlf	(___awmod@divisor+1),f
  6639  022E  3EFF               	addlw	-1
  6640  022F  1D03               	skipz
  6641  0230  2A2B               	goto	u2525
  6642                           	
  6643  0231                     l30001189:	
  6644                           	line	19
  6645  0231  3001               	movlw	(01h)
  6646  0232  00F0               	movwf	(??___awmod+0+0)
  6647  0233  0870               	movf	(??___awmod+0+0),w
  6648  0234  07F2               	addwf	(___awmod@counter),f
  6649                           	
  6650  0235                     l30001190:	
  6651                           	line	17
  6652  0235  1FF6               	btfss	(___awmod@divisor+1),(15)&7
  6653  0236  2A38               	goto	u2531
  6654  0237  2A39               	goto	u2530
  6655  0238                     u2531:
  6656  0238  2A2A               	goto	l30001188
  6657  0239                     u2530:
  6658                           	
  6659  0239                     l30001191:	
  6660                           	line	22
  6661  0239  0876               	movf	(___awmod@divisor+1),w
  6662  023A  0274               	subwf	(___awmod@dividend+1),w
  6663  023B  1D03               	skipz
  6664  023C  2A3F               	goto	u2545
  6665  023D  0875               	movf	(___awmod@divisor),w
  6666  023E  0273               	subwf	(___awmod@dividend),w
  6667  023F                     u2545:
  6668  023F  1C03               	skipc
  6669  0240  2A42               	goto	u2541
  6670  0241  2A43               	goto	u2540
  6671  0242                     u2541:
  6672  0242  2A49               	goto	l30001193
  6673  0243                     u2540:
  6674                           	
  6675  0243                     l30001192:	
  6676                           	line	23
  6677  0243  0875               	movf	(___awmod@divisor),w
  6678  0244  02F3               	subwf	(___awmod@dividend),f
  6679  0245  0876               	movf	(___awmod@divisor+1),w
  6680  0246  1C03               	skipc
  6681  0247  03F4               	decf	(___awmod@dividend+1),f
  6682  0248  02F4               	subwf	(___awmod@dividend+1),f
  6683                           	
  6684  0249                     l30001193:	
  6685                           	line	24
  6686  0249  3001               	movlw	01h
  6687  024A                     u2555:
  6688  024A  1003               	clrc
  6689  024B  0CF6               	rrf	(___awmod@divisor+1),f
  6690  024C  0CF5               	rrf	(___awmod@divisor),f
  6691  024D  3EFF               	addlw	-1
  6692  024E  1D03               	skipz
  6693  024F  2A4A               	goto	u2555
  6694                           	
  6695  0250                     l30001194:	
  6696                           	line	25
  6697  0250  3001               	movlw	low(01h)
  6698  0251  02F2               	subwf	(___awmod@counter),f
  6699  0252  1D03               	btfss	status,2
  6700  0253  2A55               	goto	u2561
  6701  0254  2A56               	goto	u2560
  6702  0255                     u2561:
  6703  0255  2A39               	goto	l30001191
  6704  0256                     u2560:
  6705                           	
  6706  0256                     l30001195:	
  6707                           	line	27
  6708  0256  0871               	movf	(___awmod@sign),w
  6709  0257  1D03               	skipz
  6710  0258  2A5A               	goto	u2570
  6711  0259  2A5F               	goto	l30001197
  6712  025A                     u2570:
  6713                           	
  6714  025A                     l30001196:	
  6715                           	line	28
  6716  025A  09F3               	comf	(___awmod@dividend),f
  6717  025B  09F4               	comf	(___awmod@dividend+1),f
  6718  025C  0AF3               	incf	(___awmod@dividend),f
  6719  025D  1903               	skipnz
  6720  025E  0AF4               	incf	(___awmod@dividend+1),f
  6721                           	
  6722  025F                     l30001197:	
  6723                           	line	29
  6724  025F  0874               	movf	(___awmod@dividend+1),w
  6725  0260  01F4               	clrf	(?___awmod+1)
  6726  0261  07F4               	addwf	(?___awmod+1)
  6727  0262  0873               	movf	(___awmod@dividend),w
  6728  0263  01F3               	clrf	(?___awmod)
  6729  0264  07F3               	addwf	(?___awmod)
  6730                           
  6731                           	
  6732  0265                     l462:	
  6733  0265  0008               	return
  6734                           	opt stack 0
  6735                           GLOBAL	__end_of___awmod
  6736  0266                     	__end_of___awmod:
  6737                           ; =============== function ___awmod ends ============
  6738                           
  6739                           psect	text51,local,class=CODE,delta=2
  6740                           global __ptext51
  6741  0045                     __ptext51:
  6742                           	line	30
  6743                           	signat	___awmod,8314
  6744                           	global	_data
  6745                           
  6746                           ; *************** function _data *****************
  6747                           ; Defined at:
  6748                           ;		line 64 in file "C:\Users\gowth\Documents\PIC Programs\LCD\ATM\ATM.c"
  6749                           ; Parameters:    Size  Location     Type
  6750                           ;  data            1    wreg     unsigned char 
  6751                           ; Auto vars:     Size  Location     Type
  6752                           ;  data            1    2[COMMON] unsigned char 
  6753                           ; Return value:  Size  Location     Type
  6754                           ;		None               void
  6755                           ; Registers used:
  6756                           ;		wreg, status,2, status,0, pclath, cstack
  6757                           ; Tracked objects:
  6758                           ;		On entry : 0/0
  6759                           ;		On exit  : 0/0
  6760                           ;		Unchanged: 0/0
  6761                           ; Data sizes:     COMMON   BANK0   BANK1   BANK3   BANK2
  6762                           ;      Locals:         1       0       0       0       0
  6763                           ;      Temp:     0
  6764                           ;      Total:    1
  6765                           ; This function calls:
  6766                           ;		_pulse
  6767                           ; This function is called by:
  6768                           ;		_string
  6769                           ;		_main
  6770                           ; This function uses a non-reentrant model
  6771                           ; 
  6772                           psect	text51
  6773                           	file	"C:\Users\gowth\Documents\PIC Programs\LCD\ATM\ATM.c"
  6774                           	line	64
  6775                           	global	__size_of_data
  6776  000C                     	__size_of_data	equ	__end_of_data-_data
  6777                           ;ATM.c: 63: void data(char data)
  6778                           ;ATM.c: 64: {
  6779                           	
  6780  0045                     _data:	
  6781                           	opt stack 5
  6782                           ; Regs used in _data: [wreg+status,2+status,0+pclath+cstack]
  6783                           ;data@data stored from wreg
  6784  0045  00F2               	movwf	(data@data)
  6785                           	
  6786  0046                     l30001199:	
  6787                           	line	65
  6788                           ;ATM.c: 65: RE0=1;
  6789  0046  1283               	bcf	status, 5	;RP0=0, select bank0
  6790  0047  1303               	bcf	status, 6	;RP1=0, select bank0
  6791  0048  1409               	bsf	(72/8),(72)&7
  6792                           	
  6793  0049                     l30001200:	
  6794                           	line	66
  6795                           ;ATM.c: 66: PORTD=data;
  6796  0049  0872               	movf	(data@data),w
  6797  004A  0088               	movwf	(8)	;volatile
  6798                           	
  6799  004B                     l30001201:	
  6800                           	line	67
  6801                           ;ATM.c: 67: pulse();
  6802  004B  120A  118A  2171   	fcall	_pulse
              120A  118A         
  6803                           	
  6804  0050                     l7:	
  6805  0050  0008               	return
  6806                           	opt stack 0
  6807                           GLOBAL	__end_of_data
  6808  0051                     	__end_of_data:
  6809                           ; =============== function _data ends ============
  6810                           
  6811                           psect	text52,local,class=CODE,delta=2
  6812                           global __ptext52
  6813  0171                     __ptext52:
  6814                           	line	68
  6815                           	signat	_data,4216
  6816                           	global	_pulse
  6817                           
  6818                           ; *************** function _pulse *****************
  6819                           ; Defined at:
  6820                           ;		line 49 in file "C:\Users\gowth\Documents\PIC Programs\LCD\ATM\ATM.c"
  6821                           ; Parameters:    Size  Location     Type
  6822                           ;		None
  6823                           ; Auto vars:     Size  Location     Type
  6824                           ;		None
  6825                           ; Return value:  Size  Location     Type
  6826                           ;		None               void
  6827                           ; Registers used:
  6828                           ;		wreg, status,2, status,0, pclath, cstack
  6829                           ; Tracked objects:
  6830                           ;		On entry : 0/0
  6831                           ;		On exit  : 0/0
  6832                           ;		Unchanged: 0/0
  6833                           ; Data sizes:     COMMON   BANK0   BANK1   BANK3   BANK2
  6834                           ;      Locals:         0       0       0       0       0
  6835                           ;      Temp:     0
  6836                           ;      Total:    0
  6837                           ; This function calls:
  6838                           ;		_delay
  6839                           ; This function is called by:
  6840                           ;		_command
  6841                           ;		_data
  6842                           ; This function uses a non-reentrant model
  6843                           ; 
  6844                           psect	text52
  6845                           	file	"C:\Users\gowth\Documents\PIC Programs\LCD\ATM\ATM.c"
  6846                           	line	49
  6847                           	global	__size_of_pulse
  6848  0019                     	__size_of_pulse	equ	__end_of_pulse-_pulse
  6849                           ;ATM.c: 48: void pulse()
  6850                           ;ATM.c: 49: {
  6851                           	
  6852  0171                     _pulse:	
  6853                           	opt stack 4
  6854                           ; Regs used in _pulse: [wreg+status,2+status,0+pclath+cstack]
  6855                           	line	50
  6856                           	
  6857  0171                     l30001202:	
  6858                           ;ATM.c: 50: RE1=1;
  6859  0171  1283               	bcf	status, 5	;RP0=0, select bank0
  6860  0172  1303               	bcf	status, 6	;RP1=0, select bank0
  6861  0173  1489               	bsf	(73/8),(73)&7
  6862                           	
  6863  0174                     l30001203:	
  6864                           	line	51
  6865                           ;ATM.c: 51: delay(1000);
  6866  0174  30E8               	movlw	low(03E8h)
  6867  0175  00F0               	movwf	(?_delay)
  6868  0176  3003               	movlw	high(03E8h)
  6869  0177  00F1               	movwf	((?_delay))+1
  6870  0178  120A  118A  20C4   	fcall	_delay
              120A  118A         
  6871                           	
  6872  017D                     l30001204:	
  6873                           	line	52
  6874                           ;ATM.c: 52: RE1=0;
  6875  017D  1283               	bcf	status, 5	;RP0=0, select bank0
  6876  017E  1303               	bcf	status, 6	;RP1=0, select bank0
  6877  017F  1089               	bcf	(73/8),(73)&7
  6878                           	line	53
  6879                           ;ATM.c: 53: delay(1000);
  6880  0180  30E8               	movlw	low(03E8h)
  6881  0181  00F0               	movwf	(?_delay)
  6882  0182  3003               	movlw	high(03E8h)
  6883  0183  00F1               	movwf	((?_delay))+1
  6884  0184  120A  118A  20C4   	fcall	_delay
              120A  118A         
  6885                           	
  6886  0189                     l5:	
  6887  0189  0008               	return
  6888                           	opt stack 0
  6889                           GLOBAL	__end_of_pulse
  6890  018A                     	__end_of_pulse:
  6891                           ; =============== function _pulse ends ============
  6892                           
  6893                           psect	text53,local,class=CODE,delta=2
  6894                           global __ptext53
  6895  00C4                     __ptext53:
  6896                           	line	54
  6897                           	signat	_pulse,88
  6898                           	global	_delay
  6899                           
  6900                           ; *************** function _delay *****************
  6901                           ; Defined at:
  6902                           ;		line 44 in file "C:\Users\gowth\Documents\PIC Programs\LCD\ATM\ATM.c"
  6903                           ; Parameters:    Size  Location     Type
  6904                           ;  x               2    0[COMMON] int 
  6905                           ; Auto vars:     Size  Location     Type
  6906                           ;		None
  6907                           ; Return value:  Size  Location     Type
  6908                           ;		None               void
  6909                           ; Registers used:
  6910                           ;		wreg
  6911                           ; Tracked objects:
  6912                           ;		On entry : 0/0
  6913                           ;		On exit  : 0/0
  6914                           ;		Unchanged: 0/0
  6915                           ; Data sizes:     COMMON   BANK0   BANK1   BANK3   BANK2
  6916                           ;      Locals:         2       0       0       0       0
  6917                           ;      Temp:     0
  6918                           ;      Total:    2
  6919                           ; This function calls:
  6920                           ;		Nothing
  6921                           ; This function is called by:
  6922                           ;		_pulse
  6923                           ; This function uses a non-reentrant model
  6924                           ; 
  6925                           psect	text53
  6926                           	file	"C:\Users\gowth\Documents\PIC Programs\LCD\ATM\ATM.c"
  6927                           	line	44
  6928                           	global	__size_of_delay
  6929  0011                     	__size_of_delay	equ	__end_of_delay-_delay
  6930                           ;ATM.c: 16: int var=0;
  6931                           ;ATM.c: 17: int i,j;
  6932                           ;ATM.c: 18: int balance=5000;
  6933                           ;ATM.c: 19: int withdraw;
  6934                           ;ATM.c: 23: static int count=0;
  6935                           ;ATM.c: 24: static int countkey=0;
  6936                           ;ATM.c: 25: static int countu=-1;
  6937                           ;ATM.c: 26: static int countp=-1;
  6938                           ;ATM.c: 27: static int countspecial=0;
  6939                           ;ATM.c: 28: static int countw=-1;
  6940                           ;ATM.c: 30: static int keytopwd=0;
  6941                           ;ATM.c: 32: static int count22=0;
  6942                           ;ATM.c: 33: static int count33=0;
  6943                           ;ATM.c: 34: static int count44=0;
  6944                           ;ATM.c: 35: static int count55=0;
  6945                           ;ATM.c: 37: int username[10]={1,2,3,4};
  6946                           	
  6947  00C4                     _delay:	
  6948                           	opt stack 3
  6949                           ; Regs used in _delay: [wreg]
  6950                           	
  6951  00C4                     l30001205:	
  6952                           	
  6953  00C4                     l30001206:	
  6954                           	line	45
  6955  00C4  30FF               	movlw	low(-1)
  6956  00C5  07F0               	addwf	(delay@x),f
  6957  00C6  1803               	skipnc
  6958  00C7  0AF1               	incf	(delay@x+1),f
  6959  00C8  30FF               	movlw	high(-1)
  6960  00C9  07F1               	addwf	(delay@x+1),f
  6961  00CA  30FF               	movlw	high(-1)
  6962  00CB  0671               	xorwf	((delay@x+1))&07fh,w
  6963  00CC  1D03               	skipz
  6964  00CD  28D0               	goto	u2585
  6965  00CE  30FF               	movlw	low(-1)
  6966  00CF  0670               	xorwf	((delay@x))&07fh,w
  6967  00D0                     u2585:
  6968                           
  6969  00D0  1D03               	skipz
  6970  00D1  28D3               	goto	u2581
  6971  00D2  28D4               	goto	u2580
  6972  00D3                     u2581:
  6973  00D3  28C4               	goto	l30001206
  6974  00D4                     u2580:
  6975                           	
  6976  00D4                     l1:	
  6977  00D4  0008               	return
  6978                           	opt stack 0
  6979                           GLOBAL	__end_of_delay
  6980  00D5                     	__end_of_delay:
  6981                           ; =============== function _delay ends ============
  6982                           
  6983                           psect	text54,local,class=CODE,delta=2
  6984                           global __ptext54
  6985  0003                     __ptext54:
  6986                           	line	46
  6987                           	signat	_delay,4216
  6988                           	global	btemp
  6989  007E                     	btemp set 07Eh


HI-TECH Software PICC Macro Assembler V9.70 build 5239 
Symbol Table                                                                                   Sat Mar 25 11:10:55 2023

           ___awdiv@dividend 004A                            l1 00D4                            l5 0189  
                          l6 005C                            l7 0050                            l8 01AB  
                          _i 0042                            _j 0044                            pc 0002  
             __size_of_delay 0011                           l12 07FD                           l20 0AC2  
                         _DA 04A5                           l30 0B49                           l22 0AF3  
                         _BF 04A0                           l31 0B43                           l23 0AED  
                         _DC 0019                           l50 0C28                           l42 0BCE  
                         l34 0B78                           l26 0B1E                           l51 0C22  
                         l43 0BC8                           l35 0B72                           l27 0B18  
                         l54 0C53                           l46 0BFD                           l38 0BA3  
                         l55 0C4D                           l47 0BF7                           l39 0B9D  
                         l90 0E3E                           l82 0DE4                           l74 0D8E  
                         l91 0E38                           l83 0DDE                           l75 0D88  
                         l59 0C7C                           l94 0E69                           l86 0E13  
                         l78 0DB9                           l95 0E63                           l87 0E0D  
                         l79 0DB3                           l98 0E98                           l99 0E92  
                         _PD 001B                           _RD 0C60                           _UA 04A1  
                         _TO 001C                           _RW 04A2                           _WR 0C61  
                         fsr 0004               __size_of_pulse 0019                  __pbssCOMMON 0079  
                        l102 0EC3                          l111 0F17                          l103 0EBD  
                        l200 065C                          _C1R 083A                          l201 0656  
                        l121 0FCA                          l106 0EEE                          _C2R 0842  
                        l107 0EE8                          l140 0389                          l205 0661  
                        l230 07F4                          l144 03A1                          l137 0371  
                   __delay$0 0070                          l139 038F                          l180 057D  
                        l172 0523                          l164 04CD                          l181 0577  
                        l173 051D                          l165 04C7                          l192 0602  
                        l184 05A8                          l176 0552                          l168 04F8  
                        l193 05FC                          l185 05A2                          l177 054C  
                        l169 04F2                          l196 062D                          l188 05D7  
                        l197 0627                          l189 05D1                          l462 0265  
                        l382 02D7                          l384 0286                          _CKE 04A6  
                        _CKP 00A4                          _GIE 005F                          _BOR 0470  
                        _RA0 0028                          _RA1 0029                          _RB0 0030  
                        _RA2 002A                          _RB1 0031                          _RA3 002B  
                        _RC0 0038                          _RB2 0032                          _RA4 002C  
                        _RC1 0039                          _RB3 0033                          _RA5 002D  
                        _RD0 0040                          _RC2 003A                          _RB4 0034  
                        _RA6 002E                          _RD1 0041                          _RC3 003B  
                        _RB5 0035                          _RA7 002F                          _RE0 0048  
                        _RD2 0042                          _RC4 003C                          _RB6 0036  
                        _RE1 0049                          _RD3 0043                          _RC5 003D  
                        _RB7 0037                          _RE2 004A                          _RD4 0044  
                        _RC6 003E                          _RE3 004B                          _RD5 0045  
                        _RC7 003F                          _RD6 0046                          _RD7 0047  
                        _FSR 0004                          _PCL 0002                          _PS0 0408  
                        _PR2 0092                          _PS1 0409                          _PS2 040A  
                        _PEN 048A                          _RP0 001D                          _IRP 001F  
                        _RP1 001E                          _HTS 047A                          _SR0 0C2E  
                        _SR1 0C2F                          _SEN 0488                          _SCS 0478  
                        _PSA 040B                          _LTS 0479                          _VR0 04B8  
                        _VR1 04B9                          _VR2 04BA                          _VR3 04BB  
                        _POR 0471                          _RX9 00C6                          _SMP 04A7  
                        _TX9 04C6                          _WUE 0C39                          _VRR 04BD  
                        _var 0079                          fsr0 0004                          indf 0000  
           __size_of___awdiv 0072             __size_of___awmod 0060              __size_of_string 0022  
                    ??_delay 0070                         _C1IE 046D                         _C1IF 006D  
                       _C2IE 046E                         _C2IF 006E                         _C1OE 083D  
                       _C2OE 0845                         _C1ON 083F                         _C2ON 0847  
                       _ADIE 0466                         _ADIF 0066                         _ADFM 04FF  
           __size_of_command 000C                         _ADON 00F8                     __ptext50 0206  
                   __ptext51 0045                     __ptext52 0171                     __ptext53 00C4  
                   __ptext54 0003                     __ptext47 018A                     __ptext48 0051  
                   __ptext49 0266                         _P1M0 00BE                         _CHS0 00FA  
                       _P1M1 00BF                         _CHS1 00FB                         _CHS2 00FC  
                       _CHS3 00FD                         _EEIE 046C                         _EEIF 006C  
                       _ANS0 0C40                         _BRG0 04C8                         STR_1 0085  
                       _ANS1 0C41                         _BRG1 04C9                         STR_2 0119  
                       _ANS2 0C42                         _BRG2 04CA                         STR_3 00E6  
                       _ANS3 0C43                         _BRG3 04CB                         STR_4 013B  
                       _ANS4 0C44                         _BRG4 04CC                         STR_5 012A  
                       _ANS5 0C45                         _BRG5 04CD                         STR_6 00D5  
                       _ANS6 0C46                         _GCEN 048F                         _BRG6 04CE  
                       STR_7 0108                         _ANS7 0C47                         _BRG7 04CF  
                       STR_8 001F                         _ANS8 0C48                         _BRG8 04D0  
                       STR_9 0077                         _ANS9 0C49                         _BRG9 04D1  
                       _BRGH 04C2                         _T0IE 005D                         _T0IF 005A  
                       _CREN 00C4                         _T0CS 040D                         _FERR 00C2  
                       _PDC0 04D8                         _PDC1 04D9                         u3000 0D67  
                       _PDC2 04DA                         u3001 0D66                         _PDC3 04DB  
                       u3010 0D8E                         _PDC4 04DC                         u3011 0D8D  
                       _T0SE 040C                         _PDC5 04DD                         _CSRC 04C7  
                       u3100 0E42                         u3020 0D92                         _PDC6 04DE  
                       _IOCB 0096                         u3101 0E41                         u3021 0D91  
                       u3110 0E69                         u3030 0DB9                         _INDF 0000  
                       u3111 0E68                         u3031 0DB8                         u3200 0F24  
                       u3120 0E71                         u3040 0DBD                         u3201 0F23  
                       u3121 0E70                         u3041 0DBC                         u3210 0F38  
                       u3130 0E98                         u3050 0DE4                      ??_pulse 0070  
                       u3211 0F37                         u3131 0E97                         u3051 0DE3  
                       u2500 021B                         u3300 0344                         u3220 0F56  
                       u3140 0E9C                         u3060 0DEC                         u2501 021A  
                       u3301 0343                         u3221 0F55                         u3141 0E9B  
                       u3061 0DEB                         u2510 0226                         u3310 0371  
                       u3230 0F68                         u3150 0EC3                         u3070 0E13  
                       u2511 0225                         u3311 0370                         u3231 0F67  
                       u3151 0EC2                         u3071 0E12                         u2600 027D  
                       u3400 0454                         u3320 037B                         u3240 0F7A  
                       u3160 0EC7                         u3080 0E17                         u2601 027C  
                       u3401 0453                         u3321 037A                         u3305 0340  
                       u3241 0F79                         u3225 0F52                         u3161 0EC6  
                       u3081 0E16                         u2530 0239                         u2610 0290  
                       u3410 0487                         u3330 038F                         u3250 0F8C  
                       u3170 0EEE                         u3090 0E3E                         u2531 0238  
                       u2611 028F                         u3411 0486                         u3331 038E  
                       u3315 036D                         u3251 0F8B                         u3235 0F64  
                       u3171 0EED                         u3091 0E3D                         u2540 0243  
                       u2380 01AB                         u3500 0556                         u3420 04A6  
                       u3340 0393                         u3260 0FC3                         u3180 0EF6  
                       u2700 0A8C                         u2541 0242                         u2525 022B  
                       u2381 01AA                         u3501 0555                         u3421 04A5  
                       u3405 0450                         u3341 0392                         u3261 0FC2  
                       u3245 0F76                         u3181 0EF5                         u2701 0A8B  
                       u2630 02A3                         u3510 057D                         u3430 04CD  
                       u3350 03A7                         u3270 0FD0                         u3190 0F1D  
                       u2710 0AA5                         u2631 02A2                         u3511 057C  
                       u3431 04CC                         u3415 0483                         u3351 03A6  
                       u3271 0FCF                         u3255 0F88                         u3191 0F1C  
                       u2711 0AA4                         _PIE1 008C                         u2560 0256  
                       u3600 0635                         u3520 0581                         u3440 04D1  
                       u3360 03B4                         u3280 02D8                         u2800 0B7C  
                       u2720 0ACC                         _PIE2 008D                         u2561 0255  
                       u2545 023F                         u2625 0295                         u3601 0634  
                       u3521 0580                         u3441 04D0                         u3361 03B3  
                       u3281 0FFF                         u3265 0FBF                         u2801 0B7B  
                       u2721 0ACB                         u2570 025A                         u2490 020F  
                       u2650 02B4                         u3610 065C                         u3530 05A8  
                       u3450 04F8                         u3370 03BD                         u3290 030B  
                       u2810 0BA3                         u2730 0AF3                         u2555 024A  
                       u2491 020E                         u2651 02B3                         u3611 065B  
                       u3531 05A7                         u3451 04F7                         u3371 03BC  
                       u3291 030A                         u2811 0BA2                         u2731 0AF2  
                       u2580 00D4                         u3700 06FA                         u3620 0660  
                       u3540 05B0                         u3460 04FC                         u3380 03DF  
                       u2900 0C5B                         u2820 0BA7                         u2740 0AF7  
                       u2581 00D3                         u2645 02A4                         u3701 06F9  
                       u3621 065F                         u3541 05AF                         u3461 04FB  
                       u3381 03DE                         u3365 03B0                         u3285 0FFA  
                       u2901 0C5A                         u2821 0BA6                         u2741 0AF6  
                       u2670 02C8                         u2590 0271                         u3710 0740  
                       u3630 0665                         u3550 05D7                         u3470 0523  
                       u3390 0412                         u2910 0C82                         u2830 0BCE  
                       u2750 0B1E                         u2671 02C7                         u2655 02B0  
                       u2591 0270                         u3711 073F                         u3631 0664  
                       u3551 05D6                         u3471 0522                         u3391 0411  
                       u3295 0307                         u2911 0C81                         u2831 0BCD  
                       u2751 0B1D                         u2680 02CC                         u3720 0749  
                       u3640 06A4                         u3560 05DB                         u3480 052B  
                       u2920 0C8B                         u2840 0BD6                         u2760 0B22  
                       u2585 00D0                         u2665 02BC                         u3721 0748  
                       u3705 06F6                         u3641 06A3                         u3561 05DA  
                       u3481 052A                         u3385 03DB                         u2921 0C8A  
                       u2841 0BD5                         u2761 0B21                         u3730 076B  
                       u3650 06CE                         u3570 0602                         u3490 0552  
                       u2930 0CA1                         u2850 0BFD                         u2770 0B49  
                       u2690 0A75                         u3731 076A                         u3715 073C  
                       u3651 06CD                         u3571 0601                         u3491 0551  
                       u3395 040E                         u2931 0C9E                         u2851 0BFC  
                       u2771 0B48                         u2691 0A74                         _PEIE 005E  
                       u3740 07BF                         u3660 06D7                         u3580 0606  
                       u2940 0CC1                         u2860 0C01                         u2780 0B51  
                       u3741 07BE                         u3661 06D6                         u3645 06A0  
                       u3581 0605                         u2941 0CBE                         u2861 0C00  
                       u2781 0B50                         _INTE 005C                         u3750 07ED  
                       u3670 06DD                         u3590 062D                         u2950 0CD3  
                       u2870 0C28                         u2790 0B78                         _INTF 0059  
                       u3751 07EC                         u3735 0767                         u3671 06DC  
                       u3655 06CA                         u3591 062C                         u3807 0FE4  
                       u2951 0CD2                         u2871 0C27                         u2791 0B77  
                       _RBIE 005B                         u3760 07FA                         u3680 06E3  
                       u2960 0CE5                         u2880 0C2C                         _RBIF 0058  
                       u3761 07F9                         u3745 07BB                         u3681 06E2  
                       u3817 02F1                         u2961 0CE4                         u2945 0CBB  
                       u2881 0C2B                         u3690 06ED                         u2970 0CF7  
                       u2890 0C53                         u3755 07E9                         u3907 0726  
                       u3691 06EC                         u3827 032A                         u2971 0CF6  
                       u2955 0CCF                         u2891 0C52                         _RCIE 0465  
                       u2980 0D24                         _RCEN 048B                         _RCIF 0065  
                       u3917 0751                         u3837 0357                         u2981 0D23  
                       u2965 0CE1                         u2990 0D57                         u3927 07A5  
                       u3847 03C5                         u2991 0D56                         u2975 0CF3  
                       _PCON 008E                         u3937 07D3                         u3857 03F8  
                       u2985 0D20                         u3777 0D0A                         _PIR1 000C  
                       _PIR2 000D                         u3867 043A                         u2995 0D53  
                       u3787 0D3D                         u3877 046D                         u3797 0FA9  
                       u3887 068A                         u3897 06B4                         _OERR 00C1  
           ___awdiv@quotient 0073                         _SCKP 0C3C                         _RBPU 040F  
               __pidataBANK0 000F                         _RX9D 00C0                 __pidataBANK3 01AC  
                       _TMR0 0001                         _TMR2 0011                         _WCOL 00A7  
                       _SPEN 00C7                         _RSEN 0489                         _TX9D 04C0  
                       _SREN 00C5                         _OSTS 047B                         _TUN0 0480  
                       _TUN1 0481                         _TUN2 0482                         _TUN3 0483  
                       _TUN4 0484                         _STRA 04E8                         _STRB 04E9  
                       _STRC 04EA                         _VREN 04BF                         _STRD 04EB  
                       _TRMT 04C1                         _STOP 04A4                         _TXIE 0464  
                       _ZERO 001A                         _WREN 0C62                         _TXEN 04C5  
                       _TXIF 0064                         _VROE 04BE                         _SYNC 04C4  
                       _WPUB 0095                         _VRSS 04BC                 ___awdiv@sign 0072  
                       _data 0045                     data@data 0072                         _main 099F  
                       btemp 007E                     _countkey 003E                         start 0000  
                   _keytopwd 0046          start_initialization 01D4                 ___awmod@sign 0071  
                   clear_ram 0017                     _password 0190                      ?__delay 0070  
                  string@ptr 0073                     ??__delay 0070              __end_of___awdiv 02D8  
            __end_of___awmod 0266                    stringcode 0908                      _CM1CON0 0107  
                    _CM2CON0 0108                      _CCP1CON 0017                      _CM2CON1 0109  
                    _CCP2CON 001D                      _ACKSTAT 048E                      _BAUDCTL 0187  
                    _ECCPAS0 04E4                      _ECCPAS1 04E5                      _ECCPAS2 04E6  
                    _ECCPASE 04E7                        _C1CH0 0838                        _C1CH1 0839  
                      _C2CH0 0840                        _C2CH1 0841                        _DC1B0 00BC  
                      _DC1B1 00BD                        _C1SEN 0C2D                        ?_data 0073  
                      _C2REN 0C2C                        _C1POL 083C                        _C2POL 0844  
                      _C1OUT 083E                        _C2OUT 0846                        _ABDEN 0C38  
                      _ADCS0 00FE                        _ADCS1 00FF                        _ADDEN 00C3  
                      ?_main 0079                        _ACKEN 048C                        _ACKDT 048D  
                      _BCLIE 046B                        _BCLIF 006B                        _CCP2X 00ED  
                      _CCP2Y 00EC                        _EEADR 010D                        STR_10 014C  
                      _ANS10 0C4A                        _EEDAT 010C                        _BRG10 04D2  
                      STR_11 00A3                        _ANS11 0C4B                        _BRG11 04D3  
                      STR_12 0027                        STR_20 0094                        _ANS12 0C4C  
                      _BRG12 04D4                        STR_13 005D                        _ANS13 0C4D  
                      _BRG13 04D5                        STR_14 0030                        _BRG14 04D6  
                      STR_15 003A                        _BRG15 04D7                        STR_16 00F7  
                      _BRG16 0C3B                        STR_17 015D                        STR_18 0069  
                      STR_19 00AB                __end_of_delay 00D5                        _CARRY 0018  
                   _withdraw 0048                        _EEPGD 0C67                        _ANSEL 0188  
                      _T1CON 0010                        _IOCB0 04B0                        _T2CON 0012  
                      _IOCB1 04B1                        _IOCB2 04B2                        _IOCB3 04B3  
                      _IOCB4 04B4                        _IOCB5 04B5                        _IOCB6 04B6  
                      _IOCB7 04B7                     _username 01A4                        _T1GSS 0849  
                    _T1CKPS0 0084                      _T1CKPS1 0085                        _IRCF0 047C  
                      _IRCF1 047D                        _IRCF2 047E                      ?_string 0073  
                    _T2CKPS0 0090                      _T2CKPS1 0091                        _RABIE 005B  
                      _RABIF 0058                        _RABPU 040F              __end_of_command 005D  
                      _RCIDL 0C3E                        _FVREN 0C28                        _VCFG0 04FC  
                      _VCFG1 04FD                        _RCREG 001A                        _SENDB 04C3  
                      _RCSTA 0018                     ??_string 0070                        _OSFIE 046F  
                      _OSFIF 006F                        _TMR1H 000F                        _TMR1L 000E  
                      _SPBRG 0099                        _PORTA 0005                        _PORTB 0006  
                    _T1OSCEN 0083                        _PORTC 0007                        _PORTD 0008  
                      _PORTE 0009                        _PRSEN 04DF                        _SRCON 0185  
              __end_of_pulse 018A                        _START 04A3                        _PULSR 0C2A  
                      _PULSS 0C2B                        _SSPM0 00A0                        _SSPM1 00A1  
                      _SSPM2 00A2                        _SSPM3 00A3                        _TRISA 0085  
                      _TRISB 0086                        _TRISC 0087                        _TRISD 0088  
                      _SSPIE 0463                        _TRISE 0089                        _SSPIF 0063  
                      _SSPEN 00A5                        _VRCON 0097                        _WPUB0 04A8  
                      _WPUB1 04A9                        _WPUB2 04AA                        _WPUB3 04AB  
                      _WPUB4 04AC                        _SSPOV 00A6                        _WPUB5 04AD  
                      _WPUB6 04AE                        _WPUB7 04AF                        _WRERR 0C63  
                      _TXREG 0019                        _TXSTA 0098                    __pstrings 0900  
             __pcstackCOMMON 0070                      _OSCTUNE 0090                      _PWM1CON 009B  
                      _delay 00C4                        _count 0034                      _PSTRCON 009D  
                    _SSPCON2 0091                 _countspecial 0040                        _wdraw 0020  
                      _pulse 0171                        main@l 0054                        main@m 0056  
                      main@n 0052                        main@o 0058                        main@p 004E  
                      main@q 0050                      _ULPWUIE 046A                      _ULPWUIF 006A  
                    _SSPSTAT 0094                      _TOUTPS0 0093                      _TOUTPS1 0094  
                    _TOUTPS2 0095                      _TOUTPS3 0096                      _STRSYNC 04EC  
                      pclath 000A                        status 0003                    _inputpass 00A0  
                  _inputuser 00C8              ___awdiv@divisor 004C                __size_of_data 000C  
              __size_of_main FE61                   __pbssBANK0 0020                   __pbssBANK1 00A0  
                   l30001200 0049                     l30001201 004B                     l30001202 0171  
                   l30001203 0174                     l30001204 017D                     l30001220 0294  
                   l30001205 00C4                     l30001221 029B                     l30001213 0266  
                   l30001301 0D06              ___awdiv@counter 0071                     l30001206 00C4  
                   l30001230 02D1                     l30001222 029F                     l30001214 026B  
                   l30001310 0D60                     l30001302 0D24                     l30001223 02A3  
                   l30001215 0271                     l30001311 0D61                     l30001303 0D2A  
                   l30001224 02B4                     l30001216 0279                     l30001160 0055  
                   l30001400 0412                     l30001320 0DBD                     l30001312 0D62  
                   l30001304 0D33                     l30001240 0A5A                     l30001232 099F  
                   l30001225 02BA                     l30001217 027D                     l30001161 0057  
                   l30001401 0418                     l30001321 0DCD                     l30001313 0D63  
                   l30001241 0A61                     l30001233 0A2C                     l30001226 02BB  
                   l30001218 0282                     l30001402 0421                     l30001330 0E52  
                   l30001322 0DD8                     l30001314 0D67                     l30001250 0A9E  
                   l30001242 0A67                     l30001234 0A33                     l30001227 02C2  
                   l30001219 0290                     l30001155 018A                     l30001403 0430  
                   l30001331 0E5D                     l30001323 0DEC                     l30001315 0D77  
                   l30001307 0D39                     l30001251 0A9F                     l30001243 0A6D  
                   l30001235 0A3A                     l30001228 02C8                     l30001156 018B  
                   l30001420 04A2                     l30001412 0469                     l30001340 0EE2  
                   l30001332 0E71                     l30001324 0DFC                     l30001316 0D82  
                   l30001308 0D57                     l30001260 0AE7                     l30001252 0AA0  
                   l30001244 0A75                     l30001236 0A41                     l30001181 0206  
                   l30001229 02CC                     l30001157 0198                     l30001421 04A6  
                   l30001413 0487                     l30001341 0EF6                     l30001333 0E81  
                   l30001325 0E07                     l30001317 0D92                     l30001309 0D5D  
                   l30001261 0AF7                     l30001253 0AA1                     l30001245 0A7B  
                   l30001237 0A48                     l30001190 0235                     l30001182 020B  
                   l30001158 019E                     l30001430 052B                     l30001422 04B6  
                   l30001414 048D                     l30001406 0436                     l30001350 0F56  
                   l30001342 0F06                     l30001334 0E8C                     l30001326 0E17  
                   l30001318 0DA2                     l30001270 0B7C                     l30001262 0B07  
                   l30001254 0AA5                     l30001246 0A84                     l30001238 0A4F  
                   l30001191 0239                     l30001183 020F                     l30001159 0052  
                   l30001431 053B                     l30001423 04C1                     l30001415 0496  
                   l30001407 0454                     l30001351 0F68                     l30001343 0F11  
                   l30001335 0E9C                     l30001327 0E27                     l30001319 0DAD  
                   l30001271 0B8C                     l30001263 0B12                     l30001255 0AAB  
                   l30001247 0A8C                     l30001239 0A56                     l30001192 0243  
                   l30001184 0217                     l30001440 05C0                     l30001432 0546  
                   l30001424 04D1                     l30001416 049C                     l30001408 045A  
                   l30001352 0F7A                     l30001344 0F1D                     l30001336 0EAC  
                   l30001328 0E32                     l30001280 0C11                     l30001272 0B97  
                   l30001264 0B22                     l30001256 0AB3                     l30001248 0A92  
                   l30001193 0249                     l30001185 021B                     l30001441 05CB  
                   l30001433 0556                     l30001425 04E1                     l30001417 049F  
                   l30001409 0463                     l30001361 0FD1                     l30001353 0F8C  
                   l30001345 0F24                     l30001337 0EB7                     l30001329 0E42  
                   l30001281 0C1C                     l30001273 0BA7                     l30001265 0B32  
                   l30001257 0ABC                     l30001249 0A9B                     l30001194 0250  
                   l30001186 0220                     l30001450 0650                     l30001442 05DB  
                   l30001434 0566                     l30001426 04EC                     l30001418 04A0  
                   l30001362 0FDA                     l30001354 0F96                     l30001346 0F30  
                   l30001338 0EC7                     l30001290 0C97                     l30001282 0C2C  
                   l30001274 0BB7                     l30001266 0B3D                     l30001258 0ACC  
                   l30001187 0226                     l30001195 0256                     l30001443 05EB  
                   l30001435 0571                     l30001427 04FC                     l30001419 04A1  
                   l30001371 02ED                     l30001347 0F38                     l30001355 0F9F  
                   l30001339 0ED7                     l30001291 0CA1                     l30001283 0C3C  
                   l30001275 0BC2                     l30001267 0B51                     l30001259 0ADC  
                   l30001196 025A                     l30001188 022A                     l30001460 068F  
                   l30001444 05F6                     l30001436 0581                     l30001428 050C  
                   l30001380 034D                     l30001372 030B                     l30001348 0F3E  
                   l30001292 0CA7                     l30001284 0C47                     l30001276 0BD6  
                   l30001268 0B61                     l30001197 025F                     l30001189 0231  
                   l30001461 0697                     l30001453 0666                     l30001445 0606  
                   l30001437 0591                     l30001429 0517                     l30001373 0311  
                   l30001365 0FE0                     l30001349 0F44                     l30001293 0CAD  
                   l30001285 0C5B                     l30001277 0BE6                     l30001269 0B6C  
                   l30001470 06E3                     l30001462 06A4                     l30001454 066C  
                   l30001446 0616                     l30001438 059C                     l30001390 03B4  
                   l30001374 031A                     l30001366 02D8                     l30001358 0FA5  
                   l30001294 0CC1                     l30001286 0C6B                     l30001278 0BF1  
                   l30001199 0046                     l30001471 06ED                     l30001463 06AA  
                   l30001447 0621                     l30001439 05B0                     l30001391 03BD  
                   l30001383 0353                     l30001375 0320                     l30001367 02DE  
                   l30001359 0FC3                     l30001295 0CD3                     l30001287 0C76  
                   l30001279 0C01                     l30001472 06FA                     l30001448 0635  
                   l30001480 0740                     l30001384 037B                     l30001368 02E7  
                   l30001296 0CE5                     l30001288 0C82                     l30001481 0749  
                   l30001473 0704                     l30001457 0672                     l30001449 0645  
                   l30001393 03C1                     l30001385 0383                     l30001297 0CF7  
                   l30001289 0C8B                     l30001474 070D                     l30001466 06B0  
                   l30001458 067F                     l30001394 03DF                     l30001386 0393  
                   l30001378 0326                     l30001298 0D00                     l30001490 07C9  
                   l30001483 074D                     l30001475 0713                     l30001467 06CE  
                   l30001459 0686                     l30001395 03E5                     l30001387 039B  
                   l30001379 0344                     l30001484 076B                     l30001476 071C  
                   l30001468 06D7                     l30001396 03EE                     l30001388 03A7  
                   l30001493 07CF                     l30001485 079B                     l30001469 06DD  
                   l30001494 07ED                     l30001479 0722                     l30001399 03F4  
                   l30001488 07A1                     l30001489 07C0                  __stringbase 090B  
                    ___awdiv 0266                      ___awmod 0206                     ?___awdiv 004A  
                   ?___awmod 0073                      _balance 005A                    ??___awdiv 0070  
                  ??___awmod 0070                       ??_data 0070                       ??_main 0077  
                command@data 0072                      _command 0051                      _count22 0036  
                    _count33 0038                      _count44 003A                      _count55 003C  
                   ?_command 0073                   __pmaintext 099F                    ??_command 0070  
                     _C1RSEL 084D                       _C2RSEL 084C                       ?_delay 0070  
                   stringdir 090A                       _C2SYNC 0848                     stringtab 0900  
                     _ADCON0 001F                       _ADCON1 009F                       _ABDOVF 0C3F  
                     _CCP1M0 00B8                       _CCP1M1 00B9                       _CCP1M2 00BA  
                     _CCP1M3 00BB                       _CCP2M0 00E8                       _CCP2M1 00E9  
                     _CCP2M2 00EA                       _CCP2M3 00EB                       _CCP1IE 0462  
                     _CCP1IF 0062                       _CCP2IE 0468                       _CCP2IF 0068  
                     _ADRESH 001E                       _EEADRH 010F                       _ADRESL 009E  
                     _EEADRL 010D                       _EEDATA 010C                       _ECCPAS 009C  
                     _CCPR1H 0016                       _EEDATH 010E                       _CCPR2H 001C  
                     _CCPR1L 0015                       _CCPR2L 001B                       _EECON1 018C  
                     _EECON2 018D                 __end_of_data 0051                       ?_pulse 0072  
                     _ANSELH 0189                       _MC1OUT 084F                       _MC2OUT 084E  
               __end_of_main 0800                       _T1GINV 0087                       _GODONE 00F9  
       end_of_initialization 0202                       _T1SYNC 0082                       _INTEDG 040E  
                     _PCLATH 000A                       _INTCON 000B                __pcstackBANK0 004A  
                     _SBOREN 0474                       _OSCCON 008F                       _TMR1GE 0086  
                     _TMR1IE 0460                       _TMR1IF 0060                       _TMR1CS 0081  
                     _TMR2IE 0461                       _TMR2IF 0061                       _PSSAC0 04E2  
                     _PSSAC1 04E3                       _PSSBD0 04E0                       _PSSBD1 04E1  
                     _SPBRGH 009A                       _OPTION 0081                       _TMR1ON 0080  
                     _TMR2ON 0092                       _WDTCON 0105                       _WDTPS0 0829  
                     _WDTPS1 082A                       _WDTPS2 082B                       _WDTPS3 082C  
                     _SSPADD 0093                       _TRISA0 0428                       _TRISA1 0429  
                     _TRISB0 0430                       _TRISA2 042A                       _TRISB1 0431  
                     _TRISA3 042B                       _TRISC0 0438                       _TRISB2 0432  
                     _TRISA4 042C                       _TRISC1 0439                       _TRISB3 0433  
                     _TRISA5 042D                       _TRISD0 0440                       _TRISC2 043A  
                     _TRISB4 0434                       _TRISA6 042E                       _TRISD1 0441  
                     _TRISC3 043B                       _TRISB5 0435                       _TRISA7 042F  
                     _TRISE0 0448                       _TRISD2 0442                       _TRISC4 043C  
                     _TRISB6 0436                       _TRISE1 0449                       _TRISD3 0443  
                     _TRISC5 043D                       _TRISB7 0437                       _TRISE2 044A  
                     _TRISD4 0444                       _TRISC6 043E                       _TRISE3 044B  
                     _TRISD5 0445                       _TRISC7 043F                       _TRISD6 0446  
                     _TRISD7 0447                       _STATUS 0003                       _SSPCON 0014  
                     _SSPBUF 0013                      init_ram 00B7                       _SWDTEN 0828  
                     _ULPWUE 0475                       _SSPMSK 0093               __end_of_string 01AC  
             __pstringtext10 00A3               __pstringtext11 0085               __pstringtext20 0003  
             __pstringtext12 0094               __pstringtext13 0069               __pstringtext14 0077  
             __pstringtext15 005D               __pstringtext16 003A               __pstringtext17 0030  
             __pstringtext18 0027               __pstringtext19 001F                       _countp 005C  
                     _countu 005E                       _countw 0060                       delay@x 0070  
                  init_fetch 00B3                       clrloop 0018                       _string 018A  
              __pstringtext1 015D                __pstringtext2 013B                __pstringtext3 00F7  
              __pstringtext4 014C                __pstringtext5 00E6                __pstringtext6 0108  
              __pstringtext7 00D5                __pstringtext8 0119                __pstringtext9 012A  
           ___awmod@dividend 0073                  __pdataBANK0 005A                  __pdataBANK3 0190  
            ___awmod@divisor 0075              ___awmod@counter 0072  
