

HI-TECH Software PIC LITE Macro Assembler V9.70 build 5239 
                                                                                               Wed Apr 12 21:07:49 2023

HI-TECH Software Omniscient Code Generator (Lite mode) build 5239
     1  0000                     opt subtitle "HI-TECH Software Omniscient Code Generator (Lite mode) build 5239"
     2                           
     3                           opt pagewidth 120
     4                           
     5                           	opt lm
     6                           
     7                           	processor	16F887
     8                           clrc	macro
     9                           	bcf	3,0
    10  0000                     	endm
    11                           clrz	macro
    12                           	bcf	3,2
    13  0000                     	endm
    14                           setc	macro
    15                           	bsf	3,0
    16  0000                     	endm
    17                           setz	macro
    18                           	bsf	3,2
    19  0000                     	endm
    20                           skipc	macro
    21                           	btfss	3,0
    22  0000                     	endm
    23                           skipz	macro
    24                           	btfss	3,2
    25  0000                     	endm
    26                           skipnc	macro
    27                           	btfsc	3,0
    28  0000                     	endm
    29                           skipnz	macro
    30                           	btfsc	3,2
    31  0000                     	endm
    32  0000                     indf	equ	0
    33  0000                     indf0	equ	0
    34  0002                     pc	equ	2
    35  0002                     pcl	equ	2
    36  0003                     status	equ	3
    37  0004                     fsr	equ	4
    38  0004                     fsr0	equ	4
    39  0001                     c	equ	1
    40  0000                     z	equ	0
    41  000A                     pclath	equ	10
    42                           ;BANK0:	_main->_voltage
    43                           ;COMMON:	_voltage->___awtoft
    44                           ;COMMON:	___awtoft->___ftpack
    45                           ;BANK0:	___awtoft->___ftpack
    46                           ;BANK0:	_voltage->___ftdiv
    47                           ;BANK0:	___ftdiv->___ftmul
    48                           ;COMMON:	___ftmul->___awtoft
    49                           ;COMMON:	___awtoft->___ftpack
    50                           ;BANK0:	___awtoft->___ftpack
    51                           ;BANK0:	___ftmul->___awtoft
    52                           ;COMMON:	___awtoft->___ftpack
    53                           ;BANK0:	___awtoft->___ftpack
    54                           ;COMMON:	___ftdiv->___awtoft
    55                           ;COMMON:	___awtoft->___ftpack
    56                           ;BANK0:	___awtoft->___ftpack
    57                           ;BANK1:	_main->_temperature
    58                           ;COMMON:	_temperature->___awtoft
    59                           ;COMMON:	___awtoft->___ftpack
    60                           ;BANK0:	___awtoft->___ftpack
    61                           ;BANK0:	_temperature->___ftdiv
    62                           ;BANK0:	___ftdiv->___ftmul
    63                           ;COMMON:	___ftmul->___awtoft
    64                           ;COMMON:	___awtoft->___ftpack
    65                           ;BANK0:	___awtoft->___ftpack
    66                           ;BANK0:	___ftmul->___awtoft
    67                           ;COMMON:	___awtoft->___ftpack
    68                           ;BANK0:	___awtoft->___ftpack
    69                           ;COMMON:	___ftdiv->___awtoft
    70                           ;COMMON:	___awtoft->___ftpack
    71                           ;BANK0:	___awtoft->___ftpack
    72                           	FNCALL	_main,_command
    73                           	FNCALL	_main,_adc
    74                           	FNCALL	_main,_voltage
    75                           	FNCALL	_main,_temperature
    76                           	FNCALL	_voltage,_command
    77                           	FNCALL	_voltage,___awtoft
    78                           	FNCALL	_voltage,___ftmul
    79                           	FNCALL	_voltage,___ftdiv
    80                           	FNCALL	_voltage,___ftadd
    81                           	FNCALL	_voltage,___fttol
    82                           	FNCALL	_voltage,___awdiv
    83                           	FNCALL	_voltage,___awmod
    84                           	FNCALL	_voltage,_data
    85                           	FNCALL	_voltage,___ftneg
    86                           	FNCALL	_adc,_count
    87                           	FNCALL	_temperature,___awtoft
    88                           	FNCALL	_temperature,___ftmul
    89                           	FNCALL	_temperature,___ftdiv
    90                           	FNCALL	_temperature,___ftadd
    91                           	FNCALL	_temperature,___fttol
    92                           	FNCALL	_temperature,___awdiv
    93                           	FNCALL	_temperature,___awmod
    94                           	FNCALL	_temperature,_command
    95                           	FNCALL	_temperature,_data
    96                           	FNCALL	_temperature,___ftneg
    97                           	FNCALL	___ftdiv,___ftpack
    98                           	FNCALL	___ftmul,___ftpack
    99                           	FNCALL	___awtoft,___ftpack
   100                           	FNCALL	___ftadd,___ftpack
   101                           	FNCALL	_count,___awdiv
   102                           	FNCALL	_count,___awmod
   103                           	FNCALL	_count,_command
   104                           	FNCALL	_count,_data
   105                           	FNCALL	_command,_pulse
   106                           	FNCALL	_data,_pulse
   107                           	FNCALL	_pulse,_delay
   108                           	FNROOT	_main
   109                           	global	_k1
   110                           	global	_k2
   111                           	global	_DV
   112                           	global	_high
   113                           	global	_low
   114                           	global	_ADCON0
   115                           psect	text124,local,class=CODE,delta=2
   116                           global __ptext124
   117  0003                     __ptext124:
   118  001F                     _ADCON0  equ     31
   119                           	global	_ADRESH
   120  001E                     _ADRESH  equ     30
   121                           	global	_CCP1CON
   122  0017                     _CCP1CON  equ     23
   123                           	global	_CCP2CON
   124  001D                     _CCP2CON  equ     29
   125                           	global	_CCPR1H
   126  0016                     _CCPR1H  equ     22
   127                           	global	_CCPR1L
   128  0015                     _CCPR1L  equ     21
   129                           	global	_CCPR2H
   130  001C                     _CCPR2H  equ     28
   131                           	global	_CCPR2L
   132  001B                     _CCPR2L  equ     27
   133                           	global	_FSR
   134  0004                     _FSR  equ     4
   135                           	global	_INDF
   136  0000                     _INDF  equ     0
   137                           	global	_INTCON
   138  000B                     _INTCON  equ     11
   139                           	global	_PCL
   140  0002                     _PCL  equ     2
   141                           	global	_PCLATH
   142  000A                     _PCLATH  equ     10
   143                           	global	_PIR1
   144  000C                     _PIR1  equ     12
   145                           	global	_PIR2
   146  000D                     _PIR2  equ     13
   147                           	global	_PORTA
   148  0005                     _PORTA  equ     5
   149                           	global	_PORTB
   150  0006                     _PORTB  equ     6
   151                           	global	_PORTC
   152  0007                     _PORTC  equ     7
   153                           	global	_PORTD
   154  0008                     _PORTD  equ     8
   155                           	global	_PORTE
   156  0009                     _PORTE  equ     9
   157                           	global	_RCREG
   158  001A                     _RCREG  equ     26
   159                           	global	_RCSTA
   160  0018                     _RCSTA  equ     24
   161                           	global	_SSPBUF
   162  0013                     _SSPBUF  equ     19
   163                           	global	_SSPCON
   164  0014                     _SSPCON  equ     20
   165                           	global	_STATUS
   166  0003                     _STATUS  equ     3
   167                           	global	_T1CON
   168  0010                     _T1CON  equ     16
   169                           	global	_T2CON
   170  0012                     _T2CON  equ     18
   171                           	global	_TMR0
   172  0001                     _TMR0  equ     1
   173                           	global	_TMR1H
   174  000F                     _TMR1H  equ     15
   175                           	global	_TMR1L
   176  000E                     _TMR1L  equ     14
   177                           	global	_TMR2
   178  0011                     _TMR2  equ     17
   179                           	global	_TXREG
   180  0019                     _TXREG  equ     25
   181                           	global	_ADCS0
   182  00FE                     _ADCS0  equ     254
   183                           	global	_ADCS1
   184  00FF                     _ADCS1  equ     255
   185                           	global	_ADDEN
   186  00C3                     _ADDEN  equ     195
   187                           	global	_ADIF
   188  0066                     _ADIF  equ     102
   189                           	global	_ADON
   190  00F8                     _ADON  equ     248
   191                           	global	_BCLIF
   192  006B                     _BCLIF  equ     107
   193                           	global	_C1IF
   194  006D                     _C1IF  equ     109
   195                           	global	_C2IF
   196  006E                     _C2IF  equ     110
   197                           	global	_CARRY
   198  0018                     _CARRY  equ     24
   199                           	global	_CCP1IF
   200  0062                     _CCP1IF  equ     98
   201                           	global	_CCP1M0
   202  00B8                     _CCP1M0  equ     184
   203                           	global	_CCP1M1
   204  00B9                     _CCP1M1  equ     185
   205                           	global	_CCP1M2
   206  00BA                     _CCP1M2  equ     186
   207                           	global	_CCP1M3
   208  00BB                     _CCP1M3  equ     187
   209                           	global	_CCP2IF
   210  0068                     _CCP2IF  equ     104
   211                           	global	_CCP2M0
   212  00E8                     _CCP2M0  equ     232
   213                           	global	_CCP2M1
   214  00E9                     _CCP2M1  equ     233
   215                           	global	_CCP2M2
   216  00EA                     _CCP2M2  equ     234
   217                           	global	_CCP2M3
   218  00EB                     _CCP2M3  equ     235
   219                           	global	_CCP2X
   220  00ED                     _CCP2X  equ     237
   221                           	global	_CCP2Y
   222  00EC                     _CCP2Y  equ     236
   223                           	global	_CHS0
   224  00FA                     _CHS0  equ     250
   225                           	global	_CHS1
   226  00FB                     _CHS1  equ     251
   227                           	global	_CHS2
   228  00FC                     _CHS2  equ     252
   229                           	global	_CHS3
   230  00FD                     _CHS3  equ     253
   231                           	global	_CKP
   232  00A4                     _CKP  equ     164
   233                           	global	_CREN
   234  00C4                     _CREN  equ     196
   235                           	global	_DC
   236  0019                     _DC  equ     25
   237                           	global	_DC1B0
   238  00BC                     _DC1B0  equ     188
   239                           	global	_DC1B1
   240  00BD                     _DC1B1  equ     189
   241                           	global	_EEIF
   242  006C                     _EEIF  equ     108
   243                           	global	_FERR
   244  00C2                     _FERR  equ     194
   245                           	global	_GIE
   246  005F                     _GIE  equ     95
   247                           	global	_GODONE
   248  00F9                     _GODONE  equ     249
   249                           	global	_INTE
   250  005C                     _INTE  equ     92
   251                           	global	_INTF
   252  0059                     _INTF  equ     89
   253                           	global	_IRP
   254  001F                     _IRP  equ     31
   255                           	global	_OERR
   256  00C1                     _OERR  equ     193
   257                           	global	_OSFIF
   258  006F                     _OSFIF  equ     111
   259                           	global	_P1M0
   260  00BE                     _P1M0  equ     190
   261                           	global	_P1M1
   262  00BF                     _P1M1  equ     191
   263                           	global	_PD
   264  001B                     _PD  equ     27
   265                           	global	_PEIE
   266  005E                     _PEIE  equ     94
   267                           	global	_RA0
   268  0028                     _RA0  equ     40
   269                           	global	_RA1
   270  0029                     _RA1  equ     41
   271                           	global	_RA2
   272  002A                     _RA2  equ     42
   273                           	global	_RA3
   274  002B                     _RA3  equ     43
   275                           	global	_RA4
   276  002C                     _RA4  equ     44
   277                           	global	_RA5
   278  002D                     _RA5  equ     45
   279                           	global	_RA6
   280  002E                     _RA6  equ     46
   281                           	global	_RA7
   282  002F                     _RA7  equ     47
   283                           	global	_RABIE
   284  005B                     _RABIE  equ     91
   285                           	global	_RABIF
   286  0058                     _RABIF  equ     88
   287                           	global	_RB0
   288  0030                     _RB0  equ     48
   289                           	global	_RB1
   290  0031                     _RB1  equ     49
   291                           	global	_RB2
   292  0032                     _RB2  equ     50
   293                           	global	_RB3
   294  0033                     _RB3  equ     51
   295                           	global	_RB4
   296  0034                     _RB4  equ     52
   297                           	global	_RB5
   298  0035                     _RB5  equ     53
   299                           	global	_RB6
   300  0036                     _RB6  equ     54
   301                           	global	_RB7
   302  0037                     _RB7  equ     55
   303                           	global	_RBIE
   304  005B                     _RBIE  equ     91
   305                           	global	_RBIF
   306  0058                     _RBIF  equ     88
   307                           	global	_RC0
   308  0038                     _RC0  equ     56
   309                           	global	_RC1
   310  0039                     _RC1  equ     57
   311                           	global	_RC2
   312  003A                     _RC2  equ     58
   313                           	global	_RC3
   314  003B                     _RC3  equ     59
   315                           	global	_RC4
   316  003C                     _RC4  equ     60
   317                           	global	_RC5
   318  003D                     _RC5  equ     61
   319                           	global	_RC6
   320  003E                     _RC6  equ     62
   321                           	global	_RC7
   322  003F                     _RC7  equ     63
   323                           	global	_RCIF
   324  0065                     _RCIF  equ     101
   325                           	global	_RD0
   326  0040                     _RD0  equ     64
   327                           	global	_RD1
   328  0041                     _RD1  equ     65
   329                           	global	_RD2
   330  0042                     _RD2  equ     66
   331                           	global	_RD3
   332  0043                     _RD3  equ     67
   333                           	global	_RD4
   334  0044                     _RD4  equ     68
   335                           	global	_RD5
   336  0045                     _RD5  equ     69
   337                           	global	_RD6
   338  0046                     _RD6  equ     70
   339                           	global	_RD7
   340  0047                     _RD7  equ     71
   341                           	global	_RE0
   342  0048                     _RE0  equ     72
   343                           	global	_RE1
   344  0049                     _RE1  equ     73
   345                           	global	_RE2
   346  004A                     _RE2  equ     74
   347                           	global	_RE3
   348  004B                     _RE3  equ     75
   349                           	global	_RP0
   350  001D                     _RP0  equ     29
   351                           	global	_RP1
   352  001E                     _RP1  equ     30
   353                           	global	_RX9
   354  00C6                     _RX9  equ     198
   355                           	global	_RX9D
   356  00C0                     _RX9D  equ     192
   357                           	global	_SPEN
   358  00C7                     _SPEN  equ     199
   359                           	global	_SREN
   360  00C5                     _SREN  equ     197
   361                           	global	_SSPEN
   362  00A5                     _SSPEN  equ     165
   363                           	global	_SSPIF
   364  0063                     _SSPIF  equ     99
   365                           	global	_SSPM0
   366  00A0                     _SSPM0  equ     160
   367                           	global	_SSPM1
   368  00A1                     _SSPM1  equ     161
   369                           	global	_SSPM2
   370  00A2                     _SSPM2  equ     162
   371                           	global	_SSPM3
   372  00A3                     _SSPM3  equ     163
   373                           	global	_SSPOV
   374  00A6                     _SSPOV  equ     166
   375                           	global	_T0IE
   376  005D                     _T0IE  equ     93
   377                           	global	_T0IF
   378  005A                     _T0IF  equ     90
   379                           	global	_T1CKPS0
   380  0084                     _T1CKPS0  equ     132
   381                           	global	_T1CKPS1
   382  0085                     _T1CKPS1  equ     133
   383                           	global	_T1GINV
   384  0087                     _T1GINV  equ     135
   385                           	global	_T1OSCEN
   386  0083                     _T1OSCEN  equ     131
   387                           	global	_T1SYNC
   388  0082                     _T1SYNC  equ     130
   389                           	global	_T2CKPS0
   390  0090                     _T2CKPS0  equ     144
   391                           	global	_T2CKPS1
   392  0091                     _T2CKPS1  equ     145
   393                           	global	_TMR1CS
   394  0081                     _TMR1CS  equ     129
   395                           	global	_TMR1GE
   396  0086                     _TMR1GE  equ     134
   397                           	global	_TMR1IF
   398  0060                     _TMR1IF  equ     96
   399                           	global	_TMR1ON
   400  0080                     _TMR1ON  equ     128
   401                           	global	_TMR2IF
   402  0061                     _TMR2IF  equ     97
   403                           	global	_TMR2ON
   404  0092                     _TMR2ON  equ     146
   405                           	global	_TO
   406  001C                     _TO  equ     28
   407                           	global	_TOUTPS0
   408  0093                     _TOUTPS0  equ     147
   409                           	global	_TOUTPS1
   410  0094                     _TOUTPS1  equ     148
   411                           	global	_TOUTPS2
   412  0095                     _TOUTPS2  equ     149
   413                           	global	_TOUTPS3
   414  0096                     _TOUTPS3  equ     150
   415                           	global	_TXIF
   416  0064                     _TXIF  equ     100
   417                           	global	_ULPWUIF
   418  006A                     _ULPWUIF  equ     106
   419                           	global	_WCOL
   420  00A7                     _WCOL  equ     167
   421                           	global	_ZERO
   422  001A                     _ZERO  equ     26
   423                           	global	_ADCON1
   424  009F                     _ADCON1  equ     159
   425                           	global	_ADRESL
   426  009E                     _ADRESL  equ     158
   427                           	global	_ECCPAS
   428  009C                     _ECCPAS  equ     156
   429                           	global	_IOCB
   430  0096                     _IOCB  equ     150
   431                           	global	_OPTION
   432  0081                     _OPTION  equ     129
   433                           	global	_OSCCON
   434  008F                     _OSCCON  equ     143
   435                           	global	_OSCTUNE
   436  0090                     _OSCTUNE  equ     144
   437                           	global	_PCON
   438  008E                     _PCON  equ     142
   439                           	global	_PIE1
   440  008C                     _PIE1  equ     140
   441                           	global	_PIE2
   442  008D                     _PIE2  equ     141
   443                           	global	_PR2
   444  0092                     _PR2  equ     146
   445                           	global	_PSTRCON
   446  009D                     _PSTRCON  equ     157
   447                           	global	_PWM1CON
   448  009B                     _PWM1CON  equ     155
   449                           	global	_SPBRG
   450  0099                     _SPBRG  equ     153
   451                           	global	_SPBRGH
   452  009A                     _SPBRGH  equ     154
   453                           	global	_SSPADD
   454  0093                     _SSPADD  equ     147
   455                           	global	_SSPCON2
   456  0091                     _SSPCON2  equ     145
   457                           	global	_SSPMSK
   458  0093                     _SSPMSK  equ     147
   459                           	global	_SSPSTAT
   460  0094                     _SSPSTAT  equ     148
   461                           	global	_TRISA
   462  0085                     _TRISA  equ     133
   463                           	global	_TRISB
   464  0086                     _TRISB  equ     134
   465                           	global	_TRISC
   466  0087                     _TRISC  equ     135
   467                           	global	_TRISD
   468  0088                     _TRISD  equ     136
   469                           	global	_TRISE
   470  0089                     _TRISE  equ     137
   471                           	global	_TXSTA
   472  0098                     _TXSTA  equ     152
   473                           	global	_VRCON
   474  0097                     _VRCON  equ     151
   475+                          	global	_WPUB
   476+ 0095                     _WPUB  equ     149
   477                           	global	_ACKDT
   478  048D                     _ACKDT  equ     1165
   479                           	global	_ACKEN
   480  048C                     _ACKEN  equ     1164
   481                           	global	_ACKSTAT
   482  048E                     _ACKSTAT  equ     1166
   483                           	global	_ADFM
   484  04FF                     _ADFM  equ     1279
   485                           	global	_ADIE
   486  0466                     _ADIE  equ     1126
   487                           	global	_BCLIE
   488  046B                     _BCLIE  equ     1131
   489                           	global	_BF
   490  04A0                     _BF  equ     1184
   491                           	global	_BOR
   492  0470                     _BOR  equ     1136
   493                           	global	_BRG0
   494  04C8                     _BRG0  equ     1224
   495                           	global	_BRG1
   496  04C9                     _BRG1  equ     1225
   497                           	global	_BRG10
   498  04D2                     _BRG10  equ     1234
   499                           	global	_BRG11
   500  04D3                     _BRG11  equ     1235
   501                           	global	_BRG12
   502  04D4                     _BRG12  equ     1236
   503                           	global	_BRG13
   504  04D5                     _BRG13  equ     1237
   505                           	global	_BRG14
   506  04D6                     _BRG14  equ     1238
   507                           	global	_BRG15
   508  04D7                     _BRG15  equ     1239
   509                           	global	_BRG2
   510  04CA                     _BRG2  equ     1226
   511                           	global	_BRG3
   512  04CB                     _BRG3  equ     1227
   513                           	global	_BRG4
   514  04CC                     _BRG4  equ     1228
   515                           	global	_BRG5
   516  04CD                     _BRG5  equ     1229
   517                           	global	_BRG6
   518  04CE                     _BRG6  equ     1230
   519                           	global	_BRG7
   520  04CF                     _BRG7  equ     1231
   521                           	global	_BRG8
   522  04D0                     _BRG8  equ     1232
   523                           	global	_BRG9
   524  04D1                     _BRG9  equ     1233
   525                           	global	_BRGH
   526  04C2                     _BRGH  equ     1218
   527                           	global	_C1IE
   528  046D                     _C1IE  equ     1133
   529                           	global	_C2IE
   530  046E                     _C2IE  equ     1134
   531                           	global	_CCP1IE
   532  0462                     _CCP1IE  equ     1122
   533                           	global	_CCP2IE
   534  0468                     _CCP2IE  equ     1128
   535                           	global	_CKE
   536  04A6                     _CKE  equ     1190
   537                           	global	_CSRC
   538  04C7                     _CSRC  equ     1223
   539                           	global	_DA
   540  04A5                     _DA  equ     1189
   541                           	global	_ECCPAS0
   542  04E4                     _ECCPAS0  equ     1252
   543                           	global	_ECCPAS1
   544  04E5                     _ECCPAS1  equ     1253
   545                           	global	_ECCPAS2
   546  04E6                     _ECCPAS2  equ     1254
   547                           	global	_ECCPASE
   548  04E7                     _ECCPASE  equ     1255
   549                           	global	_EEIE
   550  046C                     _EEIE  equ     1132
   551                           	global	_GCEN
   552  048F                     _GCEN  equ     1167
   553                           	global	_HTS
   554  047A                     _HTS  equ     1146
   555                           	global	_INTEDG
   556  040E                     _INTEDG  equ     1038
   557                           	global	_IOCB0
   558  04B0                     _IOCB0  equ     1200
   559                           	global	_IOCB1
   560  04B1                     _IOCB1  equ     1201
   561                           	global	_IOCB2
   562  04B2                     _IOCB2  equ     1202
   563                           	global	_IOCB3
   564  04B3                     _IOCB3  equ     1203
   565                           	global	_IOCB4
   566  04B4                     _IOCB4  equ     1204
   567                           	global	_IOCB5
   568  04B5                     _IOCB5  equ     1205
   569                           	global	_IOCB6
   570  04B6                     _IOCB6  equ     1206
   571                           	global	_IOCB7
   572  04B7                     _IOCB7  equ     1207
   573                           	global	_IRCF0
   574  047C                     _IRCF0  equ     1148
   575                           	global	_IRCF1
   576  047D                     _IRCF1  equ     1149
   577                           	global	_IRCF2
   578  047E                     _IRCF2  equ     1150
   579                           	global	_LTS
   580  0479                     _LTS  equ     1145
   581                           	global	_OSFIE
   582  046F                     _OSFIE  equ     1135
   583                           	global	_OSTS
   584  047B                     _OSTS  equ     1147
   585                           	global	_PDC0
   586  04D8                     _PDC0  equ     1240
   587                           	global	_PDC1
   588  04D9                     _PDC1  equ     1241
   589                           	global	_PDC2
   590  04DA                     _PDC2  equ     1242
   591                           	global	_PDC3
   592  04DB                     _PDC3  equ     1243
   593                           	global	_PDC4
   594  04DC                     _PDC4  equ     1244
   595                           	global	_PDC5
   596  04DD                     _PDC5  equ     1245
   597                           	global	_PDC6
   598  04DE                     _PDC6  equ     1246
   599                           	global	_PEN
   600  048A                     _PEN  equ     1162
   601                           	global	_POR
   602  0471                     _POR  equ     1137
   603                           	global	_PRSEN
   604  04DF                     _PRSEN  equ     1247
   605                           	global	_PS0
   606  0408                     _PS0  equ     1032
   607                           	global	_PS1
   608  0409                     _PS1  equ     1033
   609                           	global	_PS2
   610  040A                     _PS2  equ     1034
   611                           	global	_PSA
   612  040B                     _PSA  equ     1035
   613                           	global	_PSSAC0
   614  04E2                     _PSSAC0  equ     1250
   615                           	global	_PSSAC1
   616  04E3                     _PSSAC1  equ     1251
   617                           	global	_PSSBD0
   618  04E0                     _PSSBD0  equ     1248
   619                           	global	_PSSBD1
   620  04E1                     _PSSBD1  equ     1249
   621                           	global	_RABPU
   622  040F                     _RABPU  equ     1039
   623                           	global	_RBPU
   624  040F                     _RBPU  equ     1039
   625                           	global	_RCEN
   626  048B                     _RCEN  equ     1163
   627                           	global	_RCIE
   628  0465                     _RCIE  equ     1125
   629                           	global	_RSEN
   630  0489                     _RSEN  equ     1161
   631                           	global	_RW
   632  04A2                     _RW  equ     1186
   633                           	global	_SBOREN
   634  0474                     _SBOREN  equ     1140
   635                           	global	_SCS
   636  0478                     _SCS  equ     1144
   637                           	global	_SEN
   638  0488                     _SEN  equ     1160
   639                           	global	_SENDB
   640  04C3                     _SENDB  equ     1219
   641                           	global	_SMP
   642  04A7                     _SMP  equ     1191
   643                           	global	_SSPIE
   644  0463                     _SSPIE  equ     1123
   645                           	global	_START
   646  04A3                     _START  equ     1187
   647                           	global	_STOP
   648  04A4                     _STOP  equ     1188
   649                           	global	_STRA
   650  04E8                     _STRA  equ     1256
   651                           	global	_STRB
   652  04E9                     _STRB  equ     1257
   653                           	global	_STRC
   654  04EA                     _STRC  equ     1258
   655                           	global	_STRD
   656  04EB                     _STRD  equ     1259
   657                           	global	_STRSYNC
   658  04EC                     _STRSYNC  equ     1260
   659                           	global	_SYNC
   660  04C4                     _SYNC  equ     1220
   661                           	global	_T0CS
   662  040D                     _T0CS  equ     1037
   663                           	global	_T0SE
   664  040C                     _T0SE  equ     1036
   665                           	global	_TMR1IE
   666  0460                     _TMR1IE  equ     1120
   667                           	global	_TMR2IE
   668  0461                     _TMR2IE  equ     1121
   669                           	global	_TRISA0
   670  0428                     _TRISA0  equ     1064
   671                           	global	_TRISA1
   672  0429                     _TRISA1  equ     1065
   673                           	global	_TRISA2
   674  042A                     _TRISA2  equ     1066
   675                           	global	_TRISA3
   676  042B                     _TRISA3  equ     1067
   677                           	global	_TRISA4
   678  042C                     _TRISA4  equ     1068
   679                           	global	_TRISA5
   680  042D                     _TRISA5  equ     1069
   681                           	global	_TRISA6
   682  042E                     _TRISA6  equ     1070
   683                           	global	_TRISA7
   684  042F                     _TRISA7  equ     1071
   685                           	global	_TRISB0
   686  0430                     _TRISB0  equ     1072
   687                           	global	_TRISB1
   688  0431                     _TRISB1  equ     1073
   689                           	global	_TRISB2
   690  0432                     _TRISB2  equ     1074
   691                           	global	_TRISB3
   692  0433                     _TRISB3  equ     1075
   693                           	global	_TRISB4
   694  0434                     _TRISB4  equ     1076
   695                           	global	_TRISB5
   696  0435                     _TRISB5  equ     1077
   697                           	global	_TRISB6
   698  0436                     _TRISB6  equ     1078
   699                           	global	_TRISB7
   700  0437                     _TRISB7  equ     1079
   701                           	global	_TRISC0
   702  0438                     _TRISC0  equ     1080
   703                           	global	_TRISC1
   704  0439                     _TRISC1  equ     1081
   705                           	global	_TRISC2
   706  043A                     _TRISC2  equ     1082
   707                           	global	_TRISC3
   708  043B                     _TRISC3  equ     1083
   709                           	global	_TRISC4
   710  043C                     _TRISC4  equ     1084
   711                           	global	_TRISC5
   712  043D                     _TRISC5  equ     1085
   713                           	global	_TRISC6
   714  043E                     _TRISC6  equ     1086
   715                           	global	_TRISC7
   716  043F                     _TRISC7  equ     1087
   717                           	global	_TRISD0
   718  0440                     _TRISD0  equ     1088
   719                           	global	_TRISD1
   720  0441                     _TRISD1  equ     1089
   721                           	global	_TRISD2
   722  0442                     _TRISD2  equ     1090
   723                           	global	_TRISD3
   724  0443                     _TRISD3  equ     1091
   725                           	global	_TRISD4
   726  0444                     _TRISD4  equ     1092
   727                           	global	_TRISD5
   728  0445                     _TRISD5  equ     1093
   729                           	global	_TRISD6
   730  0446                     _TRISD6  equ     1094
   731                           	global	_TRISD7
   732  0447                     _TRISD7  equ     1095
   733                           	global	_TRISE0
   734  0448                     _TRISE0  equ     1096
   735                           	global	_TRISE1
   736  0449                     _TRISE1  equ     1097
   737                           	global	_TRISE2
   738  044A                     _TRISE2  equ     1098
   739                           	global	_TRISE3
   740  044B                     _TRISE3  equ     1099
   741                           	global	_TRMT
   742  04C1                     _TRMT  equ     1217
   743                           	global	_TUN0
   744  0480                     _TUN0  equ     1152
   745                           	global	_TUN1
   746  0481                     _TUN1  equ     1153
   747                           	global	_TUN2
   748  0482                     _TUN2  equ     1154
   749                           	global	_TUN3
   750  0483                     _TUN3  equ     1155
   751                           	global	_TUN4
   752  0484                     _TUN4  equ     1156
   753                           	global	_TX9
   754  04C6                     _TX9  equ     1222
   755                           	global	_TX9D
   756  04C0                     _TX9D  equ     1216
   757                           	global	_TXEN
   758  04C5                     _TXEN  equ     1221
   759                           	global	_TXIE
   760  0464                     _TXIE  equ     1124
   761                           	global	_UA
   762  04A1                     _UA  equ     1185
   763                           	global	_ULPWUE
   764  0475                     _ULPWUE  equ     1141
   765                           	global	_ULPWUIE
   766  046A                     _ULPWUIE  equ     1130
   767                           	global	_VCFG0
   768  04FC                     _VCFG0  equ     1276
   769                           	global	_VCFG1
   770  04FD                     _VCFG1  equ     1277
   771                           	global	_VR0
   772  04B8                     _VR0  equ     1208
   773                           	global	_VR1
   774  04B9                     _VR1  equ     1209
   775                           	global	_VR2
   776  04BA                     _VR2  equ     1210
   777                           	global	_VR3
   778  04BB                     _VR3  equ     1211
   779                           	global	_VREN
   780  04BF                     _VREN  equ     1215
   781                           	global	_VROE
   782  04BE                     _VROE  equ     1214
   783                           	global	_VRR
   784  04BD                     _VRR  equ     1213
   785                           	global	_VRSS
   786  04BC                     _VRSS  equ     1212
   787                           	global	_WPUB0
   788  04A8                     _WPUB0  equ     1192
   789                           	global	_WPUB1
   790  04A9                     _WPUB1  equ     1193
   791                           	global	_WPUB2
   792  04AA                     _WPUB2  equ     1194
   793                           	global	_WPUB3
   794  04AB                     _WPUB3  equ     1195
   795                           	global	_WPUB4
   796  04AC                     _WPUB4  equ     1196
   797                           	global	_WPUB5
   798  04AD                     _WPUB5  equ     1197
   799                           	global	_WPUB6
   800  04AE                     _WPUB6  equ     1198
   801                           	global	_WPUB7
   802  04AF                     _WPUB7  equ     1199
   803                           	global	_CM1CON0
   804  0107                     _CM1CON0  equ     263
   805                           	global	_CM2CON0
   806  0108                     _CM2CON0  equ     264
   807                           	global	_CM2CON1
   808  0109                     _CM2CON1  equ     265
   809                           	global	_EEADR
   810  010D                     _EEADR  equ     269
   811                           	global	_EEADRH
   812  010F                     _EEADRH  equ     271
   813                           	global	_EEADRL
   814  010D                     _EEADRL  equ     269
   815                           	global	_EEDAT
   816  010C                     _EEDAT  equ     268
   817                           	global	_EEDATA
   818  010C                     _EEDATA  equ     268
   819                           	global	_EEDATH
   820  010E                     _EEDATH  equ     270
   821                           	global	_WDTCON
   822  0105                     _WDTCON  equ     261
   823                           	global	_C1CH0
   824  0838                     _C1CH0  equ     2104
   825                           	global	_C1CH1
   826  0839                     _C1CH1  equ     2105
   827                           	global	_C1OE
   828  083D                     _C1OE  equ     2109
   829                           	global	_C1ON
   830  083F                     _C1ON  equ     2111
   831                           	global	_C1OUT
   832  083E                     _C1OUT  equ     2110
   833                           	global	_C1POL
   834  083C                     _C1POL  equ     2108
   835                           	global	_C1R
   836  083A                     _C1R  equ     2106
   837                           	global	_C1RSEL
   838  084D                     _C1RSEL  equ     2125
   839                           	global	_C2CH0
   840  0840                     _C2CH0  equ     2112
   841                           	global	_C2CH1
   842  0841                     _C2CH1  equ     2113
   843                           	global	_C2OE
   844  0845                     _C2OE  equ     2117
   845                           	global	_C2ON
   846  0847                     _C2ON  equ     2119
   847                           	global	_C2OUT
   848  0846                     _C2OUT  equ     2118
   849                           	global	_C2POL
   850  0844                     _C2POL  equ     2116
   851                           	global	_C2R
   852  0842                     _C2R  equ     2114
   853                           	global	_C2RSEL
   854  084C                     _C2RSEL  equ     2124
   855                           	global	_C2SYNC
   856  0848                     _C2SYNC  equ     2120
   857                           	global	_MC1OUT
   858  084F                     _MC1OUT  equ     2127
   859                           	global	_MC2OUT
   860  084E                     _MC2OUT  equ     2126
   861                           	global	_SWDTEN
   862  0828                     _SWDTEN  equ     2088
   863                           	global	_T1GSS
   864  0849                     _T1GSS  equ     2121
   865                           	global	_WDTPS0
   866  0829                     _WDTPS0  equ     2089
   867                           	global	_WDTPS1
   868  082A                     _WDTPS1  equ     2090
   869                           	global	_WDTPS2
   870  082B                     _WDTPS2  equ     2091
   871                           	global	_WDTPS3
   872  082C                     _WDTPS3  equ     2092
   873                           	global	_ANSEL
   874  0188                     _ANSEL  equ     392
   875                           	global	_ANSELH
   876  0189                     _ANSELH  equ     393
   877                           	global	_BAUDCTL
   878  0187                     _BAUDCTL  equ     391
   879                           	global	_EECON1
   880  018C                     _EECON1  equ     396
   881                           	global	_EECON2
   882  018D                     _EECON2  equ     397
   883                           	global	_SRCON
   884  0185                     _SRCON  equ     389
   885                           	global	_ABDEN
   886  0C38                     _ABDEN  equ     3128
   887                           	global	_ABDOVF
   888  0C3F                     _ABDOVF  equ     3135
   889                           	global	_ANS0
   890  0C40                     _ANS0  equ     3136
   891                           	global	_ANS1
   892  0C41                     _ANS1  equ     3137
   893                           	global	_ANS10
   894  0C4A                     _ANS10  equ     3146
   895                           	global	_ANS11
   896  0C4B                     _ANS11  equ     3147
   897                           	global	_ANS12
   898  0C4C                     _ANS12  equ     3148
   899                           	global	_ANS13
   900  0C4D                     _ANS13  equ     3149
   901                           	global	_ANS2
   902  0C42                     _ANS2  equ     3138
   903                           	global	_ANS3
   904  0C43                     _ANS3  equ     3139
   905                           	global	_ANS4
   906  0C44                     _ANS4  equ     3140
   907                           	global	_ANS5
   908  0C45                     _ANS5  equ     3141
   909                           	global	_ANS6
   910  0C46                     _ANS6  equ     3142
   911                           	global	_ANS7
   912  0C47                     _ANS7  equ     3143
   913                           	global	_ANS8
   914  0C48                     _ANS8  equ     3144
   915                           	global	_ANS9
   916  0C49                     _ANS9  equ     3145
   917                           	global	_BRG16
   918  0C3B                     _BRG16  equ     3131
   919                           	global	_C1SEN
   920  0C2D                     _C1SEN  equ     3117
   921                           	global	_C2REN
   922  0C2C                     _C2REN  equ     3116
   923                           	global	_EEPGD
   924  0C67                     _EEPGD  equ     3175
   925                           	global	_FVREN
   926  0C28                     _FVREN  equ     3112
   927                           	global	_PULSR
   928  0C2A                     _PULSR  equ     3114
   929                           	global	_PULSS
   930  0C2B                     _PULSS  equ     3115
   931                           	global	_RCIDL
   932  0C3E                     _RCIDL  equ     3134
   933                           	global	_RD
   934  0C60                     _RD  equ     3168
   935                           	global	_SCKP
   936  0C3C                     _SCKP  equ     3132
   937                           	global	_SR0
   938  0C2E                     _SR0  equ     3118
   939                           	global	_SR1
   940  0C2F                     _SR1  equ     3119
   941                           	global	_WR
   942  0C61                     _WR  equ     3169
   943                           	global	_WREN
   944  0C62                     _WREN  equ     3170
   945                           	global	_WRERR
   946  0C63                     _WRERR  equ     3171
   947                           	global	_WUE
   948  0C39                     _WUE  equ     3129
   949                           	file	"LM35.as"
   950                           	line	#
   951                           psect cinit,class=CODE,delta=2
   952                           global start_initialization
   953  0AC8                     start_initialization:
   954                           
   955                           psect	bssCOMMON,class=COMMON,space=1
   956                           global __pbssCOMMON
   957  0070                     __pbssCOMMON:
   958  0070                     _DV:
   959  0070                            ds      2
   960                           
   961  0072                     _high:
   962  0072                            ds      2
   963                           
   964  0074                     _low:
   965  0074                            ds      2
   966                           
   967                           psect	bssBANK0,class=BANK0,space=1
   968                           global __pbssBANK0
   969  0058                     __pbssBANK0:
   970  0058                     _k1:
   971  0058                            ds      2
   972                           
   973  005A                     _k2:
   974  005A                            ds      2
   975                           
   976                           ; Clear objects allocated to COMMON
   977                           psect cinit,class=CODE,delta=2
   978  0AC8  01F0               	clrf	((__pbssCOMMON)+0)&07Fh
   979  0AC9  01F1               	clrf	((__pbssCOMMON)+1)&07Fh
   980  0ACA  01F2               	clrf	((__pbssCOMMON)+2)&07Fh
   981  0ACB  01F3               	clrf	((__pbssCOMMON)+3)&07Fh
   982  0ACC  01F4               	clrf	((__pbssCOMMON)+4)&07Fh
   983  0ACD  01F5               	clrf	((__pbssCOMMON)+5)&07Fh
   984                           ; Clear objects allocated to BANK0
   985                           psect cinit,class=CODE,delta=2
   986  0ACE  01D8               	clrf	((__pbssBANK0)+0)&07Fh
   987  0ACF  01D9               	clrf	((__pbssBANK0)+1)&07Fh
   988  0AD0  01DA               	clrf	((__pbssBANK0)+2)&07Fh
   989  0AD1  01DB               	clrf	((__pbssBANK0)+3)&07Fh
   990                           psect cinit,class=CODE,delta=2
   991                           global end_of_initialization
   992                           
   993                           ;End of C runtime variable initationation code
   994                           
   995  0AD2                     end_of_initialization:
   996  0AD2  0183               clrf status
   997  0AD3  120A  158A  2B2F   ljmp _main	;jump to C main() function
   998                           psect	cstackBANK1,class=BANK1,space=1
   999                           global __pcstackBANK1
  1000  00A0                     __pcstackBANK1:
  1001                           	global	temperature@c1
  1002  00A0                     temperature@c1:	; 2 bytes @ 0x0
  1003  00A0                     	ds	2
  1004                           	global	temperature@a1
  1005  00A2                     temperature@a1:	; 2 bytes @ 0x2
  1006  00A2                     	ds	2
  1007                           	global	temperature@h
  1008  00A4                     temperature@h:	; 2 bytes @ 0x4
  1009  00A4                     	ds	2
  1010                           	global	temperature@h1
  1011  00A6                     temperature@h1:	; 2 bytes @ 0x6
  1012  00A6                     	ds	2
  1013                           	global	temperature@g1
  1014  00A8                     temperature@g1:	; 2 bytes @ 0x8
  1015  00A8                     	ds	2
  1016                           	global	temperature@e1
  1017  00AA                     temperature@e1:	; 2 bytes @ 0xA
  1018  00AA                     	ds	2
  1019                           	global	temperature@g
  1020  00AC                     temperature@g:	; 2 bytes @ 0xC
  1021  00AC                     	ds	2
  1022                           	global	temperature@e
  1023  00AE                     temperature@e:	; 2 bytes @ 0xE
  1024  00AE                     	ds	2
  1025                           	global	temperature@c
  1026  00B0                     temperature@c:	; 2 bytes @ 0x10
  1027  00B0                     	ds	2
  1028                           	global	temperature@a
  1029  00B2                     temperature@a:	; 2 bytes @ 0x12
  1030  00B2                     	ds	2
  1031                           	global	temperature@z
  1032  00B4                     temperature@z:	; 3 bytes @ 0x14
  1033  00B4                     	ds	3
  1034                           	global	temperature@f1
  1035  00B7                     temperature@f1:	; 2 bytes @ 0x17
  1036  00B7                     	ds	2
  1037                           	global	temperature@b
  1038  00B9                     temperature@b:	; 2 bytes @ 0x19
  1039  00B9                     	ds	2
  1040                           	global	temperature@b1
  1041  00BB                     temperature@b1:	; 2 bytes @ 0x1B
  1042  00BB                     	ds	2
  1043                           	global	temperature@f
  1044  00BD                     temperature@f:	; 2 bytes @ 0x1D
  1045  00BD                     	ds	2
  1046                           	global	temperature@d1
  1047  00BF                     temperature@d1:	; 2 bytes @ 0x1F
  1048  00BF                     	ds	2
  1049                           	global	temperature@d
  1050  00C1                     temperature@d:	; 2 bytes @ 0x21
  1051  00C1                     	ds	2
  1052                           	global	temperature@w1
  1053  00C3                     temperature@w1:	; 3 bytes @ 0x23
  1054  00C3                     	ds	3
  1055                           	global	temperature@w
  1056  00C6                     temperature@w:	; 2 bytes @ 0x26
  1057  00C6                     	ds	2
  1058                           psect	cstackCOMMON,class=COMMON,space=1
  1059                           global __pcstackCOMMON
  1060  0076                     __pcstackCOMMON:
  1061                           	global	??___ftneg
  1062  0076                     ??___ftneg: ;@ 0x0
  1063                           	global	??_delay
  1064  0076                     ??_delay: ;@ 0x0
  1065                           	global	?_delay
  1066  0076                     ?_delay: ;@ 0x0
  1067                           	global	??_command
  1068  0076                     ??_command: ;@ 0x0
  1069                           	global	??___ftpack
  1070  0076                     ??___ftpack: ;@ 0x0
  1071                           	global	??_data
  1072  0076                     ??_data: ;@ 0x0
  1073                           	global	??_pulse
  1074  0076                     ??_pulse: ;@ 0x0
  1075                           	global	??___awmod
  1076  0076                     ??___awmod: ;@ 0x0
  1077                           	global	delay@x
  1078  0076                     delay@x:	; 2 bytes @ 0x0
  1079                           	global	?___ftneg
  1080  0076                     ?___ftneg: ;@ 0x0
  1081                           	global	___ftneg@f1
  1082  0076                     ___ftneg@f1:	; 3 bytes @ 0x0
  1083  0076                     	ds	1
  1084                           	global	??___awdiv
  1085  0077                     ??___awdiv: ;@ 0x1
  1086  0077                     	ds	1
  1087                           	global	??_count
  1088  0078                     ??_count: ;@ 0x2
  1089                           	global	?_pulse
  1090  0078                     ?_pulse: ;@ 0x2
  1091                           	global	data@data
  1092  0078                     data@data:	; 1 bytes @ 0x2
  1093                           	global	command@data
  1094  0078                     command@data:	; 1 bytes @ 0x2
  1095  0078                     	ds	1
  1096                           	global	??___awtoft
  1097  0079                     ??___awtoft: ;@ 0x3
  1098                           	global	?_adc
  1099  0079                     ?_adc: ;@ 0x3
  1100                           	global	?_data
  1101  0079                     ?_data: ;@ 0x3
  1102                           	global	?_command
  1103  0079                     ?_command: ;@ 0x3
  1104  0079                     	ds	2
  1105                           psect	cstackBANK0,class=BANK0,space=1
  1106                           global __pcstackBANK0
  1107  0020                     __pcstackBANK0:
  1108                           	global	___awmod@sign
  1109  0020                     ___awmod@sign:	; 1 bytes @ 0x0
  1110                           	global	?___ftpack
  1111  0020                     ?___ftpack: ;@ 0x0
  1112                           	global	___ftpack@arg
  1113  0020                     ___ftpack@arg:	; 3 bytes @ 0x0
  1114  0020                     	ds	1
  1115                           	global	___awmod@counter
  1116  0021                     ___awmod@counter:	; 1 bytes @ 0x1
  1117  0021                     	ds	1
  1118                           	global	?___awmod
  1119  0022                     ?___awmod: ;@ 0x2
  1120                           	global	___awmod@dividend
  1121  0022                     ___awmod@dividend:	; 2 bytes @ 0x2
  1122  0022                     	ds	1
  1123                           	global	___ftpack@exp
  1124  0023                     ___ftpack@exp:	; 1 bytes @ 0x3
  1125  0023                     	ds	1
  1126                           	global	___ftpack@sign
  1127  0024                     ___ftpack@sign:	; 1 bytes @ 0x4
  1128                           	global	___awmod@divisor
  1129  0024                     ___awmod@divisor:	; 2 bytes @ 0x4
  1130  0024                     	ds	1
  1131                           	global	??___ftadd
  1132  0025                     ??___ftadd: ;@ 0x5
  1133                           	global	___awtoft@sign
  1134  0025                     ___awtoft@sign:	; 1 bytes @ 0x5
  1135  0025                     	ds	1
  1136                           	global	___awtoft@c
  1137  0026                     ___awtoft@c:	; 2 bytes @ 0x6
  1138                           	global	?___awtoft
  1139  0026                     ?___awtoft: ;@ 0x6
  1140                           	global	___awdiv@counter
  1141  0026                     ___awdiv@counter:	; 1 bytes @ 0x6
  1142  0026                     	ds	1
  1143                           	global	___awdiv@sign
  1144  0027                     ___awdiv@sign:	; 1 bytes @ 0x7
  1145  0027                     	ds	1
  1146                           	global	___ftadd@sign
  1147  0028                     ___ftadd@sign:	; 1 bytes @ 0x8
  1148                           	global	___awdiv@quotient
  1149  0028                     ___awdiv@quotient:	; 2 bytes @ 0x8
  1150  0028                     	ds	1
  1151                           	global	??___ftmul
  1152  0029                     ??___ftmul: ;@ 0x9
  1153                           	global	??_main
  1154  0029                     ??_main: ;@ 0x9
  1155                           	global	___ftadd@exp2
  1156  0029                     ___ftadd@exp2:	; 1 bytes @ 0x9
  1157  0029                     	ds	1
  1158                           	global	___ftadd@exp1
  1159  002A                     ___ftadd@exp1:	; 1 bytes @ 0xA
  1160                           	global	?___awdiv
  1161  002A                     ?___awdiv: ;@ 0xA
  1162                           	global	___awdiv@dividend
  1163  002A                     ___awdiv@dividend:	; 2 bytes @ 0xA
  1164  002A                     	ds	1
  1165                           	global	?___ftadd
  1166  002B                     ?___ftadd: ;@ 0xB
  1167                           	global	___ftadd@f1
  1168  002B                     ___ftadd@f1:	; 3 bytes @ 0xB
  1169  002B                     	ds	1
  1170                           	global	___awdiv@divisor
  1171  002C                     ___awdiv@divisor:	; 2 bytes @ 0xC
  1172  002C                     	ds	1
  1173                           	global	___ftmul@exp
  1174  002D                     ___ftmul@exp:	; 1 bytes @ 0xD
  1175  002D                     	ds	1
  1176                           	global	count@e
  1177  002E                     count@e:	; 2 bytes @ 0xE
  1178                           	global	___ftmul@f3_as_product
  1179  002E                     ___ftmul@f3_as_product:	; 3 bytes @ 0xE
  1180                           	global	___ftadd@f2
  1181  002E                     ___ftadd@f2:	; 3 bytes @ 0xE
  1182  002E                     	ds	2
  1183                           	global	count@f
  1184  0030                     count@f:	; 2 bytes @ 0x10
  1185  0030                     	ds	1
  1186                           	global	??___fttol
  1187  0031                     ??___fttol: ;@ 0x11
  1188                           	global	___ftmul@cntr
  1189  0031                     ___ftmul@cntr:	; 1 bytes @ 0x11
  1190  0031                     	ds	1
  1191                           	global	___ftmul@sign
  1192  0032                     ___ftmul@sign:	; 1 bytes @ 0x12
  1193                           	global	count@a
  1194  0032                     count@a:	; 2 bytes @ 0x12
  1195  0032                     	ds	1
  1196                           	global	?___ftmul
  1197  0033                     ?___ftmul: ;@ 0x13
  1198                           	global	___ftmul@f1
  1199  0033                     ___ftmul@f1:	; 3 bytes @ 0x13
  1200  0033                     	ds	1
  1201                           	global	___fttol@sign1
  1202  0034                     ___fttol@sign1:	; 1 bytes @ 0x14
  1203                           	global	count@c
  1204  0034                     count@c:	; 2 bytes @ 0x14
  1205  0034                     	ds	1
  1206                           	global	___fttol@lval
  1207  0035                     ___fttol@lval:	; 4 bytes @ 0x15
  1208  0035                     	ds	1
  1209                           	global	?_count
  1210  0036                     ?_count: ;@ 0x16
  1211                           	global	count@i
  1212  0036                     count@i:	; 2 bytes @ 0x16
  1213                           	global	___ftmul@f2
  1214  0036                     ___ftmul@f2:	; 3 bytes @ 0x16
  1215  0036                     	ds	2
  1216                           	global	??_adc
  1217  0038                     ??_adc: ;@ 0x18
  1218  0038                     	ds	1
  1219                           	global	??___ftdiv
  1220  0039                     ??___ftdiv: ;@ 0x19
  1221                           	global	___fttol@exp1
  1222  0039                     ___fttol@exp1:	; 1 bytes @ 0x19
  1223  0039                     	ds	1
  1224                           	global	___fttol@f1
  1225  003A                     ___fttol@f1:	; 3 bytes @ 0x1A
  1226                           	global	?___fttol
  1227  003A                     ?___fttol: ;@ 0x1A
  1228  003A                     	ds	3
  1229                           	global	___ftdiv@cntr
  1230  003D                     ___ftdiv@cntr:	; 1 bytes @ 0x1D
  1231  003D                     	ds	1
  1232                           	global	___ftdiv@f3
  1233  003E                     ___ftdiv@f3:	; 3 bytes @ 0x1E
  1234  003E                     	ds	3
  1235                           	global	___ftdiv@exp
  1236  0041                     ___ftdiv@exp:	; 1 bytes @ 0x21
  1237  0041                     	ds	1
  1238                           	global	___ftdiv@sign
  1239  0042                     ___ftdiv@sign:	; 1 bytes @ 0x22
  1240  0042                     	ds	1
  1241                           	global	?___ftdiv
  1242  0043                     ?___ftdiv: ;@ 0x23
  1243                           	global	___ftdiv@f1
  1244  0043                     ___ftdiv@f1:	; 3 bytes @ 0x23
  1245  0043                     	ds	3
  1246                           	global	___ftdiv@f2
  1247  0046                     ___ftdiv@f2:	; 3 bytes @ 0x26
  1248  0046                     	ds	3
  1249                           	global	??_voltage
  1250  0049                     ??_voltage: ;@ 0x29
  1251                           	global	??_temperature
  1252  0049                     ??_temperature: ;@ 0x29
  1253  0049                     	ds	1
  1254                           	global	?_temperature
  1255  004A                     ?_temperature: ;@ 0x2A
  1256                           	global	voltage@z
  1257  004A                     voltage@z:	; 3 bytes @ 0x2A
  1258  004A                     	ds	3
  1259                           	global	voltage@w1
  1260  004D                     voltage@w1:	; 3 bytes @ 0x2D
  1261  004D                     	ds	3
  1262                           	global	voltage@c
  1263  0050                     voltage@c:	; 2 bytes @ 0x30
  1264  0050                     	ds	2
  1265                           	global	voltage@a
  1266  0052                     voltage@a:	; 2 bytes @ 0x32
  1267  0052                     	ds	2
  1268                           	global	voltage@b
  1269  0054                     voltage@b:	; 2 bytes @ 0x34
  1270  0054                     	ds	2
  1271                           	global	voltage@w
  1272  0056                     voltage@w:	; 2 bytes @ 0x36
  1273  0056                     	ds	2
  1274                           	global	?_main
  1275  0058                     ?_main: ;@ 0x38
  1276                           	global	?_voltage
  1277  0058                     ?_voltage: ;@ 0x38
  1278                           ;Data sizes: Strings 0, constant 0, data 0, bss 10, persistent 0 stack 0
  1279                           ;Auto spaces:   Size  Autos    Used
  1280                           ; COMMON          14      5      11
  1281                           ; BANK0           80     56      60
  1282                           ; BANK1           80     40      40
  1283                           ; BANK3           96      0       0
  1284                           ; BANK2           96      0       0
  1285                           
  1286                           
  1287                           ;Pointer list with targets:
  1288                           
  1289                           ;?___ftpack	float  size(1); Largest target is 0
  1290                           ;?___ftneg	float  size(1); Largest target is 0
  1291                           ;?___awdiv	int  size(1); Largest target is 0
  1292                           ;?___awmod	int  size(1); Largest target is 0
  1293                           ;?___fttol	long  size(1); Largest target is 0
  1294                           ;?___ftdiv	float  size(1); Largest target is 0
  1295                           ;?___awtoft	float  size(1); Largest target is 0
  1296                           ;?___ftadd	float  size(1); Largest target is 0
  1297                           ;?___ftmul	float  size(1); Largest target is 0
  1298                           
  1299                           
  1300                           ;Main: autosize = 0, tempsize = 0, incstack = 0, save=0
  1301                           
  1302                           
  1303                           ;Call graph:                      Base Space Used Autos Args Refs Density
  1304                           ;_main                                                0    0 16400   0.00
  1305                           ;            _command
  1306                           ;                _adc
  1307                           ;            _voltage
  1308                           ;        _temperature
  1309                           ;  _voltage                                          15    0 7414   0.00
  1310                           ;                                   41 BANK0   15
  1311                           ;            _command
  1312                           ;           ___awtoft
  1313                           ;            ___ftmul
  1314                           ;            ___ftdiv
  1315                           ;            ___ftadd
  1316                           ;            ___fttol
  1317                           ;            ___awdiv
  1318                           ;            ___awmod
  1319                           ;               _data
  1320                           ;            ___ftneg
  1321                           ;  _adc                                               2    0 1174   0.00
  1322                           ;                                   24 BANK0    2
  1323                           ;              _count
  1324                           ;  _temperature                                      61    0 7780   0.00
  1325                           ;                                   41 BANK0    1
  1326                           ;                                    0 BANK1   40
  1327                           ;           ___awtoft
  1328                           ;            ___ftmul
  1329                           ;            ___ftdiv
  1330                           ;            ___ftadd
  1331                           ;            ___fttol
  1332                           ;            ___awdiv
  1333                           ;            ___awmod
  1334                           ;            _command
  1335                           ;               _data
  1336                           ;            ___ftneg
  1337                           ;    ___ftdiv                                        10    6 1932   0.00
  1338                           ;                                   25 BANK0   16
  1339                           ;            ___ftmul (ARG)
  1340                           ;           ___awtoft (ARG)
  1341                           ;           ___ftpack
  1342                           ;    ___ftmul                                        10    6  993   0.00
  1343                           ;                                    9 BANK0   16
  1344                           ;           ___awtoft (ARG)
  1345                           ;           ___ftpack
  1346                           ;    ___awtoft                                        3    3  354   0.00
  1347                           ;                                    3 COMMO    2
  1348                           ;                                    5 BANK0    4
  1349                           ;           ___ftpack
  1350                           ;    ___fttol                                         9    4 1467   0.00
  1351                           ;                                   17 BANK0   13
  1352                           ;            ___ftadd (ARG)
  1353                           ;            ___ftneg (ARG)
  1354                           ;    ___ftneg                                         0    3   33   0.00
  1355                           ;                                    0 COMMO    3
  1356                           ;    ___ftadd                                         6    6 1248   0.00
  1357                           ;                                    5 BANK0   12
  1358                           ;            ___ftneg (ARG)
  1359                           ;           ___ftpack
  1360                           ;    _count                                           8    2 1174   0.00
  1361                           ;                                   14 BANK0   10
  1362                           ;            ___awdiv
  1363                           ;            ___awmod
  1364                           ;            _command
  1365                           ;               _data
  1366                           ;      ___ftpack                                      3    5  249   0.00
  1367                           ;                                    0 COMMO    3
  1368                           ;                                    0 BANK0    5
  1369                           ;      ___awdiv                                       5    4  564   0.00
  1370                           ;                                    1 COMMO    1
  1371                           ;                                    6 BANK0    8
  1372                           ;            ___awmod (ARG)
  1373                           ;      _command                                       1    0   32   0.00
  1374                           ;                                    2 COMMO    1
  1375                           ;              _pulse
  1376                           ;      _data                                          1    0   32   0.00
  1377                           ;                                    2 COMMO    1
  1378                           ;              _pulse
  1379                           ;      ___awmod                                       3    4  342   0.00
  1380                           ;                                    0 COMMO    1
  1381                           ;                                    0 BANK0    6
  1382                           ;        _pulse                                       0    0   16   0.00
  1383                           ;              _delay
  1384                           ;          _delay                                     0    2   16   0.00
  1385                           ;                                    0 COMMO    2
  1386                           ; Estimated maximum call depth 5
  1387                           ; Address spaces:
  1388                           
  1389                           ;Name               Size   Autos  Total    Cost      Usage
  1390                           ;BITCOMMON            E      0       0       0        0.0%
  1391                           ;CODE                 0      0       0       0        0.0%
  1392                           ;NULL                 0      0       0       0        0.0%
  1393                           ;COMMON               E      5       B       1       78.6%
  1394                           ;SFR0                 0      0       0       1        0.0%
  1395                           ;BITSFR0              0      0       0       1        0.0%
  1396                           ;BITSFR1              0      0       0       2        0.0%
  1397                           ;SFR1                 0      0       0       2        0.0%
  1398                           ;ABS                  0      0      6F       2        0.0%
  1399                           ;STACK                0      0       0       3        0.0%
  1400                           ;BITBANK0            50      0       0       4        0.0%
  1401                           ;SFR3                 0      0       0       4        0.0%
  1402                           ;BITSFR3              0      0       0       4        0.0%
  1403                           ;BANK0               50     38      3C       5       75.0%
  1404                           ;BITSFR2              0      0       0       5        0.0%
  1405                           ;SFR2                 0      0       0       5        0.0%
  1406                           ;BITBANK1            50      0       0       6        0.0%
  1407                           ;BANK1               50     28      28       7       50.0%
  1408                           ;BITBANK3            60      0       0       8        0.0%
  1409                           ;BANK3               60      0       0       9        0.0%
  1410                           ;BITBANK2            60      0       0      10        0.0%
  1411                           ;BANK2               60      0       0      11        0.0%
  1412                           ;DATA                 0      0      6F      12        0.0%
  1413                           ;EEDATA             100      0       0    1000        0.0%
  1414                           
  1415                           	global	_main
  1416                           psect	maintext,local,class=CODE,delta=2
  1417                           global __pmaintext
  1418  0B2F                     __pmaintext:
  1419                           
  1420                           ; *************** function _main *****************
  1421                           ; Defined at:
  1422                           ;		line 257 in file "C:\Users\gowth\Documents\PIC Programs\ADC\Temp LM35\LM35.c"
  1423                           ; Parameters:    Size  Location     Type
  1424                           ;		None
  1425                           ; Auto vars:     Size  Location     Type
  1426                           ;		None
  1427                           ; Return value:  Size  Location     Type
  1428                           ;		None               void
  1429                           ; Registers used:
  1430                           ;		wreg, fsr0l, fsr0h, fsr1l, fsr1h, status,2, status,0, btemp+0, btemp+1, btemp+2, btem
                                 p+3, pclath, cstack
  1431                           ; Tracked objects:
  1432                           ;		On entry : 17F/0
  1433                           ;		On exit  : 0/0
  1434                           ;		Unchanged: 0/0
  1435                           ; Data sizes:     COMMON   BANK0   BANK1   BANK3   BANK2
  1436                           ;      Locals:         0       0       0       0       0
  1437                           ;      Temp:     0
  1438                           ;      Total:    0
  1439                           ; This function calls:
  1440                           ;		_command
  1441                           ;		_adc
  1442                           ;		_voltage
  1443                           ;		_temperature
  1444                           ; This function is called by:
  1445                           ;		Startup code after reset
  1446                           ; This function uses a non-reentrant model
  1447                           ; 
  1448                           psect	maintext
  1449                           	file	"C:\Users\gowth\Documents\PIC Programs\ADC\Temp LM35\LM35.c"
  1450                           	line	257
  1451                           	global	__size_of_main
  1452  0050                     	__size_of_main	equ	__end_of_main-_main
  1453                           ;LM35.c: 256: void main()
  1454                           ;LM35.c: 257: {
  1455                           	
  1456  0B2F                     _main:	
  1457                           	opt stack 8
  1458                           ; Regs used in _main: [allreg]
  1459                           	line	258
  1460                           	
  1461  0B2F                     l30001460:	
  1462                           ;LM35.c: 258: TRISA=0X0F; PORTA=0X00;
  1463  0B2F  300F               	movlw	(0Fh)
  1464  0B30  1683               	bsf	status, 5	;RP0=1, select bank1
  1465  0B31  1303               	bcf	status, 6	;RP1=0, select bank1
  1466  0B32  0085               	movwf	(133)^080h	;volatile
  1467                           	
  1468  0B33                     l30001461:	
  1469  0B33  1003               	clrc
  1470  0B34  3000               	movlw	0
  1471  0B35  1803               	btfsc	status,0
  1472  0B36  3001               	movlw	1
  1473  0B37  1283               	bcf	status, 5	;RP0=0, select bank0
  1474  0B38  1303               	bcf	status, 6	;RP1=0, select bank0
  1475  0B39  0085               	movwf	(5)	;volatile
  1476                           	
  1477  0B3A                     l30001462:	
  1478                           	line	259
  1479                           ;LM35.c: 259: TRISD=0X00; PORTD=0X00;
  1480  0B3A  1003               	clrc
  1481  0B3B  3000               	movlw	0
  1482  0B3C  1803               	btfsc	status,0
  1483  0B3D  3001               	movlw	1
  1484  0B3E  1683               	bsf	status, 5	;RP0=1, select bank1
  1485  0B3F  1303               	bcf	status, 6	;RP1=0, select bank1
  1486  0B40  0088               	movwf	(136)^080h	;volatile
  1487                           	
  1488  0B41                     l30001463:	
  1489  0B41  1003               	clrc
  1490  0B42  3000               	movlw	0
  1491  0B43  1803               	btfsc	status,0
  1492  0B44  3001               	movlw	1
  1493  0B45  1283               	bcf	status, 5	;RP0=0, select bank0
  1494  0B46  1303               	bcf	status, 6	;RP1=0, select bank0
  1495  0B47  0088               	movwf	(8)	;volatile
  1496                           	
  1497  0B48                     l30001464:	
  1498                           	line	260
  1499                           ;LM35.c: 260: TRISE=0X00; PORTE=0X00;
  1500  0B48  1003               	clrc
  1501  0B49  3000               	movlw	0
  1502  0B4A  1803               	btfsc	status,0
  1503  0B4B  3001               	movlw	1
  1504  0B4C  1683               	bsf	status, 5	;RP0=1, select bank1
  1505  0B4D  1303               	bcf	status, 6	;RP1=0, select bank1
  1506  0B4E  0089               	movwf	(137)^080h	;volatile
  1507                           	
  1508  0B4F                     l30001465:	
  1509  0B4F  1003               	clrc
  1510  0B50  3000               	movlw	0
  1511  0B51  1803               	btfsc	status,0
  1512  0B52  3001               	movlw	1
  1513  0B53  1283               	bcf	status, 5	;RP0=0, select bank0
  1514  0B54  1303               	bcf	status, 6	;RP1=0, select bank0
  1515  0B55  0089               	movwf	(9)	;volatile
  1516                           	line	262
  1517                           ;LM35.c: 262: ANSEL=0X01; ANSELH=0X00;
  1518  0B56  1683               	bsf	status, 5	;RP0=1, select bank3
  1519  0B57  1703               	bsf	status, 6	;RP1=1, select bank3
  1520  0B58  0188               	clrf	(392)^0180h
  1521  0B59  1403               	bsf	status,0
  1522  0B5A  0D88               	rlf	(392)^0180h,f
  1523                           	
  1524  0B5B                     l30001466:	
  1525  0B5B  1003               	clrc
  1526  0B5C  3000               	movlw	0
  1527  0B5D  1803               	btfsc	status,0
  1528  0B5E  3001               	movlw	1
  1529  0B5F  0089               	movwf	(393)^0180h
  1530                           	
  1531  0B60                     l30001467:	
  1532                           	line	264
  1533                           ;LM35.c: 264: command(0X38);
  1534  0B60  3038               	movlw	(038h)
  1535  0B61  120A  158A  22BC   	fcall	_command
              120A  158A         
  1536                           	
  1537  0B66                     l30001468:	
  1538                           	line	265
  1539                           ;LM35.c: 265: command(0X0C);
  1540  0B66  300C               	movlw	(0Ch)
  1541  0B67  120A  158A  22BC   	fcall	_command
              120A  158A         
  1542                           	
  1543  0B6C                     l30001469:	
  1544                           	line	270
  1545                           ;LM35.c: 269: {
  1546                           ;LM35.c: 270: adc();
  1547  0B6C  120A  158A  2717   	fcall	_adc
              120A  158A         
  1548                           	
  1549  0B71                     l30001470:	
  1550                           	line	271
  1551                           ;LM35.c: 271: voltage();
  1552  0B71  120A  118A  21E0   	fcall	_voltage
              120A  158A         
  1553                           	
  1554  0B76                     l30001471:	
  1555                           	line	272
  1556                           ;LM35.c: 272: temperature();
  1557  0B76  120A  118A  23F0   	fcall	_temperature
              120A  158A         
  1558  0B7B  2B6C               	goto	l30001469
  1559                           	global	start
  1560  0B7C  120A  118A  2800   	ljmp	start
  1561                           	opt stack 0
  1562                           GLOBAL	__end_of_main
  1563  0B7F                     	__end_of_main:
  1564                           ; =============== function _main ends ============
  1565                           
  1566                           psect	maintext
  1567                           	line	275
  1568                           	signat	_main,88
  1569                           	global	_voltage
  1570                           psect	text125,local,class=CODE,delta=2
  1571                           global __ptext125
  1572  01E0                     __ptext125:
  1573                           
  1574                           ; *************** function _voltage *****************
  1575                           ; Defined at:
  1576                           ;		line 208 in file "C:\Users\gowth\Documents\PIC Programs\ADC\Temp LM35\LM35.c"
  1577                           ; Parameters:    Size  Location     Type
  1578                           ;		None
  1579                           ; Auto vars:     Size  Location     Type
  1580                           ;  w1              3   45[BANK0 ] float 
  1581                           ;  z               3   42[BANK0 ] float 
  1582                           ;  w               2   54[BANK0 ] int 
  1583                           ;  c               2   48[BANK0 ] int 
  1584                           ;  b               2   52[BANK0 ] int 
  1585                           ;  a               2   50[BANK0 ] int 
  1586                           ; Return value:  Size  Location     Type
  1587                           ;		None               void
  1588                           ; Registers used:
  1589                           ;		wreg, status,2, status,0, pclath, cstack
  1590                           ; Tracked objects:
  1591                           ;		On entry : 0/0
  1592                           ;		On exit  : 0/0
  1593                           ;		Unchanged: 0/0
  1594                           ; Data sizes:     COMMON   BANK0   BANK1   BANK3   BANK2
  1595                           ;      Locals:         0      15       0       0       0
  1596                           ;      Temp:     1
  1597                           ;      Total:   15
  1598                           ; This function calls:
  1599                           ;		_command
  1600                           ;		___awtoft
  1601                           ;		___ftmul
  1602                           ;		___ftdiv
  1603                           ;		___ftadd
  1604                           ;		___fttol
  1605                           ;		___awdiv
  1606                           ;		___awmod
  1607                           ;		_data
  1608                           ;		___ftneg
  1609                           ; This function is called by:
  1610                           ;		_main
  1611                           ; This function uses a non-reentrant model
  1612                           ; 
  1613                           psect	text125
  1614                           	file	"C:\Users\gowth\Documents\PIC Programs\ADC\Temp LM35\LM35.c"
  1615                           	line	208
  1616                           	global	__size_of_voltage
  1617  0210                     	__size_of_voltage	equ	__end_of_voltage-_voltage
  1618                           ;LM35.c: 207: void voltage()
  1619                           ;LM35.c: 208: {
  1620                           	
  1621  01E0                     _voltage:	
  1622                           	opt stack 7
  1623                           ; Regs used in _voltage: [wreg+status,2+status,0+pclath+cstack]
  1624                           	line	209
  1625                           	
  1626  01E0                     l30001472:	
  1627                           ;LM35.c: 209: command(0XC0);
  1628  01E0  30C0               	movlw	(0C0h)
  1629  01E1  120A  158A  22BC   	fcall	_command
              120A  118A         
  1630                           	line	214
  1631                           ;LM35.c: 211: int a,b,c,w;
  1632                           ;LM35.c: 212: float z,w1;
  1633                           ;LM35.c: 214: z=(DV*2.05)/1023.0;
  1634  01E6  0871               	movf	(_DV+1),w
  1635  01E7  1283               	bcf	status, 5	;RP0=0, select bank0
  1636  01E8  1303               	bcf	status, 6	;RP1=0, select bank0
  1637  01E9  01A7               	clrf	(?___awtoft+1)
  1638  01EA  07A7               	addwf	(?___awtoft+1)
  1639  01EB  0870               	movf	(_DV),w
  1640  01EC  01A6               	clrf	(?___awtoft)
  1641  01ED  07A6               	addwf	(?___awtoft)
  1642                           
  1643  01EE  120A  158A  2300   	fcall	___awtoft
              120A  118A         
  1644  01F3  1383               	bcf	status, 7	;select IRP bank0
  1645  01F4  1283               	bcf	status, 5	;RP0=0, select bank0
  1646  01F5  1303               	bcf	status, 6	;RP1=0, select bank0
  1647  01F6  0826               	movf	(0+(?___awtoft)),w
  1648  01F7  00B3               	movwf	(?___ftmul)
  1649  01F8  0827               	movf	(1+(?___awtoft)),w
  1650  01F9  00B4               	movwf	(?___ftmul+1)
  1651  01FA  0828               	movf	(2+(?___awtoft)),w
  1652  01FB  00B5               	movwf	(?___ftmul+2)
  1653  01FC  3033               	movlw	0x33
  1654  01FD  00B6               	movwf	0+(?___ftmul)+03h
  1655  01FE  3003               	movlw	0x3
  1656  01FF  00B7               	movwf	1+(?___ftmul)+03h
  1657  0200  3040               	movlw	0x40
  1658  0201  00B8               	movwf	2+(?___ftmul)+03h
  1659  0202  120A  158A  263B   	fcall	___ftmul
              120A  118A         
  1660  0207  1383               	bcf	status, 7	;select IRP bank0
  1661  0208  1283               	bcf	status, 5	;RP0=0, select bank0
  1662  0209  1303               	bcf	status, 6	;RP1=0, select bank0
  1663  020A  0833               	movf	(0+(?___ftmul)),w
  1664  020B  00C3               	movwf	(?___ftdiv)
  1665  020C  0834               	movf	(1+(?___ftmul)),w
  1666  020D  00C4               	movwf	(?___ftdiv+1)
  1667  020E  0835               	movf	(2+(?___ftmul)),w
  1668  020F  00C5               	movwf	(?___ftdiv+2)
  1669  0210  30C0               	movlw	0xc0
  1670  0211  00C6               	movwf	0+(?___ftdiv)+03h
  1671  0212  307F               	movlw	0x7f
  1672  0213  00C7               	movwf	1+(?___ftdiv)+03h
  1673  0214  3044               	movlw	0x44
  1674  0215  00C8               	movwf	2+(?___ftdiv)+03h
  1675  0216  120A  158A  2580   	fcall	___ftdiv
              120A  118A         
  1676  021B  1383               	bcf	status, 7	;select IRP bank0
  1677  021C  1283               	bcf	status, 5	;RP0=0, select bank0
  1678  021D  1303               	bcf	status, 6	;RP1=0, select bank0
  1679  021E  0843               	movf	(0+(?___ftdiv)),w
  1680  021F  00CA               	movwf	(voltage@z)
  1681  0220  0844               	movf	(1+(?___ftdiv)),w
  1682  0221  00CB               	movwf	(voltage@z+1)
  1683  0222  0845               	movf	(2+(?___ftdiv)),w
  1684  0223  00CC               	movwf	(voltage@z+2)
  1685                           	
  1686  0224                     l30001473:	
  1687                           	line	216
  1688                           ;LM35.c: 216: if(DV>275)
  1689  0224  0871               	movf	(_DV+1),w
  1690  0225  3A80               	xorlw	80h
  1691  0226  00C9               	movwf	(??_voltage+0+0)
  1692  0227  3081               	movlw	(high(0114h))^80h
  1693  0228  0249               	subwf	(??_voltage+0+0),w
  1694  0229  1D03               	skipz
  1695  022A  2A2D               	goto	u2465
  1696  022B  3014               	movlw	low(0114h)
  1697  022C  0270               	subwf	(_DV),w
  1698  022D                     u2465:
  1699                           
  1700  022D  1C03               	skipc
  1701  022E  2A30               	goto	u2461
  1702  022F  2A31               	goto	u2460
  1703  0230                     u2461:
  1704  0230  2B02               	goto	l30001475
  1705  0231                     u2460:
  1706                           	
  1707  0231                     l30001474:	
  1708                           	line	218
  1709                           ;LM35.c: 217: {
  1710                           ;LM35.c: 218: w1=z*100;
  1711  0231  1283               	bcf	status, 5	;RP0=0, select bank0
  1712  0232  1303               	bcf	status, 6	;RP1=0, select bank0
  1713  0233  084A               	movf	(voltage@z),w
  1714  0234  00B3               	movwf	(?___ftmul)
  1715  0235  084B               	movf	(voltage@z+1),w
  1716  0236  00B4               	movwf	(?___ftmul+1)
  1717  0237  084C               	movf	(voltage@z+2),w
  1718  0238  00B5               	movwf	(?___ftmul+2)
  1719  0239  3000               	movlw	0x0
  1720  023A  00B6               	movwf	0+(?___ftmul)+03h
  1721  023B  30C8               	movlw	0xc8
  1722  023C  00B7               	movwf	1+(?___ftmul)+03h
  1723  023D  3042               	movlw	0x42
  1724  023E  00B8               	movwf	2+(?___ftmul)+03h
  1725  023F  120A  158A  263B   	fcall	___ftmul
              120A  118A         
  1726  0244  1383               	bcf	status, 7	;select IRP bank0
  1727  0245  1283               	bcf	status, 5	;RP0=0, select bank0
  1728  0246  1303               	bcf	status, 6	;RP1=0, select bank0
  1729  0247  0833               	movf	(0+(?___ftmul)),w
  1730  0248  00CD               	movwf	(voltage@w1)
  1731  0249  0834               	movf	(1+(?___ftmul)),w
  1732  024A  00CE               	movwf	(voltage@w1+1)
  1733  024B  0835               	movf	(2+(?___ftmul)),w
  1734  024C  00CF               	movwf	(voltage@w1+2)
  1735                           	line	219
  1736                           ;LM35.c: 219: w= w1-55;
  1737  024D  084D               	movf	(voltage@w1),w
  1738  024E  00AB               	movwf	(?___ftadd)
  1739  024F  084E               	movf	(voltage@w1+1),w
  1740  0250  00AC               	movwf	(?___ftadd+1)
  1741  0251  084F               	movf	(voltage@w1+2),w
  1742  0252  00AD               	movwf	(?___ftadd+2)
  1743  0253  3000               	movlw	0x0
  1744  0254  00AE               	movwf	0+(?___ftadd)+03h
  1745  0255  305C               	movlw	0x5c
  1746  0256  00AF               	movwf	1+(?___ftadd)+03h
  1747  0257  30C2               	movlw	0xc2
  1748  0258  00B0               	movwf	2+(?___ftadd)+03h
  1749  0259  120A  118A  2094   	fcall	___ftadd
              120A  118A         
  1750  025E  1383               	bcf	status, 7	;select IRP bank0
  1751  025F  1283               	bcf	status, 5	;RP0=0, select bank0
  1752  0260  1303               	bcf	status, 6	;RP1=0, select bank0
  1753  0261  082B               	movf	(0+(?___ftadd)),w
  1754  0262  00BA               	movwf	(?___fttol)
  1755  0263  082C               	movf	(1+(?___ftadd)),w
  1756  0264  00BB               	movwf	(?___fttol+1)
  1757  0265  082D               	movf	(2+(?___ftadd)),w
  1758  0266  00BC               	movwf	(?___fttol+2)
  1759  0267  120A  118A  200D   	fcall	___fttol
              120A  118A         
  1760  026C  1383               	bcf	status, 7	;select IRP bank0
  1761  026D  1283               	bcf	status, 5	;RP0=0, select bank0
  1762  026E  1303               	bcf	status, 6	;RP1=0, select bank0
  1763  026F  083B               	movf	(1+(?___fttol)),w
  1764  0270  01D7               	clrf	(voltage@w+1)
  1765  0271  07D7               	addwf	(voltage@w+1)
  1766  0272  083A               	movf	(0+(?___fttol)),w
  1767  0273  01D6               	clrf	(voltage@w)
  1768  0274  07D6               	addwf	(voltage@w)
  1769                           
  1770                           	line	221
  1771                           ;LM35.c: 221: a=w/100;
  1772  0275  0857               	movf	(voltage@w+1),w
  1773  0276  01AB               	clrf	(?___awdiv+1)
  1774  0277  07AB               	addwf	(?___awdiv+1)
  1775  0278  0856               	movf	(voltage@w),w
  1776  0279  01AA               	clrf	(?___awdiv)
  1777  027A  07AA               	addwf	(?___awdiv)
  1778                           
  1779  027B  3064               	movlw	low(064h)
  1780  027C  00AC               	movwf	0+(?___awdiv)+02h
  1781  027D  3000               	movlw	high(064h)
  1782  027E  00AD               	movwf	(0+(?___awdiv)+02h)+1
  1783  027F  120A  158A  23E1   	fcall	___awdiv
              120A  118A         
  1784  0284  1383               	bcf	status, 7	;select IRP bank0
  1785  0285  1283               	bcf	status, 5	;RP0=0, select bank0
  1786  0286  1303               	bcf	status, 6	;RP1=0, select bank0
  1787  0287  082B               	movf	(1+(?___awdiv)),w
  1788  0288  01D3               	clrf	(voltage@a+1)
  1789  0289  07D3               	addwf	(voltage@a+1)
  1790  028A  082A               	movf	(0+(?___awdiv)),w
  1791  028B  01D2               	clrf	(voltage@a)
  1792  028C  07D2               	addwf	(voltage@a)
  1793                           
  1794                           	line	222
  1795                           ;LM35.c: 222: b=(w%100)/10;
  1796  028D  0857               	movf	(voltage@w+1),w
  1797  028E  01A3               	clrf	(?___awmod+1)
  1798  028F  07A3               	addwf	(?___awmod+1)
  1799  0290  0856               	movf	(voltage@w),w
  1800  0291  01A2               	clrf	(?___awmod)
  1801  0292  07A2               	addwf	(?___awmod)
  1802                           
  1803  0293  3064               	movlw	low(064h)
  1804  0294  00A4               	movwf	0+(?___awmod)+02h
  1805  0295  3000               	movlw	high(064h)
  1806  0296  00A5               	movwf	(0+(?___awmod)+02h)+1
  1807  0297  120A  158A  237F   	fcall	___awmod
              120A  118A         
  1808  029C  1383               	bcf	status, 7	;select IRP bank0
  1809  029D  1283               	bcf	status, 5	;RP0=0, select bank0
  1810  029E  1303               	bcf	status, 6	;RP1=0, select bank0
  1811  029F  0823               	movf	(1+(?___awmod)),w
  1812  02A0  01AB               	clrf	(?___awdiv+1)
  1813  02A1  07AB               	addwf	(?___awdiv+1)
  1814  02A2  0822               	movf	(0+(?___awmod)),w
  1815  02A3  01AA               	clrf	(?___awdiv)
  1816  02A4  07AA               	addwf	(?___awdiv)
  1817                           
  1818  02A5  300A               	movlw	low(0Ah)
  1819  02A6  00AC               	movwf	0+(?___awdiv)+02h
  1820  02A7  3000               	movlw	high(0Ah)
  1821  02A8  00AD               	movwf	(0+(?___awdiv)+02h)+1
  1822  02A9  120A  158A  23E1   	fcall	___awdiv
              120A  118A         
  1823  02AE  1383               	bcf	status, 7	;select IRP bank0
  1824  02AF  1283               	bcf	status, 5	;RP0=0, select bank0
  1825  02B0  1303               	bcf	status, 6	;RP1=0, select bank0
  1826  02B1  082B               	movf	(1+(?___awdiv)),w
  1827  02B2  01D5               	clrf	(voltage@b+1)
  1828  02B3  07D5               	addwf	(voltage@b+1)
  1829  02B4  082A               	movf	(0+(?___awdiv)),w
  1830  02B5  01D4               	clrf	(voltage@b)
  1831  02B6  07D4               	addwf	(voltage@b)
  1832                           
  1833                           	line	223
  1834                           ;LM35.c: 223: c=w%10;
  1835  02B7  0857               	movf	(voltage@w+1),w
  1836  02B8  01A3               	clrf	(?___awmod+1)
  1837  02B9  07A3               	addwf	(?___awmod+1)
  1838  02BA  0856               	movf	(voltage@w),w
  1839  02BB  01A2               	clrf	(?___awmod)
  1840  02BC  07A2               	addwf	(?___awmod)
  1841                           
  1842  02BD  300A               	movlw	low(0Ah)
  1843  02BE  00A4               	movwf	0+(?___awmod)+02h
  1844  02BF  3000               	movlw	high(0Ah)
  1845  02C0  00A5               	movwf	(0+(?___awmod)+02h)+1
  1846  02C1  120A  158A  237F   	fcall	___awmod
              120A  118A         
  1847  02C6  1383               	bcf	status, 7	;select IRP bank0
  1848  02C7  1283               	bcf	status, 5	;RP0=0, select bank0
  1849  02C8  1303               	bcf	status, 6	;RP1=0, select bank0
  1850  02C9  0823               	movf	(1+(?___awmod)),w
  1851  02CA  01D1               	clrf	(voltage@c+1)
  1852  02CB  07D1               	addwf	(voltage@c+1)
  1853  02CC  0822               	movf	(0+(?___awmod)),w
  1854  02CD  01D0               	clrf	(voltage@c)
  1855  02CE  07D0               	addwf	(voltage@c)
  1856                           
  1857                           	line	225
  1858                           ;LM35.c: 225: data(0X2B);
  1859  02CF  302B               	movlw	(02Bh)
  1860  02D0  120A  158A  22B0   	fcall	_data
              120A  118A         
  1861                           	line	226
  1862                           ;LM35.c: 226: data(a+48);
  1863  02D5  1283               	bcf	status, 5	;RP0=0, select bank0
  1864  02D6  1303               	bcf	status, 6	;RP1=0, select bank0
  1865  02D7  0852               	movf	(voltage@a),w
  1866  02D8  3E30               	addlw	030h
  1867  02D9  120A  158A  22B0   	fcall	_data
              120A  118A         
  1868                           	line	227
  1869                           ;LM35.c: 227: data(0X2E);
  1870  02DE  302E               	movlw	(02Eh)
  1871  02DF  120A  158A  22B0   	fcall	_data
              120A  118A         
  1872                           	line	228
  1873                           ;LM35.c: 228: data(b+48);
  1874  02E4  1283               	bcf	status, 5	;RP0=0, select bank0
  1875  02E5  1303               	bcf	status, 6	;RP1=0, select bank0
  1876  02E6  0854               	movf	(voltage@b),w
  1877  02E7  3E30               	addlw	030h
  1878  02E8  120A  158A  22B0   	fcall	_data
              120A  118A         
  1879                           	line	229
  1880                           ;LM35.c: 229: data(c+48);
  1881  02ED  1283               	bcf	status, 5	;RP0=0, select bank0
  1882  02EE  1303               	bcf	status, 6	;RP1=0, select bank0
  1883  02EF  0850               	movf	(voltage@c),w
  1884  02F0  3E30               	addlw	030h
  1885  02F1  120A  158A  22B0   	fcall	_data
              120A  118A         
  1886                           	line	230
  1887                           ;LM35.c: 230: data(0X20);
  1888  02F6  3020               	movlw	(020h)
  1889  02F7  120A  158A  22B0   	fcall	_data
              120A  118A         
  1890                           	line	231
  1891                           ;LM35.c: 231: data(0X56);
  1892  02FC  3056               	movlw	(056h)
  1893  02FD  120A  158A  22B0   	fcall	_data
              120A  118A         
  1894                           	
  1895  0302                     l30001475:	
  1896                           	line	234
  1897                           ;LM35.c: 232: }
  1898                           ;LM35.c: 234: if(DV<=275)
  1899  0302  0871               	movf	(_DV+1),w
  1900  0303  3A80               	xorlw	80h
  1901  0304  1283               	bcf	status, 5	;RP0=0, select bank0
  1902  0305  1303               	bcf	status, 6	;RP1=0, select bank0
  1903  0306  00C9               	movwf	(??_voltage+0+0)
  1904  0307  3081               	movlw	(high(0114h))^80h
  1905  0308  0249               	subwf	(??_voltage+0+0),w
  1906  0309  1D03               	skipz
  1907  030A  2B0D               	goto	u2475
  1908  030B  3014               	movlw	low(0114h)
  1909  030C  0270               	subwf	(_DV),w
  1910  030D                     u2475:
  1911                           
  1912  030D  1803               	skipnc
  1913  030E  2B10               	goto	u2471
  1914  030F  2B11               	goto	u2470
  1915  0310                     u2471:
  1916  0310  2BEF               	goto	l30
  1917  0311                     u2470:
  1918                           	
  1919  0311                     l30001476:	
  1920                           	line	236
  1921                           ;LM35.c: 235: {
  1922                           ;LM35.c: 236: w1=z*100;
  1923  0311  1283               	bcf	status, 5	;RP0=0, select bank0
  1924  0312  1303               	bcf	status, 6	;RP1=0, select bank0
  1925  0313  084A               	movf	(voltage@z),w
  1926  0314  00B3               	movwf	(?___ftmul)
  1927  0315  084B               	movf	(voltage@z+1),w
  1928  0316  00B4               	movwf	(?___ftmul+1)
  1929  0317  084C               	movf	(voltage@z+2),w
  1930  0318  00B5               	movwf	(?___ftmul+2)
  1931  0319  3000               	movlw	0x0
  1932  031A  00B6               	movwf	0+(?___ftmul)+03h
  1933  031B  30C8               	movlw	0xc8
  1934  031C  00B7               	movwf	1+(?___ftmul)+03h
  1935  031D  3042               	movlw	0x42
  1936  031E  00B8               	movwf	2+(?___ftmul)+03h
  1937  031F  120A  158A  263B   	fcall	___ftmul
              120A  118A         
  1938  0324  1383               	bcf	status, 7	;select IRP bank0
  1939  0325  1283               	bcf	status, 5	;RP0=0, select bank0
  1940  0326  1303               	bcf	status, 6	;RP1=0, select bank0
  1941  0327  0833               	movf	(0+(?___ftmul)),w
  1942  0328  00CD               	movwf	(voltage@w1)
  1943  0329  0834               	movf	(1+(?___ftmul)),w
  1944  032A  00CE               	movwf	(voltage@w1+1)
  1945  032B  0835               	movf	(2+(?___ftmul)),w
  1946  032C  00CF               	movwf	(voltage@w1+2)
  1947                           	line	237
  1948                           ;LM35.c: 237: w= 55-w1;
  1949  032D  084D               	movf	(voltage@w1),w
  1950  032E  00F6               	movwf	(?___ftneg)
  1951  032F  084E               	movf	(voltage@w1+1),w
  1952  0330  00F7               	movwf	(?___ftneg+1)
  1953  0331  084F               	movf	(voltage@w1+2),w
  1954  0332  00F8               	movwf	(?___ftneg+2)
  1955  0333  120A  118A  2003   	fcall	___ftneg
              120A  118A         
  1956  0338  0876               	movf	(0+(?___ftneg)),w
  1957  0339  1283               	bcf	status, 5	;RP0=0, select bank0
  1958  033A  1303               	bcf	status, 6	;RP1=0, select bank0
  1959  033B  00AB               	movwf	(?___ftadd)
  1960  033C  0877               	movf	(1+(?___ftneg)),w
  1961  033D  00AC               	movwf	(?___ftadd+1)
  1962  033E  0878               	movf	(2+(?___ftneg)),w
  1963  033F  00AD               	movwf	(?___ftadd+2)
  1964  0340  3000               	movlw	0x0
  1965  0341  00AE               	movwf	0+(?___ftadd)+03h
  1966  0342  305C               	movlw	0x5c
  1967  0343  00AF               	movwf	1+(?___ftadd)+03h
  1968  0344  3042               	movlw	0x42
  1969  0345  00B0               	movwf	2+(?___ftadd)+03h
  1970  0346  120A  118A  2094   	fcall	___ftadd
              120A  118A         
  1971  034B  1383               	bcf	status, 7	;select IRP bank0
  1972  034C  1283               	bcf	status, 5	;RP0=0, select bank0
  1973  034D  1303               	bcf	status, 6	;RP1=0, select bank0
  1974  034E  082B               	movf	(0+(?___ftadd)),w
  1975  034F  00BA               	movwf	(?___fttol)
  1976  0350  082C               	movf	(1+(?___ftadd)),w
  1977  0351  00BB               	movwf	(?___fttol+1)
  1978  0352  082D               	movf	(2+(?___ftadd)),w
  1979  0353  00BC               	movwf	(?___fttol+2)
  1980  0354  120A  118A  200D   	fcall	___fttol
              120A  118A         
  1981  0359  1383               	bcf	status, 7	;select IRP bank0
  1982  035A  1283               	bcf	status, 5	;RP0=0, select bank0
  1983  035B  1303               	bcf	status, 6	;RP1=0, select bank0
  1984  035C  083B               	movf	(1+(?___fttol)),w
  1985  035D  01D7               	clrf	(voltage@w+1)
  1986  035E  07D7               	addwf	(voltage@w+1)
  1987  035F  083A               	movf	(0+(?___fttol)),w
  1988  0360  01D6               	clrf	(voltage@w)
  1989  0361  07D6               	addwf	(voltage@w)
  1990                           
  1991                           	line	239
  1992                           ;LM35.c: 239: a=w/100;
  1993  0362  0857               	movf	(voltage@w+1),w
  1994  0363  01AB               	clrf	(?___awdiv+1)
  1995  0364  07AB               	addwf	(?___awdiv+1)
  1996  0365  0856               	movf	(voltage@w),w
  1997  0366  01AA               	clrf	(?___awdiv)
  1998  0367  07AA               	addwf	(?___awdiv)
  1999                           
  2000  0368  3064               	movlw	low(064h)
  2001  0369  00AC               	movwf	0+(?___awdiv)+02h
  2002  036A  3000               	movlw	high(064h)
  2003  036B  00AD               	movwf	(0+(?___awdiv)+02h)+1
  2004  036C  120A  158A  23E1   	fcall	___awdiv
              120A  118A         
  2005  0371  1383               	bcf	status, 7	;select IRP bank0
  2006  0372  1283               	bcf	status, 5	;RP0=0, select bank0
  2007  0373  1303               	bcf	status, 6	;RP1=0, select bank0
  2008  0374  082B               	movf	(1+(?___awdiv)),w
  2009  0375  01D3               	clrf	(voltage@a+1)
  2010  0376  07D3               	addwf	(voltage@a+1)
  2011  0377  082A               	movf	(0+(?___awdiv)),w
  2012  0378  01D2               	clrf	(voltage@a)
  2013  0379  07D2               	addwf	(voltage@a)
  2014                           
  2015                           	line	240
  2016                           ;LM35.c: 240: b=(w%100)/10;
  2017  037A  0857               	movf	(voltage@w+1),w
  2018  037B  01A3               	clrf	(?___awmod+1)
  2019  037C  07A3               	addwf	(?___awmod+1)
  2020  037D  0856               	movf	(voltage@w),w
  2021  037E  01A2               	clrf	(?___awmod)
  2022  037F  07A2               	addwf	(?___awmod)
  2023                           
  2024  0380  3064               	movlw	low(064h)
  2025  0381  00A4               	movwf	0+(?___awmod)+02h
  2026  0382  3000               	movlw	high(064h)
  2027  0383  00A5               	movwf	(0+(?___awmod)+02h)+1
  2028  0384  120A  158A  237F   	fcall	___awmod
              120A  118A         
  2029  0389  1383               	bcf	status, 7	;select IRP bank0
  2030  038A  1283               	bcf	status, 5	;RP0=0, select bank0
  2031  038B  1303               	bcf	status, 6	;RP1=0, select bank0
  2032  038C  0823               	movf	(1+(?___awmod)),w
  2033  038D  01AB               	clrf	(?___awdiv+1)
  2034  038E  07AB               	addwf	(?___awdiv+1)
  2035  038F  0822               	movf	(0+(?___awmod)),w
  2036  0390  01AA               	clrf	(?___awdiv)
  2037  0391  07AA               	addwf	(?___awdiv)
  2038                           
  2039  0392  300A               	movlw	low(0Ah)
  2040  0393  00AC               	movwf	0+(?___awdiv)+02h
  2041  0394  3000               	movlw	high(0Ah)
  2042  0395  00AD               	movwf	(0+(?___awdiv)+02h)+1
  2043  0396  120A  158A  23E1   	fcall	___awdiv
              120A  118A         
  2044  039B  1383               	bcf	status, 7	;select IRP bank0
  2045  039C  1283               	bcf	status, 5	;RP0=0, select bank0
  2046  039D  1303               	bcf	status, 6	;RP1=0, select bank0
  2047  039E  082B               	movf	(1+(?___awdiv)),w
  2048  039F  01D5               	clrf	(voltage@b+1)
  2049  03A0  07D5               	addwf	(voltage@b+1)
  2050  03A1  082A               	movf	(0+(?___awdiv)),w
  2051  03A2  01D4               	clrf	(voltage@b)
  2052  03A3  07D4               	addwf	(voltage@b)
  2053                           
  2054                           	line	241
  2055                           ;LM35.c: 241: c=w%10;
  2056  03A4  0857               	movf	(voltage@w+1),w
  2057  03A5  01A3               	clrf	(?___awmod+1)
  2058  03A6  07A3               	addwf	(?___awmod+1)
  2059  03A7  0856               	movf	(voltage@w),w
  2060  03A8  01A2               	clrf	(?___awmod)
  2061  03A9  07A2               	addwf	(?___awmod)
  2062                           
  2063  03AA  300A               	movlw	low(0Ah)
  2064  03AB  00A4               	movwf	0+(?___awmod)+02h
  2065  03AC  3000               	movlw	high(0Ah)
  2066  03AD  00A5               	movwf	(0+(?___awmod)+02h)+1
  2067  03AE  120A  158A  237F   	fcall	___awmod
              120A  118A         
  2068  03B3  1383               	bcf	status, 7	;select IRP bank0
  2069  03B4  1283               	bcf	status, 5	;RP0=0, select bank0
  2070  03B5  1303               	bcf	status, 6	;RP1=0, select bank0
  2071  03B6  0823               	movf	(1+(?___awmod)),w
  2072  03B7  01D1               	clrf	(voltage@c+1)
  2073  03B8  07D1               	addwf	(voltage@c+1)
  2074  03B9  0822               	movf	(0+(?___awmod)),w
  2075  03BA  01D0               	clrf	(voltage@c)
  2076  03BB  07D0               	addwf	(voltage@c)
  2077                           
  2078                           	line	243
  2079                           ;LM35.c: 243: data(0X2D);
  2080  03BC  302D               	movlw	(02Dh)
  2081  03BD  120A  158A  22B0   	fcall	_data
              120A  118A         
  2082                           	line	244
  2083                           ;LM35.c: 244: data(a+48);
  2084  03C2  1283               	bcf	status, 5	;RP0=0, select bank0
  2085  03C3  1303               	bcf	status, 6	;RP1=0, select bank0
  2086  03C4  0852               	movf	(voltage@a),w
  2087  03C5  3E30               	addlw	030h
  2088  03C6  120A  158A  22B0   	fcall	_data
              120A  118A         
  2089                           	line	245
  2090                           ;LM35.c: 245: data(0X2E);
  2091  03CB  302E               	movlw	(02Eh)
  2092  03CC  120A  158A  22B0   	fcall	_data
              120A  118A         
  2093                           	line	246
  2094                           ;LM35.c: 246: data(b+48);
  2095  03D1  1283               	bcf	status, 5	;RP0=0, select bank0
  2096  03D2  1303               	bcf	status, 6	;RP1=0, select bank0
  2097  03D3  0854               	movf	(voltage@b),w
  2098  03D4  3E30               	addlw	030h
  2099  03D5  120A  158A  22B0   	fcall	_data
              120A  118A         
  2100                           	line	247
  2101                           ;LM35.c: 247: data(c+48);
  2102  03DA  1283               	bcf	status, 5	;RP0=0, select bank0
  2103  03DB  1303               	bcf	status, 6	;RP1=0, select bank0
  2104  03DC  0850               	movf	(voltage@c),w
  2105  03DD  3E30               	addlw	030h
  2106  03DE  120A  158A  22B0   	fcall	_data
              120A  118A         
  2107                           	line	248
  2108                           ;LM35.c: 248: data(0X20);
  2109  03E3  3020               	movlw	(020h)
  2110  03E4  120A  158A  22B0   	fcall	_data
              120A  118A         
  2111                           	line	249
  2112                           ;LM35.c: 249: data(0X56);
  2113  03E9  3056               	movlw	(056h)
  2114  03EA  120A  158A  22B0   	fcall	_data
              120A  118A         
  2115                           	
  2116  03EF                     l30:	
  2117  03EF  0008               	return
  2118                           	opt stack 0
  2119                           GLOBAL	__end_of_voltage
  2120  03F0                     	__end_of_voltage:
  2121                           ; =============== function _voltage ends ============
  2122                           
  2123                           psect	text126,local,class=CODE,delta=2
  2124                           global __ptext126
  2125  0F17                     __ptext126:
  2126                           	line	252
  2127                           	signat	_voltage,88
  2128                           	global	_adc
  2129                           
  2130                           ; *************** function _adc *****************
  2131                           ; Defined at:
  2132                           ;		line 71 in file "C:\Users\gowth\Documents\PIC Programs\ADC\Temp LM35\LM35.c"
  2133                           ; Parameters:    Size  Location     Type
  2134                           ;		None
  2135                           ; Auto vars:     Size  Location     Type
  2136                           ;		None
  2137                           ; Return value:  Size  Location     Type
  2138                           ;		None               void
  2139                           ; Registers used:
  2140                           ;		wreg, status,2, status,0, pclath, cstack
  2141                           ; Tracked objects:
  2142                           ;		On entry : 0/0
  2143                           ;		On exit  : 0/0
  2144                           ;		Unchanged: 0/0
  2145                           ; Data sizes:     COMMON   BANK0   BANK1   BANK3   BANK2
  2146                           ;      Locals:         0       2       0       0       0
  2147                           ;      Temp:     2
  2148                           ;      Total:    2
  2149                           ; This function calls:
  2150                           ;		_count
  2151                           ; This function is called by:
  2152                           ;		_main
  2153                           ; This function uses a non-reentrant model
  2154                           ; 
  2155                           psect	text126
  2156                           	file	"C:\Users\gowth\Documents\PIC Programs\ADC\Temp LM35\LM35.c"
  2157                           	line	71
  2158                           	global	__size_of_adc
  2159  00E9                     	__size_of_adc	equ	__end_of_adc-_adc
  2160                           ;LM35.c: 70: void adc()
  2161                           ;LM35.c: 71: {
  2162                           	
  2163  0F17                     _adc:	
  2164                           	opt stack 7
  2165                           ; Regs used in _adc: [wreg+status,2+status,0+pclath+cstack]
  2166                           	line	72
  2167                           	
  2168  0F17                     l30001477:	
  2169                           ;LM35.c: 72: ADCON0=0X83; ADCON1=0XB0;
  2170  0F17  3083               	movlw	(083h)
  2171  0F18  1283               	bcf	status, 5	;RP0=0, select bank0
  2172  0F19  1303               	bcf	status, 6	;RP1=0, select bank0
  2173  0F1A  009F               	movwf	(31)	;volatile
  2174  0F1B  30B0               	movlw	(0B0h)
  2175  0F1C  1683               	bsf	status, 5	;RP0=1, select bank1
  2176  0F1D  1303               	bcf	status, 6	;RP1=0, select bank1
  2177  0F1E  009F               	movwf	(159)^080h
  2178                           	
  2179  0F1F                     l14:	
  2180                           	line	73
  2181  0F1F  1283               	bcf	status, 5	;RP0=0, select bank0
  2182  0F20  189F               	btfsc	(31),(1)&7	;volatile
  2183  0F21  2F23               	goto	u2481
  2184  0F22  2F24               	goto	u2480
  2185  0F23                     u2481:
  2186  0F23  2F1F               	goto	l14
  2187  0F24                     u2480:
  2188                           	
  2189  0F24                     l30001478:	
  2190                           	line	74
  2191                           ;LM35.c: 74: high=ADRESH; low=ADRESL;
  2192  0F24  081E               	movf	(30),w	;volatile
  2193  0F25  00B8               	movwf	(??_adc+0+0)
  2194  0F26  01B9               	clrf	(??_adc+0+0+1)
  2195  0F27  0838               	movf	0+(??_adc+0+0),w
  2196  0F28  00F2               	movwf	(_high)
  2197  0F29  0839               	movf	1+(??_adc+0+0),w
  2198  0F2A  00F3               	movwf	(_high+1)
  2199  0F2B  1683               	bsf	status, 5	;RP0=1, select bank1
  2200  0F2C  1303               	bcf	status, 6	;RP1=0, select bank1
  2201  0F2D  081E               	movf	(158)^080h,w	;volatile
  2202  0F2E  1283               	bcf	status, 5	;RP0=0, select bank0
  2203  0F2F  1303               	bcf	status, 6	;RP1=0, select bank0
  2204  0F30  00B8               	movwf	(??_adc+0+0)
  2205  0F31  01B9               	clrf	(??_adc+0+0+1)
  2206  0F32  0838               	movf	0+(??_adc+0+0),w
  2207  0F33  00F4               	movwf	(_low)
  2208  0F34  0839               	movf	1+(??_adc+0+0),w
  2209  0F35  00F5               	movwf	(_low+1)
  2210                           	
  2211  0F36                     l30001479:	
  2212                           	line	76
  2213                           ;LM35.c: 76: if(high==0)
  2214  0F36  0873               	movf	((_high+1)),w
  2215  0F37  0472               	iorwf	((_high)),w
  2216  0F38  1D03               	skipz
  2217  0F39  2F3B               	goto	u2491
  2218  0F3A  2F3C               	goto	u2490
  2219  0F3B                     u2491:
  2220  0F3B  2F4D               	goto	l30001482
  2221  0F3C                     u2490:
  2222                           	
  2223  0F3C                     l30001480:	
  2224                           	line	78
  2225                           ;LM35.c: 77: {
  2226                           ;LM35.c: 78: DV=low;
  2227  0F3C  0875               	movf	(_low+1),w
  2228  0F3D  01F1               	clrf	(_DV+1)
  2229  0F3E  07F1               	addwf	(_DV+1)
  2230  0F3F  0874               	movf	(_low),w
  2231  0F40  01F0               	clrf	(_DV)
  2232  0F41  07F0               	addwf	(_DV)
  2233                           
  2234                           	
  2235  0F42                     l30001481:	
  2236                           	line	79
  2237                           ;LM35.c: 79: count(DV);
  2238  0F42  0871               	movf	(_DV+1),w
  2239  0F43  01B7               	clrf	(?_count+1)
  2240  0F44  07B7               	addwf	(?_count+1)
  2241  0F45  0870               	movf	(_DV),w
  2242  0F46  01B6               	clrf	(?_count)
  2243  0F47  07B6               	addwf	(?_count)
  2244                           
  2245  0F48  120A  158A  24CF   	fcall	_count
              120A  158A         
  2246                           	
  2247  0F4D                     l30001482:	
  2248                           	line	82
  2249                           ;LM35.c: 80: }
  2250                           ;LM35.c: 82: if(high==1)
  2251  0F4D  3001               	movlw	01h
  2252  0F4E  0672               	xorwf	(_high),w
  2253  0F4F  0473               	iorwf	(_high+1),w
  2254  0F50  1D03               	skipz
  2255  0F51  2F53               	goto	u2501
  2256  0F52  2F54               	goto	u2500
  2257  0F53                     u2501:
  2258  0F53  2F69               	goto	l30001485
  2259  0F54                     u2500:
  2260                           	
  2261  0F54                     l30001483:	
  2262                           	line	84
  2263                           ;LM35.c: 83: {
  2264                           ;LM35.c: 84: DV=low+256;
  2265  0F54  0874               	movf	(_low),w
  2266  0F55  3E00               	addlw	low(0100h)
  2267  0F56  00F0               	movwf	(_DV)
  2268  0F57  0875               	movf	(_low+1),w
  2269  0F58  1803               	skipnc
  2270  0F59  3E01               	addlw	1
  2271  0F5A  3E01               	addlw	high(0100h)
  2272  0F5B  00F1               	movwf	1+(_DV)
  2273                           	
  2274  0F5C                     l30001484:	
  2275                           	line	85
  2276                           ;LM35.c: 85: count(DV);
  2277  0F5C  0871               	movf	(_DV+1),w
  2278  0F5D  1283               	bcf	status, 5	;RP0=0, select bank0
  2279  0F5E  1303               	bcf	status, 6	;RP1=0, select bank0
  2280  0F5F  01B7               	clrf	(?_count+1)
  2281  0F60  07B7               	addwf	(?_count+1)
  2282  0F61  0870               	movf	(_DV),w
  2283  0F62  01B6               	clrf	(?_count)
  2284  0F63  07B6               	addwf	(?_count)
  2285                           
  2286  0F64  120A  158A  24CF   	fcall	_count
              120A  158A         
  2287                           	
  2288  0F69                     l30001485:	
  2289                           	line	88
  2290                           ;LM35.c: 86: }
  2291                           ;LM35.c: 88: if(high==2)
  2292  0F69  3002               	movlw	02h
  2293  0F6A  0672               	xorwf	(_high),w
  2294  0F6B  0473               	iorwf	(_high+1),w
  2295  0F6C  1D03               	skipz
  2296  0F6D  2F6F               	goto	u2511
  2297  0F6E  2F70               	goto	u2510
  2298  0F6F                     u2511:
  2299  0F6F  2F85               	goto	l30001488
  2300  0F70                     u2510:
  2301                           	
  2302  0F70                     l30001486:	
  2303                           	line	90
  2304                           ;LM35.c: 89: {
  2305                           ;LM35.c: 90: DV=low+512;
  2306  0F70  0874               	movf	(_low),w
  2307  0F71  3E00               	addlw	low(0200h)
  2308  0F72  00F0               	movwf	(_DV)
  2309  0F73  0875               	movf	(_low+1),w
  2310  0F74  1803               	skipnc
  2311  0F75  3E01               	addlw	1
  2312  0F76  3E02               	addlw	high(0200h)
  2313  0F77  00F1               	movwf	1+(_DV)
  2314                           	
  2315  0F78                     l30001487:	
  2316                           	line	91
  2317                           ;LM35.c: 91: count(DV);
  2318  0F78  0871               	movf	(_DV+1),w
  2319  0F79  1283               	bcf	status, 5	;RP0=0, select bank0
  2320  0F7A  1303               	bcf	status, 6	;RP1=0, select bank0
  2321  0F7B  01B7               	clrf	(?_count+1)
  2322  0F7C  07B7               	addwf	(?_count+1)
  2323  0F7D  0870               	movf	(_DV),w
  2324  0F7E  01B6               	clrf	(?_count)
  2325  0F7F  07B6               	addwf	(?_count)
  2326                           
  2327  0F80  120A  158A  24CF   	fcall	_count
              120A  158A         
  2328                           	
  2329  0F85                     l30001488:	
  2330                           	line	94
  2331                           ;LM35.c: 92: }
  2332                           ;LM35.c: 94: if(high==3)
  2333  0F85  3003               	movlw	03h
  2334  0F86  0672               	xorwf	(_high),w
  2335  0F87  0473               	iorwf	(_high+1),w
  2336  0F88  1D03               	skipz
  2337  0F89  2F8B               	goto	u2521
  2338  0F8A  2F8C               	goto	u2520
  2339  0F8B                     u2521:
  2340  0F8B  2FA1               	goto	l30001491
  2341  0F8C                     u2520:
  2342                           	
  2343  0F8C                     l30001489:	
  2344                           	line	96
  2345                           ;LM35.c: 95: {
  2346                           ;LM35.c: 96: DV=low+768;
  2347  0F8C  0874               	movf	(_low),w
  2348  0F8D  3E00               	addlw	low(0300h)
  2349  0F8E  00F0               	movwf	(_DV)
  2350  0F8F  0875               	movf	(_low+1),w
  2351  0F90  1803               	skipnc
  2352  0F91  3E01               	addlw	1
  2353  0F92  3E03               	addlw	high(0300h)
  2354  0F93  00F1               	movwf	1+(_DV)
  2355                           	
  2356  0F94                     l30001490:	
  2357                           	line	97
  2358                           ;LM35.c: 97: count(DV);
  2359  0F94  0871               	movf	(_DV+1),w
  2360  0F95  1283               	bcf	status, 5	;RP0=0, select bank0
  2361  0F96  1303               	bcf	status, 6	;RP1=0, select bank0
  2362  0F97  01B7               	clrf	(?_count+1)
  2363  0F98  07B7               	addwf	(?_count+1)
  2364  0F99  0870               	movf	(_DV),w
  2365  0F9A  01B6               	clrf	(?_count)
  2366  0F9B  07B6               	addwf	(?_count)
  2367                           
  2368  0F9C  120A  158A  24CF   	fcall	_count
              120A  158A         
  2369                           	
  2370  0FA1                     l30001491:	
  2371                           	line	101
  2372                           ;LM35.c: 98: }
  2373                           ;LM35.c: 101: if(DV>434)
  2374  0FA1  0871               	movf	(_DV+1),w
  2375  0FA2  3A80               	xorlw	80h
  2376  0FA3  1283               	bcf	status, 5	;RP0=0, select bank0
  2377  0FA4  1303               	bcf	status, 6	;RP1=0, select bank0
  2378  0FA5  00B8               	movwf	(??_adc+0+0)
  2379  0FA6  3081               	movlw	(high(01B3h))^80h
  2380  0FA7  0238               	subwf	(??_adc+0+0),w
  2381  0FA8  1D03               	skipz
  2382  0FA9  2FAC               	goto	u2535
  2383  0FAA  30B3               	movlw	low(01B3h)
  2384  0FAB  0270               	subwf	(_DV),w
  2385  0FAC                     u2535:
  2386                           
  2387  0FAC  1C03               	skipc
  2388  0FAD  2FAF               	goto	u2531
  2389  0FAE  2FB0               	goto	u2530
  2390  0FAF                     u2531:
  2391  0FAF  2FB7               	goto	l21
  2392  0FB0                     u2530:
  2393                           	
  2394  0FB0                     l30001492:	
  2395                           	line	103
  2396                           ;LM35.c: 102: {
  2397                           ;LM35.c: 103: RA4=1;
  2398  0FB0  1283               	bcf	status, 5	;RP0=0, select bank0
  2399  0FB1  1303               	bcf	status, 6	;RP1=0, select bank0
  2400  0FB2  1605               	bsf	(44/8),(44)&7
  2401                           	
  2402  0FB3                     l30001493:	
  2403                           	line	104
  2404                           ;LM35.c: 104: k1=1;
  2405  0FB3  3001               	movlw	low(01h)
  2406  0FB4  00D8               	movwf	(_k1)
  2407  0FB5  3000               	movlw	high(01h)
  2408  0FB6  00D9               	movwf	((_k1))+1
  2409                           	
  2410  0FB7                     l21:	
  2411                           	line	107
  2412                           ;LM35.c: 105: }
  2413                           ;LM35.c: 107: if(k1==1)
  2414  0FB7  3001               	movlw	01h
  2415  0FB8  1283               	bcf	status, 5	;RP0=0, select bank0
  2416  0FB9  1303               	bcf	status, 6	;RP1=0, select bank0
  2417  0FBA  0658               	xorwf	(_k1),w
  2418  0FBB  0459               	iorwf	(_k1+1),w
  2419  0FBC  1D03               	skipz
  2420  0FBD  2FBF               	goto	u2541
  2421  0FBE  2FC0               	goto	u2540
  2422  0FBF                     u2541:
  2423  0FBF  2FD0               	goto	l30001496
  2424  0FC0                     u2540:
  2425                           	
  2426  0FC0                     l30001494:	
  2427                           	line	109
  2428                           ;LM35.c: 108: {
  2429                           ;LM35.c: 109: if(DV<400)
  2430  0FC0  0871               	movf	(_DV+1),w
  2431  0FC1  3A80               	xorlw	80h
  2432  0FC2  00B8               	movwf	(??_adc+0+0)
  2433  0FC3  3081               	movlw	(high(0190h))^80h
  2434  0FC4  0238               	subwf	(??_adc+0+0),w
  2435  0FC5  1D03               	skipz
  2436  0FC6  2FC9               	goto	u2555
  2437  0FC7  3090               	movlw	low(0190h)
  2438  0FC8  0270               	subwf	(_DV),w
  2439  0FC9                     u2555:
  2440                           
  2441  0FC9  1803               	skipnc
  2442  0FCA  2FCC               	goto	u2551
  2443  0FCB  2FCD               	goto	u2550
  2444  0FCC                     u2551:
  2445  0FCC  2FD0               	goto	l30001496
  2446  0FCD                     u2550:
  2447                           	
  2448  0FCD                     l30001495:	
  2449                           	line	111
  2450                           ;LM35.c: 110: {
  2451                           ;LM35.c: 111: RA4=0;
  2452  0FCD  1283               	bcf	status, 5	;RP0=0, select bank0
  2453  0FCE  1303               	bcf	status, 6	;RP1=0, select bank0
  2454  0FCF  1205               	bcf	(44/8),(44)&7
  2455                           	
  2456  0FD0                     l30001496:	
  2457                           	line	115
  2458                           ;LM35.c: 112: }
  2459                           ;LM35.c: 113: }
  2460                           ;LM35.c: 115: if(DV<308)
  2461  0FD0  0871               	movf	(_DV+1),w
  2462  0FD1  3A80               	xorlw	80h
  2463  0FD2  1283               	bcf	status, 5	;RP0=0, select bank0
  2464  0FD3  1303               	bcf	status, 6	;RP1=0, select bank0
  2465  0FD4  00B8               	movwf	(??_adc+0+0)
  2466  0FD5  3081               	movlw	(high(0134h))^80h
  2467  0FD6  0238               	subwf	(??_adc+0+0),w
  2468  0FD7  1D03               	skipz
  2469  0FD8  2FDB               	goto	u2565
  2470  0FD9  3034               	movlw	low(0134h)
  2471  0FDA  0270               	subwf	(_DV),w
  2472  0FDB                     u2565:
  2473                           
  2474  0FDB  1803               	skipnc
  2475  0FDC  2FDE               	goto	u2561
  2476  0FDD  2FDF               	goto	u2560
  2477  0FDE                     u2561:
  2478  0FDE  2FE6               	goto	l24
  2479  0FDF                     u2560:
  2480                           	
  2481  0FDF                     l30001497:	
  2482                           	line	117
  2483                           ;LM35.c: 116: {
  2484                           ;LM35.c: 117: RA5=1;
  2485  0FDF  1283               	bcf	status, 5	;RP0=0, select bank0
  2486  0FE0  1303               	bcf	status, 6	;RP1=0, select bank0
  2487  0FE1  1685               	bsf	(45/8),(45)&7
  2488                           	
  2489  0FE2                     l30001498:	
  2490                           	line	118
  2491                           ;LM35.c: 118: k2=1;
  2492  0FE2  3001               	movlw	low(01h)
  2493  0FE3  00DA               	movwf	(_k2)
  2494  0FE4  3000               	movlw	high(01h)
  2495  0FE5  00DB               	movwf	((_k2))+1
  2496                           	
  2497  0FE6                     l24:	
  2498                           	line	121
  2499                           ;LM35.c: 119: }
  2500                           ;LM35.c: 121: if(k2==1)
  2501  0FE6  3001               	movlw	01h
  2502  0FE7  1283               	bcf	status, 5	;RP0=0, select bank0
  2503  0FE8  1303               	bcf	status, 6	;RP1=0, select bank0
  2504  0FE9  065A               	xorwf	(_k2),w
  2505  0FEA  045B               	iorwf	(_k2+1),w
  2506  0FEB  1D03               	skipz
  2507  0FEC  2FEE               	goto	u2571
  2508  0FED  2FEF               	goto	u2570
  2509  0FEE                     u2571:
  2510  0FEE  2FFF               	goto	l13
  2511  0FEF                     u2570:
  2512                           	
  2513  0FEF                     l30001499:	
  2514                           	line	123
  2515                           ;LM35.c: 122: {
  2516                           ;LM35.c: 123: if(DV>435)
  2517  0FEF  0871               	movf	(_DV+1),w
  2518  0FF0  3A80               	xorlw	80h
  2519  0FF1  00B8               	movwf	(??_adc+0+0)
  2520  0FF2  3081               	movlw	(high(01B4h))^80h
  2521  0FF3  0238               	subwf	(??_adc+0+0),w
  2522  0FF4  1D03               	skipz
  2523  0FF5  2FF8               	goto	u2585
  2524  0FF6  30B4               	movlw	low(01B4h)
  2525  0FF7  0270               	subwf	(_DV),w
  2526  0FF8                     u2585:
  2527                           
  2528  0FF8  1C03               	skipc
  2529  0FF9  2FFB               	goto	u2581
  2530  0FFA  2FFC               	goto	u2580
  2531  0FFB                     u2581:
  2532  0FFB  2FFF               	goto	l13
  2533  0FFC                     u2580:
  2534                           	
  2535  0FFC                     l30001500:	
  2536                           	line	125
  2537                           ;LM35.c: 124: {
  2538                           ;LM35.c: 125: RA5=0;
  2539  0FFC  1283               	bcf	status, 5	;RP0=0, select bank0
  2540  0FFD  1303               	bcf	status, 6	;RP1=0, select bank0
  2541  0FFE  1285               	bcf	(45/8),(45)&7
  2542                           	
  2543  0FFF                     l13:	
  2544  0FFF  0008               	return
  2545                           	opt stack 0
  2546                           GLOBAL	__end_of_adc
  2547  1000                     	__end_of_adc:
  2548                           ; =============== function _adc ends ============
  2549                           
  2550                           psect	text127,local,class=CODE,delta=2
  2551                           global __ptext127
  2552  03F0                     __ptext127:
  2553                           	line	129
  2554                           	signat	_adc,88
  2555                           	global	_temperature
  2556                           
  2557                           ; *************** function _temperature *****************
  2558                           ; Defined at:
  2559                           ;		line 132 in file "C:\Users\gowth\Documents\PIC Programs\ADC\Temp LM35\LM35.c"
  2560                           ; Parameters:    Size  Location     Type
  2561                           ;		None
  2562                           ; Auto vars:     Size  Location     Type
  2563                           ;  buffer         20    0        unsigned char [20]
  2564                           ;  w1              3   35[BANK1 ] float 
  2565                           ;  z               3   20[BANK1 ] float 
  2566                           ;  w               2   38[BANK1 ] int 
  2567                           ;  f1              2   23[BANK1 ] int 
  2568                           ;  f               2   29[BANK1 ] int 
  2569                           ;  d1              2   31[BANK1 ] int 
  2570                           ;  d               2   33[BANK1 ] int 
  2571                           ;  b1              2   27[BANK1 ] int 
  2572                           ;  b               2   25[BANK1 ] int 
  2573                           ;  h1              2    6[BANK1 ] int 
  2574                           ;  h               2    4[BANK1 ] int 
  2575                           ;  g1              2    8[BANK1 ] int 
  2576                           ;  g               2   12[BANK1 ] int 
  2577                           ;  e1              2   10[BANK1 ] int 
  2578                           ;  e               2   14[BANK1 ] int 
  2579                           ;  c1              2    0[BANK1 ] int 
  2580                           ;  c               2   16[BANK1 ] int 
  2581                           ;  a1              2    2[BANK1 ] int 
  2582                           ;  a               2   18[BANK1 ] int 
  2583                           ; Return value:  Size  Location     Type
  2584                           ;		None               void
  2585                           ; Registers used:
  2586                           ;		wreg, status,2, status,0, pclath, cstack
  2587                           ; Tracked objects:
  2588                           ;		On entry : 0/0
  2589                           ;		On exit  : 0/0
  2590                           ;		Unchanged: 0/0
  2591                           ; Data sizes:     COMMON   BANK0   BANK1   BANK3   BANK2
  2592                           ;      Locals:         0       1      40       0       0
  2593                           ;      Temp:     1
  2594                           ;      Total:   41
  2595                           ; This function calls:
  2596                           ;		___awtoft
  2597                           ;		___ftmul
  2598                           ;		___ftdiv
  2599                           ;		___ftadd
  2600                           ;		___fttol
  2601                           ;		___awdiv
  2602                           ;		___awmod
  2603                           ;		_command
  2604                           ;		_data
  2605                           ;		___ftneg
  2606                           ; This function is called by:
  2607                           ;		_main
  2608                           ; This function uses a non-reentrant model
  2609                           ; 
  2610                           psect	text127
  2611                           	file	"C:\Users\gowth\Documents\PIC Programs\ADC\Temp LM35\LM35.c"
  2612                           	line	132
  2613                           	global	__size_of_temperature
  2614  0410                     	__size_of_temperature	equ	__end_of_temperature-_temperature
  2615                           ;LM35.c: 131: void temperature()
  2616                           ;LM35.c: 132: {
  2617                           	
  2618  03F0                     _temperature:	
  2619                           	opt stack 7
  2620                           ; Regs used in _temperature: [wreg+status,2+status,0+pclath+cstack]
  2621                           	line	137
  2622                           	
  2623  03F0                     l30001455:	
  2624                           ;LM35.c: 133: int a,b,c,d,e,f,g,h,w;
  2625                           ;LM35.c: 134: int a1,b1,c1,d1,e1,f1,g1,h1;
  2626                           ;LM35.c: 135: float z,w1;
  2627                           ;LM35.c: 136: char buffer[20];
  2628                           ;LM35.c: 137: z=(DV*205.0)/1023.0;
  2629  03F0  0871               	movf	(_DV+1),w
  2630  03F1  1283               	bcf	status, 5	;RP0=0, select bank0
  2631  03F2  1303               	bcf	status, 6	;RP1=0, select bank0
  2632  03F3  01A7               	clrf	(?___awtoft+1)
  2633  03F4  07A7               	addwf	(?___awtoft+1)
  2634  03F5  0870               	movf	(_DV),w
  2635  03F6  01A6               	clrf	(?___awtoft)
  2636  03F7  07A6               	addwf	(?___awtoft)
  2637                           
  2638  03F8  120A  158A  2300   	fcall	___awtoft
              120A  118A         
  2639  03FD  1383               	bcf	status, 7	;select IRP bank0
  2640  03FE  1283               	bcf	status, 5	;RP0=0, select bank0
  2641  03FF  1303               	bcf	status, 6	;RP1=0, select bank0
  2642  0400  0826               	movf	(0+(?___awtoft)),w
  2643  0401  00B3               	movwf	(?___ftmul)
  2644  0402  0827               	movf	(1+(?___awtoft)),w
  2645  0403  00B4               	movwf	(?___ftmul+1)
  2646  0404  0828               	movf	(2+(?___awtoft)),w
  2647  0405  00B5               	movwf	(?___ftmul+2)
  2648  0406  3000               	movlw	0x0
  2649  0407  00B6               	movwf	0+(?___ftmul)+03h
  2650  0408  304D               	movlw	0x4d
  2651  0409  00B7               	movwf	1+(?___ftmul)+03h
  2652  040A  3043               	movlw	0x43
  2653  040B  00B8               	movwf	2+(?___ftmul)+03h
  2654  040C  120A  158A  263B   	fcall	___ftmul
              120A  118A         
  2655  0411  1383               	bcf	status, 7	;select IRP bank0
  2656  0412  1283               	bcf	status, 5	;RP0=0, select bank0
  2657  0413  1303               	bcf	status, 6	;RP1=0, select bank0
  2658  0414  0833               	movf	(0+(?___ftmul)),w
  2659  0415  00C3               	movwf	(?___ftdiv)
  2660  0416  0834               	movf	(1+(?___ftmul)),w
  2661  0417  00C4               	movwf	(?___ftdiv+1)
  2662  0418  0835               	movf	(2+(?___ftmul)),w
  2663  0419  00C5               	movwf	(?___ftdiv+2)
  2664  041A  30C0               	movlw	0xc0
  2665  041B  00C6               	movwf	0+(?___ftdiv)+03h
  2666  041C  307F               	movlw	0x7f
  2667  041D  00C7               	movwf	1+(?___ftdiv)+03h
  2668  041E  3044               	movlw	0x44
  2669  041F  00C8               	movwf	2+(?___ftdiv)+03h
  2670  0420  120A  158A  2580   	fcall	___ftdiv
              120A  118A         
  2671  0425  1383               	bcf	status, 7	;select IRP bank0
  2672  0426  1283               	bcf	status, 5	;RP0=0, select bank0
  2673  0427  1303               	bcf	status, 6	;RP1=0, select bank0
  2674  0428  0843               	movf	(0+(?___ftdiv)),w
  2675  0429  1683               	bsf	status, 5	;RP0=1, select bank1
  2676  042A  1303               	bcf	status, 6	;RP1=0, select bank1
  2677  042B  00B4               	movwf	(temperature@z)^080h
  2678  042C  1283               	bcf	status, 5	;RP0=0, select bank0
  2679  042D  1303               	bcf	status, 6	;RP1=0, select bank0
  2680  042E  0844               	movf	(1+(?___ftdiv)),w
  2681  042F  1683               	bsf	status, 5	;RP0=1, select bank1
  2682  0430  1303               	bcf	status, 6	;RP1=0, select bank1
  2683  0431  00B5               	movwf	(temperature@z+1)^080h
  2684  0432  1283               	bcf	status, 5	;RP0=0, select bank0
  2685  0433  1303               	bcf	status, 6	;RP1=0, select bank0
  2686  0434  0845               	movf	(2+(?___ftdiv)),w
  2687  0435  1683               	bsf	status, 5	;RP0=1, select bank1
  2688  0436  1303               	bcf	status, 6	;RP1=0, select bank1
  2689  0437  00B6               	movwf	(temperature@z+2)^080h
  2690                           	
  2691  0438                     l30001456:	
  2692                           	line	140
  2693                           ;LM35.c: 140: if(DV>275)
  2694  0438  0871               	movf	(_DV+1),w
  2695  0439  3A80               	xorlw	80h
  2696  043A  1283               	bcf	status, 5	;RP0=0, select bank0
  2697  043B  1303               	bcf	status, 6	;RP1=0, select bank0
  2698  043C  00C9               	movwf	(??_temperature+0+0)
  2699  043D  3081               	movlw	(high(0114h))^80h
  2700  043E  0249               	subwf	(??_temperature+0+0),w
  2701  043F  1D03               	skipz
  2702  0440  2C43               	goto	u2445
  2703  0441  3014               	movlw	low(0114h)
  2704  0442  0270               	subwf	(_DV),w
  2705  0443                     u2445:
  2706                           
  2707  0443  1C03               	skipc
  2708  0444  2C46               	goto	u2441
  2709  0445  2C47               	goto	u2440
  2710  0446                     u2441:
  2711  0446  2E1A               	goto	l30001458
  2712  0447                     u2440:
  2713                           	
  2714  0447                     l30001457:	
  2715                           	line	143
  2716                           ;LM35.c: 141: {
  2717                           ;LM35.c: 143: w1=z*100;
  2718  0447  1683               	bsf	status, 5	;RP0=1, select bank1
  2719  0448  1303               	bcf	status, 6	;RP1=0, select bank1
  2720  0449  0834               	movf	(temperature@z)^080h,w
  2721  044A  1283               	bcf	status, 5	;RP0=0, select bank0
  2722  044B  1303               	bcf	status, 6	;RP1=0, select bank0
  2723  044C  00B3               	movwf	(?___ftmul)
  2724  044D  1683               	bsf	status, 5	;RP0=1, select bank1
  2725  044E  1303               	bcf	status, 6	;RP1=0, select bank1
  2726  044F  0835               	movf	(temperature@z+1)^080h,w
  2727  0450  1283               	bcf	status, 5	;RP0=0, select bank0
  2728  0451  1303               	bcf	status, 6	;RP1=0, select bank0
  2729  0452  00B4               	movwf	(?___ftmul+1)
  2730  0453  1683               	bsf	status, 5	;RP0=1, select bank1
  2731  0454  1303               	bcf	status, 6	;RP1=0, select bank1
  2732  0455  0836               	movf	(temperature@z+2)^080h,w
  2733  0456  1283               	bcf	status, 5	;RP0=0, select bank0
  2734  0457  1303               	bcf	status, 6	;RP1=0, select bank0
  2735  0458  00B5               	movwf	(?___ftmul+2)
  2736  0459  3000               	movlw	0x0
  2737  045A  00B6               	movwf	0+(?___ftmul)+03h
  2738  045B  30C8               	movlw	0xc8
  2739  045C  00B7               	movwf	1+(?___ftmul)+03h
  2740  045D  3042               	movlw	0x42
  2741  045E  00B8               	movwf	2+(?___ftmul)+03h
  2742  045F  120A  158A  263B   	fcall	___ftmul
              120A  118A         
  2743  0464  1383               	bcf	status, 7	;select IRP bank0
  2744  0465  1283               	bcf	status, 5	;RP0=0, select bank0
  2745  0466  1303               	bcf	status, 6	;RP1=0, select bank0
  2746  0467  0833               	movf	(0+(?___ftmul)),w
  2747  0468  1683               	bsf	status, 5	;RP0=1, select bank1
  2748  0469  1303               	bcf	status, 6	;RP1=0, select bank1
  2749  046A  00C3               	movwf	(temperature@w1)^080h
  2750  046B  1283               	bcf	status, 5	;RP0=0, select bank0
  2751  046C  1303               	bcf	status, 6	;RP1=0, select bank0
  2752  046D  0834               	movf	(1+(?___ftmul)),w
  2753  046E  1683               	bsf	status, 5	;RP0=1, select bank1
  2754  046F  1303               	bcf	status, 6	;RP1=0, select bank1
  2755  0470  00C4               	movwf	(temperature@w1+1)^080h
  2756  0471  1283               	bcf	status, 5	;RP0=0, select bank0
  2757  0472  1303               	bcf	status, 6	;RP1=0, select bank0
  2758  0473  0835               	movf	(2+(?___ftmul)),w
  2759  0474  1683               	bsf	status, 5	;RP0=1, select bank1
  2760  0475  1303               	bcf	status, 6	;RP1=0, select bank1
  2761  0476  00C5               	movwf	(temperature@w1+2)^080h
  2762                           	line	144
  2763                           ;LM35.c: 144: w=w1-5500;
  2764  0477  0843               	movf	(temperature@w1)^080h,w
  2765  0478  1283               	bcf	status, 5	;RP0=0, select bank0
  2766  0479  1303               	bcf	status, 6	;RP1=0, select bank0
  2767  047A  00AB               	movwf	(?___ftadd)
  2768  047B  1683               	bsf	status, 5	;RP0=1, select bank1
  2769  047C  1303               	bcf	status, 6	;RP1=0, select bank1
  2770  047D  0844               	movf	(temperature@w1+1)^080h,w
  2771  047E  1283               	bcf	status, 5	;RP0=0, select bank0
  2772  047F  1303               	bcf	status, 6	;RP1=0, select bank0
  2773  0480  00AC               	movwf	(?___ftadd+1)
  2774  0481  1683               	bsf	status, 5	;RP0=1, select bank1
  2775  0482  1303               	bcf	status, 6	;RP1=0, select bank1
  2776  0483  0845               	movf	(temperature@w1+2)^080h,w
  2777  0484  1283               	bcf	status, 5	;RP0=0, select bank0
  2778  0485  1303               	bcf	status, 6	;RP1=0, select bank0
  2779  0486  00AD               	movwf	(?___ftadd+2)
  2780  0487  30E0               	movlw	0xe0
  2781  0488  00AE               	movwf	0+(?___ftadd)+03h
  2782  0489  30AB               	movlw	0xab
  2783  048A  00AF               	movwf	1+(?___ftadd)+03h
  2784  048B  30C5               	movlw	0xc5
  2785  048C  00B0               	movwf	2+(?___ftadd)+03h
  2786  048D  120A  118A  2094   	fcall	___ftadd
              120A  118A         
  2787  0492  1383               	bcf	status, 7	;select IRP bank0
  2788  0493  1283               	bcf	status, 5	;RP0=0, select bank0
  2789  0494  1303               	bcf	status, 6	;RP1=0, select bank0
  2790  0495  082B               	movf	(0+(?___ftadd)),w
  2791  0496  00BA               	movwf	(?___fttol)
  2792  0497  082C               	movf	(1+(?___ftadd)),w
  2793  0498  00BB               	movwf	(?___fttol+1)
  2794  0499  082D               	movf	(2+(?___ftadd)),w
  2795  049A  00BC               	movwf	(?___fttol+2)
  2796  049B  120A  118A  200D   	fcall	___fttol
              120A  118A         
  2797  04A0  1383               	bcf	status, 7	;select IRP bank0
  2798  04A1  1283               	bcf	status, 5	;RP0=0, select bank0
  2799  04A2  1303               	bcf	status, 6	;RP1=0, select bank0
  2800  04A3  083B               	movf	(1+(?___fttol)),w
  2801  04A4  1683               	bsf	status, 5	;RP0=1, select bank1
  2802  04A5  1303               	bcf	status, 6	;RP1=0, select bank1
  2803  04A6  01C7               	clrf	(temperature@w+1)^080h
  2804  04A7  07C7               	addwf	(temperature@w+1)^080h
  2805  04A8  1283               	bcf	status, 5	;RP0=0, select bank0
  2806  04A9  1303               	bcf	status, 6	;RP1=0, select bank0
  2807  04AA  083A               	movf	(0+(?___fttol)),w
  2808  04AB  1683               	bsf	status, 5	;RP0=1, select bank1
  2809  04AC  1303               	bcf	status, 6	;RP1=0, select bank1
  2810  04AD  01C6               	clrf	(temperature@w)^080h
  2811  04AE  07C6               	addwf	(temperature@w)^080h
  2812                           
  2813                           	line	146
  2814                           ;LM35.c: 146: a=w/10000;
  2815  04AF  0847               	movf	(temperature@w+1)^080h,w
  2816  04B0  1283               	bcf	status, 5	;RP0=0, select bank0
  2817  04B1  1303               	bcf	status, 6	;RP1=0, select bank0
  2818  04B2  01AB               	clrf	(?___awdiv+1)
  2819  04B3  07AB               	addwf	(?___awdiv+1)
  2820  04B4  1683               	bsf	status, 5	;RP0=1, select bank1
  2821  04B5  1303               	bcf	status, 6	;RP1=0, select bank1
  2822  04B6  0846               	movf	(temperature@w)^080h,w
  2823  04B7  1283               	bcf	status, 5	;RP0=0, select bank0
  2824  04B8  1303               	bcf	status, 6	;RP1=0, select bank0
  2825  04B9  01AA               	clrf	(?___awdiv)
  2826  04BA  07AA               	addwf	(?___awdiv)
  2827                           
  2828  04BB  3010               	movlw	low(02710h)
  2829  04BC  00AC               	movwf	0+(?___awdiv)+02h
  2830  04BD  3027               	movlw	high(02710h)
  2831  04BE  00AD               	movwf	(0+(?___awdiv)+02h)+1
  2832  04BF  120A  158A  23E1   	fcall	___awdiv
              120A  118A         
  2833  04C4  1383               	bcf	status, 7	;select IRP bank0
  2834  04C5  1283               	bcf	status, 5	;RP0=0, select bank0
  2835  04C6  1303               	bcf	status, 6	;RP1=0, select bank0
  2836  04C7  082B               	movf	(1+(?___awdiv)),w
  2837  04C8  1683               	bsf	status, 5	;RP0=1, select bank1
  2838  04C9  1303               	bcf	status, 6	;RP1=0, select bank1
  2839  04CA  01B3               	clrf	(temperature@a+1)^080h
  2840  04CB  07B3               	addwf	(temperature@a+1)^080h
  2841  04CC  1283               	bcf	status, 5	;RP0=0, select bank0
  2842  04CD  1303               	bcf	status, 6	;RP1=0, select bank0
  2843  04CE  082A               	movf	(0+(?___awdiv)),w
  2844  04CF  1683               	bsf	status, 5	;RP0=1, select bank1
  2845  04D0  1303               	bcf	status, 6	;RP1=0, select bank1
  2846  04D1  01B2               	clrf	(temperature@a)^080h
  2847  04D2  07B2               	addwf	(temperature@a)^080h
  2848                           
  2849                           	line	147
  2850                           ;LM35.c: 147: b=w%10000;
  2851  04D3  0847               	movf	(temperature@w+1)^080h,w
  2852  04D4  1283               	bcf	status, 5	;RP0=0, select bank0
  2853  04D5  1303               	bcf	status, 6	;RP1=0, select bank0
  2854  04D6  01A3               	clrf	(?___awmod+1)
  2855  04D7  07A3               	addwf	(?___awmod+1)
  2856  04D8  1683               	bsf	status, 5	;RP0=1, select bank1
  2857  04D9  1303               	bcf	status, 6	;RP1=0, select bank1
  2858  04DA  0846               	movf	(temperature@w)^080h,w
  2859  04DB  1283               	bcf	status, 5	;RP0=0, select bank0
  2860  04DC  1303               	bcf	status, 6	;RP1=0, select bank0
  2861  04DD  01A2               	clrf	(?___awmod)
  2862  04DE  07A2               	addwf	(?___awmod)
  2863                           
  2864  04DF  3010               	movlw	low(02710h)
  2865  04E0  00A4               	movwf	0+(?___awmod)+02h
  2866  04E1  3027               	movlw	high(02710h)
  2867  04E2  00A5               	movwf	(0+(?___awmod)+02h)+1
  2868  04E3  120A  158A  237F   	fcall	___awmod
              120A  118A         
  2869  04E8  1383               	bcf	status, 7	;select IRP bank0
  2870  04E9  1283               	bcf	status, 5	;RP0=0, select bank0
  2871  04EA  1303               	bcf	status, 6	;RP1=0, select bank0
  2872  04EB  0823               	movf	(1+(?___awmod)),w
  2873  04EC  1683               	bsf	status, 5	;RP0=1, select bank1
  2874  04ED  1303               	bcf	status, 6	;RP1=0, select bank1
  2875  04EE  01BA               	clrf	(temperature@b+1)^080h
  2876  04EF  07BA               	addwf	(temperature@b+1)^080h
  2877  04F0  1283               	bcf	status, 5	;RP0=0, select bank0
  2878  04F1  1303               	bcf	status, 6	;RP1=0, select bank0
  2879  04F2  0822               	movf	(0+(?___awmod)),w
  2880  04F3  1683               	bsf	status, 5	;RP0=1, select bank1
  2881  04F4  1303               	bcf	status, 6	;RP1=0, select bank1
  2882  04F5  01B9               	clrf	(temperature@b)^080h
  2883  04F6  07B9               	addwf	(temperature@b)^080h
  2884                           
  2885                           	line	148
  2886                           ;LM35.c: 148: c=b/1000;
  2887  04F7  083A               	movf	(temperature@b+1)^080h,w
  2888  04F8  1283               	bcf	status, 5	;RP0=0, select bank0
  2889  04F9  1303               	bcf	status, 6	;RP1=0, select bank0
  2890  04FA  01AB               	clrf	(?___awdiv+1)
  2891  04FB  07AB               	addwf	(?___awdiv+1)
  2892  04FC  1683               	bsf	status, 5	;RP0=1, select bank1
  2893  04FD  1303               	bcf	status, 6	;RP1=0, select bank1
  2894  04FE  0839               	movf	(temperature@b)^080h,w
  2895  04FF  1283               	bcf	status, 5	;RP0=0, select bank0
  2896  0500  1303               	bcf	status, 6	;RP1=0, select bank0
  2897  0501  01AA               	clrf	(?___awdiv)
  2898  0502  07AA               	addwf	(?___awdiv)
  2899                           
  2900  0503  30E8               	movlw	low(03E8h)
  2901  0504  00AC               	movwf	0+(?___awdiv)+02h
  2902  0505  3003               	movlw	high(03E8h)
  2903  0506  00AD               	movwf	(0+(?___awdiv)+02h)+1
  2904  0507  120A  158A  23E1   	fcall	___awdiv
              120A  118A         
  2905  050C  1383               	bcf	status, 7	;select IRP bank0
  2906  050D  1283               	bcf	status, 5	;RP0=0, select bank0
  2907  050E  1303               	bcf	status, 6	;RP1=0, select bank0
  2908  050F  082B               	movf	(1+(?___awdiv)),w
  2909  0510  1683               	bsf	status, 5	;RP0=1, select bank1
  2910  0511  1303               	bcf	status, 6	;RP1=0, select bank1
  2911  0512  01B1               	clrf	(temperature@c+1)^080h
  2912  0513  07B1               	addwf	(temperature@c+1)^080h
  2913  0514  1283               	bcf	status, 5	;RP0=0, select bank0
  2914  0515  1303               	bcf	status, 6	;RP1=0, select bank0
  2915  0516  082A               	movf	(0+(?___awdiv)),w
  2916  0517  1683               	bsf	status, 5	;RP0=1, select bank1
  2917  0518  1303               	bcf	status, 6	;RP1=0, select bank1
  2918  0519  01B0               	clrf	(temperature@c)^080h
  2919  051A  07B0               	addwf	(temperature@c)^080h
  2920                           
  2921                           	line	149
  2922                           ;LM35.c: 149: d=b%1000;
  2923  051B  083A               	movf	(temperature@b+1)^080h,w
  2924  051C  1283               	bcf	status, 5	;RP0=0, select bank0
  2925  051D  1303               	bcf	status, 6	;RP1=0, select bank0
  2926  051E  01A3               	clrf	(?___awmod+1)
  2927  051F  07A3               	addwf	(?___awmod+1)
  2928  0520  1683               	bsf	status, 5	;RP0=1, select bank1
  2929  0521  1303               	bcf	status, 6	;RP1=0, select bank1
  2930  0522  0839               	movf	(temperature@b)^080h,w
  2931  0523  1283               	bcf	status, 5	;RP0=0, select bank0
  2932  0524  1303               	bcf	status, 6	;RP1=0, select bank0
  2933  0525  01A2               	clrf	(?___awmod)
  2934  0526  07A2               	addwf	(?___awmod)
  2935                           
  2936  0527  30E8               	movlw	low(03E8h)
  2937  0528  00A4               	movwf	0+(?___awmod)+02h
  2938  0529  3003               	movlw	high(03E8h)
  2939  052A  00A5               	movwf	(0+(?___awmod)+02h)+1
  2940  052B  120A  158A  237F   	fcall	___awmod
              120A  118A         
  2941  0530  1383               	bcf	status, 7	;select IRP bank0
  2942  0531  1283               	bcf	status, 5	;RP0=0, select bank0
  2943  0532  1303               	bcf	status, 6	;RP1=0, select bank0
  2944  0533  0823               	movf	(1+(?___awmod)),w
  2945  0534  1683               	bsf	status, 5	;RP0=1, select bank1
  2946  0535  1303               	bcf	status, 6	;RP1=0, select bank1
  2947  0536  01C2               	clrf	(temperature@d+1)^080h
  2948  0537  07C2               	addwf	(temperature@d+1)^080h
  2949  0538  1283               	bcf	status, 5	;RP0=0, select bank0
  2950  0539  1303               	bcf	status, 6	;RP1=0, select bank0
  2951  053A  0822               	movf	(0+(?___awmod)),w
  2952  053B  1683               	bsf	status, 5	;RP0=1, select bank1
  2953  053C  1303               	bcf	status, 6	;RP1=0, select bank1
  2954  053D  01C1               	clrf	(temperature@d)^080h
  2955  053E  07C1               	addwf	(temperature@d)^080h
  2956                           
  2957                           	line	150
  2958                           ;LM35.c: 150: e=d/100;
  2959  053F  0842               	movf	(temperature@d+1)^080h,w
  2960  0540  1283               	bcf	status, 5	;RP0=0, select bank0
  2961  0541  1303               	bcf	status, 6	;RP1=0, select bank0
  2962  0542  01AB               	clrf	(?___awdiv+1)
  2963  0543  07AB               	addwf	(?___awdiv+1)
  2964  0544  1683               	bsf	status, 5	;RP0=1, select bank1
  2965  0545  1303               	bcf	status, 6	;RP1=0, select bank1
  2966  0546  0841               	movf	(temperature@d)^080h,w
  2967  0547  1283               	bcf	status, 5	;RP0=0, select bank0
  2968  0548  1303               	bcf	status, 6	;RP1=0, select bank0
  2969  0549  01AA               	clrf	(?___awdiv)
  2970  054A  07AA               	addwf	(?___awdiv)
  2971                           
  2972  054B  3064               	movlw	low(064h)
  2973  054C  00AC               	movwf	0+(?___awdiv)+02h
  2974  054D  3000               	movlw	high(064h)
  2975  054E  00AD               	movwf	(0+(?___awdiv)+02h)+1
  2976  054F  120A  158A  23E1   	fcall	___awdiv
              120A  118A         
  2977  0554  1383               	bcf	status, 7	;select IRP bank0
  2978  0555  1283               	bcf	status, 5	;RP0=0, select bank0
  2979  0556  1303               	bcf	status, 6	;RP1=0, select bank0
  2980  0557  082B               	movf	(1+(?___awdiv)),w
  2981  0558  1683               	bsf	status, 5	;RP0=1, select bank1
  2982  0559  1303               	bcf	status, 6	;RP1=0, select bank1
  2983  055A  01AF               	clrf	(temperature@e+1)^080h
  2984  055B  07AF               	addwf	(temperature@e+1)^080h
  2985  055C  1283               	bcf	status, 5	;RP0=0, select bank0
  2986  055D  1303               	bcf	status, 6	;RP1=0, select bank0
  2987  055E  082A               	movf	(0+(?___awdiv)),w
  2988  055F  1683               	bsf	status, 5	;RP0=1, select bank1
  2989  0560  1303               	bcf	status, 6	;RP1=0, select bank1
  2990  0561  01AE               	clrf	(temperature@e)^080h
  2991  0562  07AE               	addwf	(temperature@e)^080h
  2992                           
  2993                           	line	151
  2994                           ;LM35.c: 151: f=d%100;
  2995  0563  0842               	movf	(temperature@d+1)^080h,w
  2996  0564  1283               	bcf	status, 5	;RP0=0, select bank0
  2997  0565  1303               	bcf	status, 6	;RP1=0, select bank0
  2998  0566  01A3               	clrf	(?___awmod+1)
  2999  0567  07A3               	addwf	(?___awmod+1)
  3000  0568  1683               	bsf	status, 5	;RP0=1, select bank1
  3001  0569  1303               	bcf	status, 6	;RP1=0, select bank1
  3002  056A  0841               	movf	(temperature@d)^080h,w
  3003  056B  1283               	bcf	status, 5	;RP0=0, select bank0
  3004  056C  1303               	bcf	status, 6	;RP1=0, select bank0
  3005  056D  01A2               	clrf	(?___awmod)
  3006  056E  07A2               	addwf	(?___awmod)
  3007                           
  3008  056F  3064               	movlw	low(064h)
  3009  0570  00A4               	movwf	0+(?___awmod)+02h
  3010  0571  3000               	movlw	high(064h)
  3011  0572  00A5               	movwf	(0+(?___awmod)+02h)+1
  3012  0573  120A  158A  237F   	fcall	___awmod
              120A  118A         
  3013  0578  1383               	bcf	status, 7	;select IRP bank0
  3014  0579  1283               	bcf	status, 5	;RP0=0, select bank0
  3015  057A  1303               	bcf	status, 6	;RP1=0, select bank0
  3016  057B  0823               	movf	(1+(?___awmod)),w
  3017  057C  1683               	bsf	status, 5	;RP0=1, select bank1
  3018  057D  1303               	bcf	status, 6	;RP1=0, select bank1
  3019  057E  01BE               	clrf	(temperature@f+1)^080h
  3020  057F  07BE               	addwf	(temperature@f+1)^080h
  3021  0580  1283               	bcf	status, 5	;RP0=0, select bank0
  3022  0581  1303               	bcf	status, 6	;RP1=0, select bank0
  3023  0582  0822               	movf	(0+(?___awmod)),w
  3024  0583  1683               	bsf	status, 5	;RP0=1, select bank1
  3025  0584  1303               	bcf	status, 6	;RP1=0, select bank1
  3026  0585  01BD               	clrf	(temperature@f)^080h
  3027  0586  07BD               	addwf	(temperature@f)^080h
  3028                           
  3029                           	line	152
  3030                           ;LM35.c: 152: g=f/10;
  3031  0587  083E               	movf	(temperature@f+1)^080h,w
  3032  0588  1283               	bcf	status, 5	;RP0=0, select bank0
  3033  0589  1303               	bcf	status, 6	;RP1=0, select bank0
  3034  058A  01AB               	clrf	(?___awdiv+1)
  3035  058B  07AB               	addwf	(?___awdiv+1)
  3036  058C  1683               	bsf	status, 5	;RP0=1, select bank1
  3037  058D  1303               	bcf	status, 6	;RP1=0, select bank1
  3038  058E  083D               	movf	(temperature@f)^080h,w
  3039  058F  1283               	bcf	status, 5	;RP0=0, select bank0
  3040  0590  1303               	bcf	status, 6	;RP1=0, select bank0
  3041  0591  01AA               	clrf	(?___awdiv)
  3042  0592  07AA               	addwf	(?___awdiv)
  3043                           
  3044  0593  300A               	movlw	low(0Ah)
  3045  0594  00AC               	movwf	0+(?___awdiv)+02h
  3046  0595  3000               	movlw	high(0Ah)
  3047  0596  00AD               	movwf	(0+(?___awdiv)+02h)+1
  3048  0597  120A  158A  23E1   	fcall	___awdiv
              120A  118A         
  3049  059C  1383               	bcf	status, 7	;select IRP bank0
  3050  059D  1283               	bcf	status, 5	;RP0=0, select bank0
  3051  059E  1303               	bcf	status, 6	;RP1=0, select bank0
  3052  059F  082B               	movf	(1+(?___awdiv)),w
  3053  05A0  1683               	bsf	status, 5	;RP0=1, select bank1
  3054  05A1  1303               	bcf	status, 6	;RP1=0, select bank1
  3055  05A2  01AD               	clrf	(temperature@g+1)^080h
  3056  05A3  07AD               	addwf	(temperature@g+1)^080h
  3057  05A4  1283               	bcf	status, 5	;RP0=0, select bank0
  3058  05A5  1303               	bcf	status, 6	;RP1=0, select bank0
  3059  05A6  082A               	movf	(0+(?___awdiv)),w
  3060  05A7  1683               	bsf	status, 5	;RP0=1, select bank1
  3061  05A8  1303               	bcf	status, 6	;RP1=0, select bank1
  3062  05A9  01AC               	clrf	(temperature@g)^080h
  3063  05AA  07AC               	addwf	(temperature@g)^080h
  3064                           
  3065                           	line	153
  3066                           ;LM35.c: 153: h=f%10;
  3067  05AB  083E               	movf	(temperature@f+1)^080h,w
  3068  05AC  1283               	bcf	status, 5	;RP0=0, select bank0
  3069  05AD  1303               	bcf	status, 6	;RP1=0, select bank0
  3070  05AE  01A3               	clrf	(?___awmod+1)
  3071  05AF  07A3               	addwf	(?___awmod+1)
  3072  05B0  1683               	bsf	status, 5	;RP0=1, select bank1
  3073  05B1  1303               	bcf	status, 6	;RP1=0, select bank1
  3074  05B2  083D               	movf	(temperature@f)^080h,w
  3075  05B3  1283               	bcf	status, 5	;RP0=0, select bank0
  3076  05B4  1303               	bcf	status, 6	;RP1=0, select bank0
  3077  05B5  01A2               	clrf	(?___awmod)
  3078  05B6  07A2               	addwf	(?___awmod)
  3079                           
  3080  05B7  300A               	movlw	low(0Ah)
  3081  05B8  00A4               	movwf	0+(?___awmod)+02h
  3082  05B9  3000               	movlw	high(0Ah)
  3083  05BA  00A5               	movwf	(0+(?___awmod)+02h)+1
  3084  05BB  120A  158A  237F   	fcall	___awmod
              120A  118A         
  3085  05C0  1383               	bcf	status, 7	;select IRP bank0
  3086  05C1  1283               	bcf	status, 5	;RP0=0, select bank0
  3087  05C2  1303               	bcf	status, 6	;RP1=0, select bank0
  3088  05C3  0823               	movf	(1+(?___awmod)),w
  3089  05C4  1683               	bsf	status, 5	;RP0=1, select bank1
  3090  05C5  1303               	bcf	status, 6	;RP1=0, select bank1
  3091  05C6  01A5               	clrf	(temperature@h+1)^080h
  3092  05C7  07A5               	addwf	(temperature@h+1)^080h
  3093  05C8  1283               	bcf	status, 5	;RP0=0, select bank0
  3094  05C9  1303               	bcf	status, 6	;RP1=0, select bank0
  3095  05CA  0822               	movf	(0+(?___awmod)),w
  3096  05CB  1683               	bsf	status, 5	;RP0=1, select bank1
  3097  05CC  1303               	bcf	status, 6	;RP1=0, select bank1
  3098  05CD  01A4               	clrf	(temperature@h)^080h
  3099  05CE  07A4               	addwf	(temperature@h)^080h
  3100                           
  3101                           	line	155
  3102                           ;LM35.c: 155: command(0X87);
  3103  05CF  3087               	movlw	(087h)
  3104  05D0  120A  158A  22BC   	fcall	_command
              120A  118A         
  3105                           	line	157
  3106                           ;LM35.c: 157: data(0X2B);
  3107  05D5  302B               	movlw	(02Bh)
  3108  05D6  120A  158A  22B0   	fcall	_data
              120A  118A         
  3109                           	line	158
  3110                           ;LM35.c: 158: data(a+48);
  3111  05DB  1683               	bsf	status, 5	;RP0=1, select bank1
  3112  05DC  1303               	bcf	status, 6	;RP1=0, select bank1
  3113  05DD  0832               	movf	(temperature@a)^080h,w
  3114  05DE  3E30               	addlw	030h
  3115  05DF  120A  158A  22B0   	fcall	_data
              120A  118A         
  3116                           	line	159
  3117                           ;LM35.c: 159: data(c+48);
  3118  05E4  1683               	bsf	status, 5	;RP0=1, select bank1
  3119  05E5  1303               	bcf	status, 6	;RP1=0, select bank1
  3120  05E6  0830               	movf	(temperature@c)^080h,w
  3121  05E7  3E30               	addlw	030h
  3122  05E8  120A  158A  22B0   	fcall	_data
              120A  118A         
  3123                           	line	160
  3124                           ;LM35.c: 160: data(e+48);
  3125  05ED  1683               	bsf	status, 5	;RP0=1, select bank1
  3126  05EE  1303               	bcf	status, 6	;RP1=0, select bank1
  3127  05EF  082E               	movf	(temperature@e)^080h,w
  3128  05F0  3E30               	addlw	030h
  3129  05F1  120A  158A  22B0   	fcall	_data
              120A  118A         
  3130                           	line	161
  3131                           ;LM35.c: 161: data(0X2E);
  3132  05F6  302E               	movlw	(02Eh)
  3133  05F7  120A  158A  22B0   	fcall	_data
              120A  118A         
  3134                           	line	162
  3135                           ;LM35.c: 162: data(g+48);
  3136  05FC  1683               	bsf	status, 5	;RP0=1, select bank1
  3137  05FD  1303               	bcf	status, 6	;RP1=0, select bank1
  3138  05FE  082C               	movf	(temperature@g)^080h,w
  3139  05FF  3E30               	addlw	030h
  3140  0600  120A  158A  22B0   	fcall	_data
              120A  118A         
  3141                           	line	163
  3142                           ;LM35.c: 163: data(h+48);
  3143  0605  1683               	bsf	status, 5	;RP0=1, select bank1
  3144  0606  1303               	bcf	status, 6	;RP1=0, select bank1
  3145  0607  0824               	movf	(temperature@h)^080h,w
  3146  0608  3E30               	addlw	030h
  3147  0609  120A  158A  22B0   	fcall	_data
              120A  118A         
  3148                           	line	164
  3149                           ;LM35.c: 164: data(0XDF);
  3150  060E  30DF               	movlw	(0DFh)
  3151  060F  120A  158A  22B0   	fcall	_data
              120A  118A         
  3152                           	line	165
  3153                           ;LM35.c: 165: data(0X43);
  3154  0614  3043               	movlw	(043h)
  3155  0615  120A  158A  22B0   	fcall	_data
              120A  118A         
  3156                           	
  3157  061A                     l30001458:	
  3158                           	line	169
  3159                           ;LM35.c: 166: }
  3160                           ;LM35.c: 169: if(DV<275)
  3161  061A  0871               	movf	(_DV+1),w
  3162  061B  3A80               	xorlw	80h
  3163  061C  1283               	bcf	status, 5	;RP0=0, select bank0
  3164  061D  1303               	bcf	status, 6	;RP1=0, select bank0
  3165  061E  00C9               	movwf	(??_temperature+0+0)
  3166  061F  3081               	movlw	(high(0113h))^80h
  3167  0620  0249               	subwf	(??_temperature+0+0),w
  3168  0621  1D03               	skipz
  3169  0622  2E25               	goto	u2455
  3170  0623  3013               	movlw	low(0113h)
  3171  0624  0270               	subwf	(_DV),w
  3172  0625                     u2455:
  3173                           
  3174  0625  1803               	skipnc
  3175  0626  2E28               	goto	u2451
  3176  0627  2E29               	goto	u2450
  3177  0628                     u2451:
  3178  0628  2FFF               	goto	l27
  3179  0629                     u2450:
  3180                           	
  3181  0629                     l30001459:	
  3182                           	line	172
  3183                           ;LM35.c: 170: {
  3184                           ;LM35.c: 172: w1=z*100;
  3185  0629  1683               	bsf	status, 5	;RP0=1, select bank1
  3186  062A  1303               	bcf	status, 6	;RP1=0, select bank1
  3187  062B  0834               	movf	(temperature@z)^080h,w
  3188  062C  1283               	bcf	status, 5	;RP0=0, select bank0
  3189  062D  1303               	bcf	status, 6	;RP1=0, select bank0
  3190  062E  00B3               	movwf	(?___ftmul)
  3191  062F  1683               	bsf	status, 5	;RP0=1, select bank1
  3192  0630  1303               	bcf	status, 6	;RP1=0, select bank1
  3193  0631  0835               	movf	(temperature@z+1)^080h,w
  3194  0632  1283               	bcf	status, 5	;RP0=0, select bank0
  3195  0633  1303               	bcf	status, 6	;RP1=0, select bank0
  3196  0634  00B4               	movwf	(?___ftmul+1)
  3197  0635  1683               	bsf	status, 5	;RP0=1, select bank1
  3198  0636  1303               	bcf	status, 6	;RP1=0, select bank1
  3199  0637  0836               	movf	(temperature@z+2)^080h,w
  3200  0638  1283               	bcf	status, 5	;RP0=0, select bank0
  3201  0639  1303               	bcf	status, 6	;RP1=0, select bank0
  3202  063A  00B5               	movwf	(?___ftmul+2)
  3203  063B  3000               	movlw	0x0
  3204  063C  00B6               	movwf	0+(?___ftmul)+03h
  3205  063D  30C8               	movlw	0xc8
  3206  063E  00B7               	movwf	1+(?___ftmul)+03h
  3207  063F  3042               	movlw	0x42
  3208  0640  00B8               	movwf	2+(?___ftmul)+03h
  3209  0641  120A  158A  263B   	fcall	___ftmul
              120A  118A         
  3210  0646  1383               	bcf	status, 7	;select IRP bank0
  3211  0647  1283               	bcf	status, 5	;RP0=0, select bank0
  3212  0648  1303               	bcf	status, 6	;RP1=0, select bank0
  3213  0649  0833               	movf	(0+(?___ftmul)),w
  3214  064A  1683               	bsf	status, 5	;RP0=1, select bank1
  3215  064B  1303               	bcf	status, 6	;RP1=0, select bank1
  3216  064C  00C3               	movwf	(temperature@w1)^080h
  3217  064D  1283               	bcf	status, 5	;RP0=0, select bank0
  3218  064E  1303               	bcf	status, 6	;RP1=0, select bank0
  3219  064F  0834               	movf	(1+(?___ftmul)),w
  3220  0650  1683               	bsf	status, 5	;RP0=1, select bank1
  3221  0651  1303               	bcf	status, 6	;RP1=0, select bank1
  3222  0652  00C4               	movwf	(temperature@w1+1)^080h
  3223  0653  1283               	bcf	status, 5	;RP0=0, select bank0
  3224  0654  1303               	bcf	status, 6	;RP1=0, select bank0
  3225  0655  0835               	movf	(2+(?___ftmul)),w
  3226  0656  1683               	bsf	status, 5	;RP0=1, select bank1
  3227  0657  1303               	bcf	status, 6	;RP1=0, select bank1
  3228  0658  00C5               	movwf	(temperature@w1+2)^080h
  3229                           	line	173
  3230                           ;LM35.c: 173: w=5500-w1;
  3231  0659  0843               	movf	(temperature@w1)^080h,w
  3232  065A  00F6               	movwf	(?___ftneg)
  3233  065B  0844               	movf	(temperature@w1+1)^080h,w
  3234  065C  00F7               	movwf	(?___ftneg+1)
  3235  065D  0845               	movf	(temperature@w1+2)^080h,w
  3236  065E  00F8               	movwf	(?___ftneg+2)
  3237  065F  120A  118A  2003   	fcall	___ftneg
              120A  118A         
  3238  0664  0876               	movf	(0+(?___ftneg)),w
  3239  0665  1283               	bcf	status, 5	;RP0=0, select bank0
  3240  0666  1303               	bcf	status, 6	;RP1=0, select bank0
  3241  0667  00AB               	movwf	(?___ftadd)
  3242  0668  0877               	movf	(1+(?___ftneg)),w
  3243  0669  00AC               	movwf	(?___ftadd+1)
  3244  066A  0878               	movf	(2+(?___ftneg)),w
  3245  066B  00AD               	movwf	(?___ftadd+2)
  3246  066C  30E0               	movlw	0xe0
  3247  066D  00AE               	movwf	0+(?___ftadd)+03h
  3248  066E  30AB               	movlw	0xab
  3249  066F  00AF               	movwf	1+(?___ftadd)+03h
  3250  0670  3045               	movlw	0x45
  3251  0671  00B0               	movwf	2+(?___ftadd)+03h
  3252  0672  120A  118A  2094   	fcall	___ftadd
              120A  118A         
  3253  0677  1383               	bcf	status, 7	;select IRP bank0
  3254  0678  1283               	bcf	status, 5	;RP0=0, select bank0
  3255  0679  1303               	bcf	status, 6	;RP1=0, select bank0
  3256  067A  082B               	movf	(0+(?___ftadd)),w
  3257  067B  00BA               	movwf	(?___fttol)
  3258  067C  082C               	movf	(1+(?___ftadd)),w
  3259  067D  00BB               	movwf	(?___fttol+1)
  3260  067E  082D               	movf	(2+(?___ftadd)),w
  3261  067F  00BC               	movwf	(?___fttol+2)
  3262  0680  120A  118A  200D   	fcall	___fttol
              120A  118A         
  3263  0685  1383               	bcf	status, 7	;select IRP bank0
  3264  0686  1283               	bcf	status, 5	;RP0=0, select bank0
  3265  0687  1303               	bcf	status, 6	;RP1=0, select bank0
  3266  0688  083B               	movf	(1+(?___fttol)),w
  3267  0689  1683               	bsf	status, 5	;RP0=1, select bank1
  3268  068A  1303               	bcf	status, 6	;RP1=0, select bank1
  3269  068B  01C7               	clrf	(temperature@w+1)^080h
  3270  068C  07C7               	addwf	(temperature@w+1)^080h
  3271  068D  1283               	bcf	status, 5	;RP0=0, select bank0
  3272  068E  1303               	bcf	status, 6	;RP1=0, select bank0
  3273  068F  083A               	movf	(0+(?___fttol)),w
  3274  0690  1683               	bsf	status, 5	;RP0=1, select bank1
  3275  0691  1303               	bcf	status, 6	;RP1=0, select bank1
  3276  0692  01C6               	clrf	(temperature@w)^080h
  3277  0693  07C6               	addwf	(temperature@w)^080h
  3278                           
  3279                           	line	180
  3280                           ;LM35.c: 180: a1=w/10000;
  3281  0694  0847               	movf	(temperature@w+1)^080h,w
  3282  0695  1283               	bcf	status, 5	;RP0=0, select bank0
  3283  0696  1303               	bcf	status, 6	;RP1=0, select bank0
  3284  0697  01AB               	clrf	(?___awdiv+1)
  3285  0698  07AB               	addwf	(?___awdiv+1)
  3286  0699  1683               	bsf	status, 5	;RP0=1, select bank1
  3287  069A  1303               	bcf	status, 6	;RP1=0, select bank1
  3288  069B  0846               	movf	(temperature@w)^080h,w
  3289  069C  1283               	bcf	status, 5	;RP0=0, select bank0
  3290  069D  1303               	bcf	status, 6	;RP1=0, select bank0
  3291  069E  01AA               	clrf	(?___awdiv)
  3292  069F  07AA               	addwf	(?___awdiv)
  3293                           
  3294  06A0  3010               	movlw	low(02710h)
  3295  06A1  00AC               	movwf	0+(?___awdiv)+02h
  3296  06A2  3027               	movlw	high(02710h)
  3297  06A3  00AD               	movwf	(0+(?___awdiv)+02h)+1
  3298  06A4  120A  158A  23E1   	fcall	___awdiv
              120A  118A         
  3299  06A9  1383               	bcf	status, 7	;select IRP bank0
  3300  06AA  1283               	bcf	status, 5	;RP0=0, select bank0
  3301  06AB  1303               	bcf	status, 6	;RP1=0, select bank0
  3302  06AC  082B               	movf	(1+(?___awdiv)),w
  3303  06AD  1683               	bsf	status, 5	;RP0=1, select bank1
  3304  06AE  1303               	bcf	status, 6	;RP1=0, select bank1
  3305  06AF  01A3               	clrf	(temperature@a1+1)^080h
  3306  06B0  07A3               	addwf	(temperature@a1+1)^080h
  3307  06B1  1283               	bcf	status, 5	;RP0=0, select bank0
  3308  06B2  1303               	bcf	status, 6	;RP1=0, select bank0
  3309  06B3  082A               	movf	(0+(?___awdiv)),w
  3310  06B4  1683               	bsf	status, 5	;RP0=1, select bank1
  3311  06B5  1303               	bcf	status, 6	;RP1=0, select bank1
  3312  06B6  01A2               	clrf	(temperature@a1)^080h
  3313  06B7  07A2               	addwf	(temperature@a1)^080h
  3314                           
  3315                           	line	181
  3316                           ;LM35.c: 181: b1=w%10000;
  3317  06B8  0847               	movf	(temperature@w+1)^080h,w
  3318  06B9  1283               	bcf	status, 5	;RP0=0, select bank0
  3319  06BA  1303               	bcf	status, 6	;RP1=0, select bank0
  3320  06BB  01A3               	clrf	(?___awmod+1)
  3321  06BC  07A3               	addwf	(?___awmod+1)
  3322  06BD  1683               	bsf	status, 5	;RP0=1, select bank1
  3323  06BE  1303               	bcf	status, 6	;RP1=0, select bank1
  3324  06BF  0846               	movf	(temperature@w)^080h,w
  3325  06C0  1283               	bcf	status, 5	;RP0=0, select bank0
  3326  06C1  1303               	bcf	status, 6	;RP1=0, select bank0
  3327  06C2  01A2               	clrf	(?___awmod)
  3328  06C3  07A2               	addwf	(?___awmod)
  3329                           
  3330  06C4  3010               	movlw	low(02710h)
  3331  06C5  00A4               	movwf	0+(?___awmod)+02h
  3332  06C6  3027               	movlw	high(02710h)
  3333  06C7  00A5               	movwf	(0+(?___awmod)+02h)+1
  3334  06C8  120A  158A  237F   	fcall	___awmod
              120A  118A         
  3335  06CD  1383               	bcf	status, 7	;select IRP bank0
  3336  06CE  1283               	bcf	status, 5	;RP0=0, select bank0
  3337  06CF  1303               	bcf	status, 6	;RP1=0, select bank0
  3338  06D0  0823               	movf	(1+(?___awmod)),w
  3339  06D1  1683               	bsf	status, 5	;RP0=1, select bank1
  3340  06D2  1303               	bcf	status, 6	;RP1=0, select bank1
  3341  06D3  01BC               	clrf	(temperature@b1+1)^080h
  3342  06D4  07BC               	addwf	(temperature@b1+1)^080h
  3343  06D5  1283               	bcf	status, 5	;RP0=0, select bank0
  3344  06D6  1303               	bcf	status, 6	;RP1=0, select bank0
  3345  06D7  0822               	movf	(0+(?___awmod)),w
  3346  06D8  1683               	bsf	status, 5	;RP0=1, select bank1
  3347  06D9  1303               	bcf	status, 6	;RP1=0, select bank1
  3348  06DA  01BB               	clrf	(temperature@b1)^080h
  3349  06DB  07BB               	addwf	(temperature@b1)^080h
  3350                           
  3351                           	line	182
  3352                           ;LM35.c: 182: c1=b1/1000;
  3353  06DC  083C               	movf	(temperature@b1+1)^080h,w
  3354  06DD  1283               	bcf	status, 5	;RP0=0, select bank0
  3355  06DE  1303               	bcf	status, 6	;RP1=0, select bank0
  3356  06DF  01AB               	clrf	(?___awdiv+1)
  3357  06E0  07AB               	addwf	(?___awdiv+1)
  3358  06E1  1683               	bsf	status, 5	;RP0=1, select bank1
  3359  06E2  1303               	bcf	status, 6	;RP1=0, select bank1
  3360  06E3  083B               	movf	(temperature@b1)^080h,w
  3361  06E4  1283               	bcf	status, 5	;RP0=0, select bank0
  3362  06E5  1303               	bcf	status, 6	;RP1=0, select bank0
  3363  06E6  01AA               	clrf	(?___awdiv)
  3364  06E7  07AA               	addwf	(?___awdiv)
  3365                           
  3366  06E8  30E8               	movlw	low(03E8h)
  3367  06E9  00AC               	movwf	0+(?___awdiv)+02h
  3368  06EA  3003               	movlw	high(03E8h)
  3369  06EB  00AD               	movwf	(0+(?___awdiv)+02h)+1
  3370  06EC  120A  158A  23E1   	fcall	___awdiv
              120A  118A         
  3371  06F1  1383               	bcf	status, 7	;select IRP bank0
  3372  06F2  1283               	bcf	status, 5	;RP0=0, select bank0
  3373  06F3  1303               	bcf	status, 6	;RP1=0, select bank0
  3374  06F4  082B               	movf	(1+(?___awdiv)),w
  3375  06F5  1683               	bsf	status, 5	;RP0=1, select bank1
  3376  06F6  1303               	bcf	status, 6	;RP1=0, select bank1
  3377  06F7  01A1               	clrf	(temperature@c1+1)^080h
  3378  06F8  07A1               	addwf	(temperature@c1+1)^080h
  3379  06F9  1283               	bcf	status, 5	;RP0=0, select bank0
  3380  06FA  1303               	bcf	status, 6	;RP1=0, select bank0
  3381  06FB  082A               	movf	(0+(?___awdiv)),w
  3382  06FC  1683               	bsf	status, 5	;RP0=1, select bank1
  3383  06FD  1303               	bcf	status, 6	;RP1=0, select bank1
  3384  06FE  01A0               	clrf	(temperature@c1)^080h
  3385  06FF  07A0               	addwf	(temperature@c1)^080h
  3386                           
  3387                           	line	183
  3388                           ;LM35.c: 183: d1=b1%1000;
  3389  0700  083C               	movf	(temperature@b1+1)^080h,w
  3390  0701  1283               	bcf	status, 5	;RP0=0, select bank0
  3391  0702  1303               	bcf	status, 6	;RP1=0, select bank0
  3392  0703  01A3               	clrf	(?___awmod+1)
  3393  0704  07A3               	addwf	(?___awmod+1)
  3394  0705  1683               	bsf	status, 5	;RP0=1, select bank1
  3395  0706  1303               	bcf	status, 6	;RP1=0, select bank1
  3396  0707  083B               	movf	(temperature@b1)^080h,w
  3397  0708  1283               	bcf	status, 5	;RP0=0, select bank0
  3398  0709  1303               	bcf	status, 6	;RP1=0, select bank0
  3399  070A  01A2               	clrf	(?___awmod)
  3400  070B  07A2               	addwf	(?___awmod)
  3401                           
  3402  070C  30E8               	movlw	low(03E8h)
  3403  070D  00A4               	movwf	0+(?___awmod)+02h
  3404  070E  3003               	movlw	high(03E8h)
  3405  070F  00A5               	movwf	(0+(?___awmod)+02h)+1
  3406  0710  120A  158A  237F   	fcall	___awmod
              120A  118A         
  3407  0715  1383               	bcf	status, 7	;select IRP bank0
  3408  0716  1283               	bcf	status, 5	;RP0=0, select bank0
  3409  0717  1303               	bcf	status, 6	;RP1=0, select bank0
  3410  0718  0823               	movf	(1+(?___awmod)),w
  3411  0719  1683               	bsf	status, 5	;RP0=1, select bank1
  3412  071A  1303               	bcf	status, 6	;RP1=0, select bank1
  3413  071B  01C0               	clrf	(temperature@d1+1)^080h
  3414  071C  07C0               	addwf	(temperature@d1+1)^080h
  3415  071D  1283               	bcf	status, 5	;RP0=0, select bank0
  3416  071E  1303               	bcf	status, 6	;RP1=0, select bank0
  3417  071F  0822               	movf	(0+(?___awmod)),w
  3418  0720  1683               	bsf	status, 5	;RP0=1, select bank1
  3419  0721  1303               	bcf	status, 6	;RP1=0, select bank1
  3420  0722  01BF               	clrf	(temperature@d1)^080h
  3421  0723  07BF               	addwf	(temperature@d1)^080h
  3422                           
  3423                           	line	184
  3424                           ;LM35.c: 184: e1=d1/100;
  3425  0724  0840               	movf	(temperature@d1+1)^080h,w
  3426  0725  1283               	bcf	status, 5	;RP0=0, select bank0
  3427  0726  1303               	bcf	status, 6	;RP1=0, select bank0
  3428  0727  01AB               	clrf	(?___awdiv+1)
  3429  0728  07AB               	addwf	(?___awdiv+1)
  3430  0729  1683               	bsf	status, 5	;RP0=1, select bank1
  3431  072A  1303               	bcf	status, 6	;RP1=0, select bank1
  3432  072B  083F               	movf	(temperature@d1)^080h,w
  3433  072C  1283               	bcf	status, 5	;RP0=0, select bank0
  3434  072D  1303               	bcf	status, 6	;RP1=0, select bank0
  3435  072E  01AA               	clrf	(?___awdiv)
  3436  072F  07AA               	addwf	(?___awdiv)
  3437                           
  3438  0730  3064               	movlw	low(064h)
  3439  0731  00AC               	movwf	0+(?___awdiv)+02h
  3440  0732  3000               	movlw	high(064h)
  3441  0733  00AD               	movwf	(0+(?___awdiv)+02h)+1
  3442  0734  120A  158A  23E1   	fcall	___awdiv
              120A  118A         
  3443  0739  1383               	bcf	status, 7	;select IRP bank0
  3444  073A  1283               	bcf	status, 5	;RP0=0, select bank0
  3445  073B  1303               	bcf	status, 6	;RP1=0, select bank0
  3446  073C  082B               	movf	(1+(?___awdiv)),w
  3447  073D  1683               	bsf	status, 5	;RP0=1, select bank1
  3448  073E  1303               	bcf	status, 6	;RP1=0, select bank1
  3449  073F  01AB               	clrf	(temperature@e1+1)^080h
  3450  0740  07AB               	addwf	(temperature@e1+1)^080h
  3451  0741  1283               	bcf	status, 5	;RP0=0, select bank0
  3452  0742  1303               	bcf	status, 6	;RP1=0, select bank0
  3453  0743  082A               	movf	(0+(?___awdiv)),w
  3454  0744  1683               	bsf	status, 5	;RP0=1, select bank1
  3455  0745  1303               	bcf	status, 6	;RP1=0, select bank1
  3456  0746  01AA               	clrf	(temperature@e1)^080h
  3457  0747  07AA               	addwf	(temperature@e1)^080h
  3458                           
  3459                           	line	185
  3460                           ;LM35.c: 185: f1=d1%100;
  3461  0748  0840               	movf	(temperature@d1+1)^080h,w
  3462  0749  1283               	bcf	status, 5	;RP0=0, select bank0
  3463  074A  1303               	bcf	status, 6	;RP1=0, select bank0
  3464  074B  01A3               	clrf	(?___awmod+1)
  3465  074C  07A3               	addwf	(?___awmod+1)
  3466  074D  1683               	bsf	status, 5	;RP0=1, select bank1
  3467  074E  1303               	bcf	status, 6	;RP1=0, select bank1
  3468  074F  083F               	movf	(temperature@d1)^080h,w
  3469  0750  1283               	bcf	status, 5	;RP0=0, select bank0
  3470  0751  1303               	bcf	status, 6	;RP1=0, select bank0
  3471  0752  01A2               	clrf	(?___awmod)
  3472  0753  07A2               	addwf	(?___awmod)
  3473                           
  3474  0754  3064               	movlw	low(064h)
  3475  0755  00A4               	movwf	0+(?___awmod)+02h
  3476  0756  3000               	movlw	high(064h)
  3477  0757  00A5               	movwf	(0+(?___awmod)+02h)+1
  3478  0758  120A  158A  237F   	fcall	___awmod
              120A  118A         
  3479  075D  1383               	bcf	status, 7	;select IRP bank0
  3480  075E  1283               	bcf	status, 5	;RP0=0, select bank0
  3481  075F  1303               	bcf	status, 6	;RP1=0, select bank0
  3482  0760  0823               	movf	(1+(?___awmod)),w
  3483  0761  1683               	bsf	status, 5	;RP0=1, select bank1
  3484  0762  1303               	bcf	status, 6	;RP1=0, select bank1
  3485  0763  01B8               	clrf	(temperature@f1+1)^080h
  3486  0764  07B8               	addwf	(temperature@f1+1)^080h
  3487  0765  1283               	bcf	status, 5	;RP0=0, select bank0
  3488  0766  1303               	bcf	status, 6	;RP1=0, select bank0
  3489  0767  0822               	movf	(0+(?___awmod)),w
  3490  0768  1683               	bsf	status, 5	;RP0=1, select bank1
  3491  0769  1303               	bcf	status, 6	;RP1=0, select bank1
  3492  076A  01B7               	clrf	(temperature@f1)^080h
  3493  076B  07B7               	addwf	(temperature@f1)^080h
  3494                           
  3495                           	line	186
  3496                           ;LM35.c: 186: g1=f1/10;
  3497  076C  0838               	movf	(temperature@f1+1)^080h,w
  3498  076D  1283               	bcf	status, 5	;RP0=0, select bank0
  3499  076E  1303               	bcf	status, 6	;RP1=0, select bank0
  3500  076F  01AB               	clrf	(?___awdiv+1)
  3501  0770  07AB               	addwf	(?___awdiv+1)
  3502  0771  1683               	bsf	status, 5	;RP0=1, select bank1
  3503  0772  1303               	bcf	status, 6	;RP1=0, select bank1
  3504  0773  0837               	movf	(temperature@f1)^080h,w
  3505  0774  1283               	bcf	status, 5	;RP0=0, select bank0
  3506  0775  1303               	bcf	status, 6	;RP1=0, select bank0
  3507  0776  01AA               	clrf	(?___awdiv)
  3508  0777  07AA               	addwf	(?___awdiv)
  3509                           
  3510  0778  300A               	movlw	low(0Ah)
  3511  0779  00AC               	movwf	0+(?___awdiv)+02h
  3512  077A  3000               	movlw	high(0Ah)
  3513  077B  00AD               	movwf	(0+(?___awdiv)+02h)+1
  3514  077C  120A  158A  23E1   	fcall	___awdiv
              120A  118A         
  3515  0781  1383               	bcf	status, 7	;select IRP bank0
  3516  0782  1283               	bcf	status, 5	;RP0=0, select bank0
  3517  0783  1303               	bcf	status, 6	;RP1=0, select bank0
  3518  0784  082B               	movf	(1+(?___awdiv)),w
  3519  0785  1683               	bsf	status, 5	;RP0=1, select bank1
  3520  0786  1303               	bcf	status, 6	;RP1=0, select bank1
  3521  0787  01A9               	clrf	(temperature@g1+1)^080h
  3522  0788  07A9               	addwf	(temperature@g1+1)^080h
  3523  0789  1283               	bcf	status, 5	;RP0=0, select bank0
  3524  078A  1303               	bcf	status, 6	;RP1=0, select bank0
  3525  078B  082A               	movf	(0+(?___awdiv)),w
  3526  078C  1683               	bsf	status, 5	;RP0=1, select bank1
  3527  078D  1303               	bcf	status, 6	;RP1=0, select bank1
  3528  078E  01A8               	clrf	(temperature@g1)^080h
  3529  078F  07A8               	addwf	(temperature@g1)^080h
  3530                           
  3531                           	line	187
  3532                           ;LM35.c: 187: h1=f1%10;
  3533  0790  0838               	movf	(temperature@f1+1)^080h,w
  3534  0791  1283               	bcf	status, 5	;RP0=0, select bank0
  3535  0792  1303               	bcf	status, 6	;RP1=0, select bank0
  3536  0793  01A3               	clrf	(?___awmod+1)
  3537  0794  07A3               	addwf	(?___awmod+1)
  3538  0795  1683               	bsf	status, 5	;RP0=1, select bank1
  3539  0796  1303               	bcf	status, 6	;RP1=0, select bank1
  3540  0797  0837               	movf	(temperature@f1)^080h,w
  3541  0798  1283               	bcf	status, 5	;RP0=0, select bank0
  3542  0799  1303               	bcf	status, 6	;RP1=0, select bank0
  3543  079A  01A2               	clrf	(?___awmod)
  3544  079B  07A2               	addwf	(?___awmod)
  3545                           
  3546  079C  300A               	movlw	low(0Ah)
  3547  079D  00A4               	movwf	0+(?___awmod)+02h
  3548  079E  3000               	movlw	high(0Ah)
  3549  079F  00A5               	movwf	(0+(?___awmod)+02h)+1
  3550  07A0  120A  158A  237F   	fcall	___awmod
              120A  118A         
  3551  07A5  1383               	bcf	status, 7	;select IRP bank0
  3552  07A6  1283               	bcf	status, 5	;RP0=0, select bank0
  3553  07A7  1303               	bcf	status, 6	;RP1=0, select bank0
  3554  07A8  0823               	movf	(1+(?___awmod)),w
  3555  07A9  1683               	bsf	status, 5	;RP0=1, select bank1
  3556  07AA  1303               	bcf	status, 6	;RP1=0, select bank1
  3557  07AB  01A7               	clrf	(temperature@h1+1)^080h
  3558  07AC  07A7               	addwf	(temperature@h1+1)^080h
  3559  07AD  1283               	bcf	status, 5	;RP0=0, select bank0
  3560  07AE  1303               	bcf	status, 6	;RP1=0, select bank0
  3561  07AF  0822               	movf	(0+(?___awmod)),w
  3562  07B0  1683               	bsf	status, 5	;RP0=1, select bank1
  3563  07B1  1303               	bcf	status, 6	;RP1=0, select bank1
  3564  07B2  01A6               	clrf	(temperature@h1)^080h
  3565  07B3  07A6               	addwf	(temperature@h1)^080h
  3566                           
  3567                           	line	190
  3568                           ;LM35.c: 190: command(0X87);
  3569  07B4  3087               	movlw	(087h)
  3570  07B5  120A  158A  22BC   	fcall	_command
              120A  118A         
  3571                           	line	192
  3572                           ;LM35.c: 192: data(0X2D);
  3573  07BA  302D               	movlw	(02Dh)
  3574  07BB  120A  158A  22B0   	fcall	_data
              120A  118A         
  3575                           	line	193
  3576                           ;LM35.c: 193: data(a1+48);
  3577  07C0  1683               	bsf	status, 5	;RP0=1, select bank1
  3578  07C1  1303               	bcf	status, 6	;RP1=0, select bank1
  3579  07C2  0822               	movf	(temperature@a1)^080h,w
  3580  07C3  3E30               	addlw	030h
  3581  07C4  120A  158A  22B0   	fcall	_data
              120A  118A         
  3582                           	line	194
  3583                           ;LM35.c: 194: data(c1+48);
  3584  07C9  1683               	bsf	status, 5	;RP0=1, select bank1
  3585  07CA  1303               	bcf	status, 6	;RP1=0, select bank1
  3586  07CB  0820               	movf	(temperature@c1)^080h,w
  3587  07CC  3E30               	addlw	030h
  3588  07CD  120A  158A  22B0   	fcall	_data
              120A  118A         
  3589                           	line	195
  3590                           ;LM35.c: 195: data(e1+48);
  3591  07D2  1683               	bsf	status, 5	;RP0=1, select bank1
  3592  07D3  1303               	bcf	status, 6	;RP1=0, select bank1
  3593  07D4  082A               	movf	(temperature@e1)^080h,w
  3594  07D5  3E30               	addlw	030h
  3595  07D6  120A  158A  22B0   	fcall	_data
              120A  118A         
  3596                           	line	196
  3597                           ;LM35.c: 196: data(0X2E);
  3598  07DB  302E               	movlw	(02Eh)
  3599  07DC  120A  158A  22B0   	fcall	_data
              120A  118A         
  3600                           	line	197
  3601                           ;LM35.c: 197: data(g1+48);
  3602  07E1  1683               	bsf	status, 5	;RP0=1, select bank1
  3603  07E2  1303               	bcf	status, 6	;RP1=0, select bank1
  3604  07E3  0828               	movf	(temperature@g1)^080h,w
  3605  07E4  3E30               	addlw	030h
  3606  07E5  120A  158A  22B0   	fcall	_data
              120A  118A         
  3607                           	line	198
  3608                           ;LM35.c: 198: data(h1+48);
  3609  07EA  1683               	bsf	status, 5	;RP0=1, select bank1
  3610  07EB  1303               	bcf	status, 6	;RP1=0, select bank1
  3611  07EC  0826               	movf	(temperature@h1)^080h,w
  3612  07ED  3E30               	addlw	030h
  3613  07EE  120A  158A  22B0   	fcall	_data
              120A  118A         
  3614                           	line	199
  3615                           ;LM35.c: 199: data(0XDF);
  3616  07F3  30DF               	movlw	(0DFh)
  3617  07F4  120A  158A  22B0   	fcall	_data
              120A  118A         
  3618                           	line	200
  3619                           ;LM35.c: 200: data(0X43);
  3620  07F9  3043               	movlw	(043h)
  3621  07FA  120A  158A  22B0   	fcall	_data
              120A  118A         
  3622                           	
  3623  07FF                     l27:	
  3624  07FF  0008               	return
  3625                           	opt stack 0
  3626                           GLOBAL	__end_of_temperature
  3627  0800                     	__end_of_temperature:
  3628                           ; =============== function _temperature ends ============
  3629                           
  3630                           psect	text128,local,class=CODE,delta=2
  3631                           global __ptext128
  3632  0D80                     __ptext128:
  3633                           	line	204
  3634                           	signat	_temperature,88
  3635                           	global	___ftdiv
  3636                           
  3637                           ; *************** function ___ftdiv *****************
  3638                           ; Defined at:
  3639                           ;		line 50 in file "C:\Program Files (x86)\HI-TECH Software\PICC\9.70\sources\ftdiv.c"
  3640                           ; Parameters:    Size  Location     Type
  3641                           ;  f1              3   35[BANK0 ] float 
  3642                           ;  f2              3   38[BANK0 ] float 
  3643                           ; Auto vars:     Size  Location     Type
  3644                           ;  f3              3   30[BANK0 ] float 
  3645                           ;  sign            1   34[BANK0 ] unsigned char 
  3646                           ;  exp             1   33[BANK0 ] unsigned char 
  3647                           ;  cntr            1   29[BANK0 ] unsigned char 
  3648                           ; Return value:  Size  Location     Type
  3649                           ;                  3   35[BANK0 ] float 
  3650                           ; Registers used:
  3651                           ;		wreg, status,2, status,0, pclath, cstack
  3652                           ; Tracked objects:
  3653                           ;		On entry : 0/0
  3654                           ;		On exit  : 0/0
  3655                           ;		Unchanged: 0/0
  3656                           ; Data sizes:     COMMON   BANK0   BANK1   BANK3   BANK2
  3657                           ;      Locals:         0      16       0       0       0
  3658                           ;      Temp:     4
  3659                           ;      Total:   16
  3660                           ; This function calls:
  3661                           ;		___ftpack
  3662                           ; This function is called by:
  3663                           ;		_temperature
  3664                           ;		_voltage
  3665                           ; This function uses a non-reentrant model
  3666                           ; 
  3667                           psect	text128
  3668                           	file	"C:\Program Files (x86)\HI-TECH Software\PICC\9.70\sources\ftdiv.c"
  3669                           	line	50
  3670                           	global	__size_of___ftdiv
  3671  00BB                     	__size_of___ftdiv	equ	__end_of___ftdiv-___ftdiv
  3672                           	
  3673  0D80                     ___ftdiv:	
  3674                           	opt stack 6
  3675                           ; Regs used in ___ftdiv: [wreg+status,2+status,0+pclath+cstack]
  3676                           	line	55
  3677                           	
  3678  0D80                     l30001521:	
  3679  0D80  1283               	bcf	status, 5	;RP0=0, select bank0
  3680  0D81  1303               	bcf	status, 6	;RP1=0, select bank0
  3681  0D82  0843               	movf	(___ftdiv@f1),w
  3682  0D83  00B9               	movwf	(??___ftdiv+0+0)
  3683  0D84  0844               	movf	(___ftdiv@f1+1),w
  3684  0D85  00BA               	movwf	(??___ftdiv+0+0+1)
  3685  0D86  0845               	movf	(___ftdiv@f1+2),w
  3686  0D87  00BB               	movwf	(??___ftdiv+0+0+2)
  3687  0D88  1003               	clrc
  3688  0D89  0D3A               	rlf	(??___ftdiv+0+1),w
  3689  0D8A  0D3B               	rlf	(??___ftdiv+0+2),w
  3690  0D8B  00C1               	movwf	(___ftdiv@exp)
  3691  0D8C  08C1               	movf	((___ftdiv@exp))&07fh,f
  3692  0D8D  1D03               	skipz
  3693  0D8E  2D90               	goto	u2721
  3694  0D8F  2D91               	goto	u2720
  3695  0D90                     u2721:
  3696  0D90  2D98               	goto	l30001524
  3697  0D91                     u2720:
  3698                           	
  3699  0D91                     l30001522:	
  3700                           	line	56
  3701  0D91  3000               	movlw	0x0
  3702  0D92  00C3               	movwf	(?___ftdiv)
  3703  0D93  3000               	movlw	0x0
  3704  0D94  00C4               	movwf	(?___ftdiv+1)
  3705  0D95  3000               	movlw	0x0
  3706  0D96  00C5               	movwf	(?___ftdiv+2)
  3707  0D97  2E3A               	goto	l108
  3708                           	
  3709  0D98                     l30001524:	
  3710                           	line	57
  3711  0D98  0846               	movf	(___ftdiv@f2),w
  3712  0D99  00B9               	movwf	(??___ftdiv+0+0)
  3713  0D9A  0847               	movf	(___ftdiv@f2+1),w
  3714  0D9B  00BA               	movwf	(??___ftdiv+0+0+1)
  3715  0D9C  0848               	movf	(___ftdiv@f2+2),w
  3716  0D9D  00BB               	movwf	(??___ftdiv+0+0+2)
  3717  0D9E  1003               	clrc
  3718  0D9F  0D3A               	rlf	(??___ftdiv+0+1),w
  3719  0DA0  0D3B               	rlf	(??___ftdiv+0+2),w
  3720  0DA1  00C2               	movwf	(___ftdiv@sign)
  3721  0DA2  08C2               	movf	((___ftdiv@sign))&07fh,f
  3722  0DA3  1D03               	skipz
  3723  0DA4  2DA6               	goto	u2731
  3724  0DA5  2DA7               	goto	u2730
  3725  0DA6                     u2731:
  3726  0DA6  2DAE               	goto	l30001527
  3727  0DA7                     u2730:
  3728                           	
  3729  0DA7                     l30001525:	
  3730                           	line	58
  3731  0DA7  3000               	movlw	0x0
  3732  0DA8  00C3               	movwf	(?___ftdiv)
  3733  0DA9  3000               	movlw	0x0
  3734  0DAA  00C4               	movwf	(?___ftdiv+1)
  3735  0DAB  3000               	movlw	0x0
  3736  0DAC  00C5               	movwf	(?___ftdiv+2)
  3737  0DAD  2E3A               	goto	l108
  3738                           	
  3739  0DAE                     l30001527:	
  3740                           	line	59
  3741  0DAE  3000               	movlw	0
  3742  0DAF  00BE               	movwf	(___ftdiv@f3)
  3743  0DB0  3000               	movlw	0
  3744  0DB1  00BF               	movwf	(___ftdiv@f3+1)
  3745  0DB2  3000               	movlw	0
  3746  0DB3  00C0               	movwf	(___ftdiv@f3+2)
  3747                           	
  3748  0DB4                     l30001528:	
  3749                           	line	60
  3750  0DB4  0842               	movf	(___ftdiv@sign),w
  3751  0DB5  3E89               	addlw	089h
  3752  0DB6  00B9               	movwf	(??___ftdiv+0+0)
  3753  0DB7  0839               	movf	(??___ftdiv+0+0),w
  3754  0DB8  02C1               	subwf	(___ftdiv@exp),f
  3755                           	
  3756  0DB9                     l30001529:	
  3757                           	line	61
  3758  0DB9  0843               	movf	(___ftdiv@f1),w
  3759  0DBA  00B9               	movwf	(??___ftdiv+0+0)
  3760  0DBB  0844               	movf	(___ftdiv@f1+1),w
  3761  0DBC  00BA               	movwf	(??___ftdiv+0+0+1)
  3762  0DBD  0845               	movf	(___ftdiv@f1+2),w
  3763  0DBE  00BB               	movwf	(??___ftdiv+0+0+2)
  3764  0DBF  3010               	movlw	010h
  3765  0DC0                     u2745:
  3766  0DC0  1003               	clrc
  3767  0DC1  0CBB               	rrf	(??___ftdiv+0+2),f
  3768  0DC2  0CBA               	rrf	(??___ftdiv+0+1),f
  3769  0DC3  0CB9               	rrf	(??___ftdiv+0+0),f
  3770  0DC4                     u2740:
  3771  0DC4  3EFF               	addlw	-1
  3772  0DC5  1D03               	skipz
  3773  0DC6  2DC0               	goto	u2745
  3774  0DC7  0839               	movf	0+(??___ftdiv+0+0),w
  3775  0DC8  00C2               	movwf	(___ftdiv@sign)
  3776                           	
  3777  0DC9                     l30001530:	
  3778                           	line	62
  3779  0DC9  0846               	movf	(___ftdiv@f2),w
  3780  0DCA  00B9               	movwf	(??___ftdiv+0+0)
  3781  0DCB  0847               	movf	(___ftdiv@f2+1),w
  3782  0DCC  00BA               	movwf	(??___ftdiv+0+0+1)
  3783  0DCD  0848               	movf	(___ftdiv@f2+2),w
  3784  0DCE  00BB               	movwf	(??___ftdiv+0+0+2)
  3785  0DCF  3010               	movlw	010h
  3786  0DD0                     u2755:
  3787  0DD0  1003               	clrc
  3788  0DD1  0CBB               	rrf	(??___ftdiv+0+2),f
  3789  0DD2  0CBA               	rrf	(??___ftdiv+0+1),f
  3790  0DD3  0CB9               	rrf	(??___ftdiv+0+0),f
  3791  0DD4                     u2750:
  3792  0DD4  3EFF               	addlw	-1
  3793  0DD5  1D03               	skipz
  3794  0DD6  2DD0               	goto	u2755
  3795  0DD7  0839               	movf	0+(??___ftdiv+0+0),w
  3796  0DD8  00BC               	movwf	(??___ftdiv+3+0)
  3797  0DD9  083C               	movf	(??___ftdiv+3+0),w
  3798  0DDA  06C2               	xorwf	(___ftdiv@sign),f
  3799                           	
  3800  0DDB                     l30001531:	
  3801                           	line	63
  3802  0DDB  3080               	movlw	(080h)
  3803  0DDC  00B9               	movwf	(??___ftdiv+0+0)
  3804  0DDD  0839               	movf	(??___ftdiv+0+0),w
  3805  0DDE  05C2               	andwf	(___ftdiv@sign),f
  3806                           	
  3807  0DDF                     l30001532:	
  3808                           	line	64
  3809  0DDF  17C4               	bsf	(___ftdiv@f1)+(15/8),(15)&7
  3810                           	line	65
  3811  0DE0  30FF               	movlw	0FFh
  3812  0DE1  05C3               	andwf	(___ftdiv@f1),f
  3813  0DE2  30FF               	movlw	0FFh
  3814  0DE3  05C4               	andwf	(___ftdiv@f1+1),f
  3815  0DE4  3000               	movlw	0
  3816  0DE5  05C5               	andwf	(___ftdiv@f1+2),f
  3817                           	
  3818  0DE6                     l30001533:	
  3819                           	line	66
  3820  0DE6  17C7               	bsf	(___ftdiv@f2)+(15/8),(15)&7
  3821                           	line	67
  3822  0DE7  30FF               	movlw	0FFh
  3823  0DE8  05C6               	andwf	(___ftdiv@f2),f
  3824  0DE9  30FF               	movlw	0FFh
  3825  0DEA  05C7               	andwf	(___ftdiv@f2+1),f
  3826  0DEB  3000               	movlw	0
  3827  0DEC  05C8               	andwf	(___ftdiv@f2+2),f
  3828                           	line	68
  3829  0DED  3018               	movlw	(018h)
  3830  0DEE  00BD               	movwf	(___ftdiv@cntr)
  3831                           	
  3832  0DEF                     l30001534:	
  3833                           	line	70
  3834  0DEF  3001               	movlw	01h
  3835  0DF0                     u2765:
  3836  0DF0  1003               	clrc
  3837  0DF1  0DBE               	rlf	(___ftdiv@f3),f
  3838  0DF2  0DBF               	rlf	(___ftdiv@f3+1),f
  3839  0DF3  0DC0               	rlf	(___ftdiv@f3+2),f
  3840  0DF4  3EFF               	addlw	-1
  3841  0DF5  1D03               	skipz
  3842  0DF6  2DF0               	goto	u2765
  3843                           	
  3844  0DF7                     l30001535:	
  3845                           	line	71
  3846  0DF7  0848               	movf	(___ftdiv@f2+2),w
  3847  0DF8  0245               	subwf	(___ftdiv@f1+2),w
  3848  0DF9  1D03               	skipz
  3849  0DFA  2E01               	goto	u2775
  3850  0DFB  0847               	movf	(___ftdiv@f2+1),w
  3851  0DFC  0244               	subwf	(___ftdiv@f1+1),w
  3852  0DFD  1D03               	skipz
  3853  0DFE  2E01               	goto	u2775
  3854  0DFF  0846               	movf	(___ftdiv@f2),w
  3855  0E00  0243               	subwf	(___ftdiv@f1),w
  3856  0E01                     u2775:
  3857  0E01  1C03               	skipc
  3858  0E02  2E04               	goto	u2771
  3859  0E03  2E05               	goto	u2770
  3860  0E04                     u2771:
  3861  0E04  2E10               	goto	l30001538
  3862  0E05                     u2770:
  3863                           	
  3864  0E05                     l30001536:	
  3865                           	line	72
  3866  0E05  0846               	movf	(___ftdiv@f2),w
  3867  0E06  02C3               	subwf	(___ftdiv@f1),f
  3868  0E07  0847               	movf	(___ftdiv@f2+1),w
  3869  0E08  1C03               	skipc
  3870  0E09  0F47               	incfsz	(___ftdiv@f2+1),w
  3871  0E0A  02C4               	subwf	(___ftdiv@f1+1),f
  3872  0E0B  0848               	movf	(___ftdiv@f2+2),w
  3873  0E0C  1C03               	skipc
  3874  0E0D  0A48               	incf	(___ftdiv@f2+2),w
  3875  0E0E  02C5               	subwf	(___ftdiv@f1+2),f
  3876                           	
  3877  0E0F                     l30001537:	
  3878                           	line	73
  3879  0E0F  143E               	bsf	(___ftdiv@f3)+(0/8),(0)&7
  3880                           	
  3881  0E10                     l30001538:	
  3882                           	line	75
  3883  0E10  3001               	movlw	01h
  3884  0E11                     u2785:
  3885  0E11  1003               	clrc
  3886  0E12  0DC3               	rlf	(___ftdiv@f1),f
  3887  0E13  0DC4               	rlf	(___ftdiv@f1+1),f
  3888  0E14  0DC5               	rlf	(___ftdiv@f1+2),f
  3889  0E15  3EFF               	addlw	-1
  3890  0E16  1D03               	skipz
  3891  0E17  2E11               	goto	u2785
  3892                           	
  3893  0E18                     l30001539:	
  3894                           	line	76
  3895  0E18  3001               	movlw	low(01h)
  3896  0E19  02BD               	subwf	(___ftdiv@cntr),f
  3897  0E1A  1D03               	btfss	status,2
  3898  0E1B  2E1D               	goto	u2791
  3899  0E1C  2E1E               	goto	u2790
  3900  0E1D                     u2791:
  3901  0E1D  2DEF               	goto	l30001534
  3902  0E1E                     u2790:
  3903                           	
  3904  0E1E                     l30001540:	
  3905                           	line	77
  3906  0E1E  083E               	movf	(___ftdiv@f3),w
  3907  0E1F  00A0               	movwf	(?___ftpack)
  3908  0E20  083F               	movf	(___ftdiv@f3+1),w
  3909  0E21  00A1               	movwf	(?___ftpack+1)
  3910  0E22  0840               	movf	(___ftdiv@f3+2),w
  3911  0E23  00A2               	movwf	(?___ftpack+2)
  3912  0E24  0841               	movf	(___ftdiv@exp),w
  3913  0E25  00B9               	movwf	(??___ftdiv+0+0)
  3914  0E26  0839               	movf	(??___ftdiv+0+0),w
  3915  0E27  00A3               	movwf	0+(?___ftpack)+03h
  3916  0E28  0842               	movf	(___ftdiv@sign),w
  3917  0E29  00BA               	movwf	(??___ftdiv+1+0)
  3918  0E2A  083A               	movf	(??___ftdiv+1+0),w
  3919  0E2B  00A4               	movwf	0+(?___ftpack)+04h
  3920  0E2C  120A  158A  2453   	fcall	___ftpack
              120A  158A         
  3921  0E31  1383               	bcf	status, 7	;select IRP bank0
  3922  0E32  1283               	bcf	status, 5	;RP0=0, select bank0
  3923  0E33  1303               	bcf	status, 6	;RP1=0, select bank0
  3924  0E34  0820               	movf	(0+(?___ftpack)),w
  3925  0E35  00C3               	movwf	(?___ftdiv)
  3926  0E36  0821               	movf	(1+(?___ftpack)),w
  3927  0E37  00C4               	movwf	(?___ftdiv+1)
  3928  0E38  0822               	movf	(2+(?___ftpack)),w
  3929  0E39  00C5               	movwf	(?___ftdiv+2)
  3930                           	
  3931  0E3A                     l108:	
  3932  0E3A  0008               	return
  3933                           	opt stack 0
  3934                           GLOBAL	__end_of___ftdiv
  3935  0E3B                     	__end_of___ftdiv:
  3936                           ; =============== function ___ftdiv ends ============
  3937                           
  3938                           psect	text129,local,class=CODE,delta=2
  3939                           global __ptext129
  3940  0E3B                     __ptext129:
  3941                           	line	78
  3942                           	signat	___ftdiv,8315
  3943                           	global	___ftmul
  3944                           
  3945                           ; *************** function ___ftmul *****************
  3946                           ; Defined at:
  3947                           ;		line 52 in file "C:\Program Files (x86)\HI-TECH Software\PICC\9.70\sources\ftmul.c"
  3948                           ; Parameters:    Size  Location     Type
  3949                           ;  f1              3   19[BANK0 ] float 
  3950                           ;  f2              3   22[BANK0 ] float 
  3951                           ; Auto vars:     Size  Location     Type
  3952                           ;  f3_as_produc    3   14[BANK0 ] unsigned um
  3953                           ;  sign            1   18[BANK0 ] unsigned char 
  3954                           ;  cntr            1   17[BANK0 ] unsigned char 
  3955                           ;  exp             1   13[BANK0 ] unsigned char 
  3956                           ; Return value:  Size  Location     Type
  3957                           ;                  3   19[BANK0 ] float 
  3958                           ; Registers used:
  3959                           ;		wreg, status,2, status,0, pclath, cstack
  3960                           ; Tracked objects:
  3961                           ;		On entry : 0/0
  3962                           ;		On exit  : 0/0
  3963                           ;		Unchanged: 0/0
  3964                           ; Data sizes:     COMMON   BANK0   BANK1   BANK3   BANK2
  3965                           ;      Locals:         0      16       0       0       0
  3966                           ;      Temp:     4
  3967                           ;      Total:   16
  3968                           ; This function calls:
  3969                           ;		___ftpack
  3970                           ; This function is called by:
  3971                           ;		_temperature
  3972                           ;		_voltage
  3973                           ; This function uses a non-reentrant model
  3974                           ; 
  3975                           psect	text129
  3976                           	file	"C:\Program Files (x86)\HI-TECH Software\PICC\9.70\sources\ftmul.c"
  3977                           	line	52
  3978                           	global	__size_of___ftmul
  3979  00DC                     	__size_of___ftmul	equ	__end_of___ftmul-___ftmul
  3980                           	
  3981  0E3B                     ___ftmul:	
  3982                           	opt stack 6
  3983                           ; Regs used in ___ftmul: [wreg+status,2+status,0+pclath+cstack]
  3984                           	line	56
  3985                           	
  3986  0E3B                     l30001542:	
  3987  0E3B  1283               	bcf	status, 5	;RP0=0, select bank0
  3988  0E3C  1303               	bcf	status, 6	;RP1=0, select bank0
  3989  0E3D  0833               	movf	(___ftmul@f1),w
  3990  0E3E  00A9               	movwf	(??___ftmul+0+0)
  3991  0E3F  0834               	movf	(___ftmul@f1+1),w
  3992  0E40  00AA               	movwf	(??___ftmul+0+0+1)
  3993  0E41  0835               	movf	(___ftmul@f1+2),w
  3994  0E42  00AB               	movwf	(??___ftmul+0+0+2)
  3995  0E43  1003               	clrc
  3996  0E44  0D2A               	rlf	(??___ftmul+0+1),w
  3997  0E45  0D2B               	rlf	(??___ftmul+0+2),w
  3998+ 0E46  00AD               	movwf	(___ftmul@exp)
  3999+ 0E47  08AD               	movf	((___ftmul@exp))&07fh,f
  4000+ 0E48  1D03               	skipz
  4001+ 0E49  2E4B               	goto	u2801
  4002+ 0E4A  2E4C               	goto	u2800
  4003+ 0E4B                     u2801:
  4004+ 0E4B  2E53               	goto	l30001545
  4005+ 0E4C                     u2800:
  4006+                          	
  4007+ 0E4C                     l30001543:	
  4008+                          	line	57
  4009+ 0E4C  3000               	movlw	0x0
  4010+ 0E4D  00B3               	movwf	(?___ftmul)
  4011+ 0E4E  3000               	movlw	0x0
  4012+ 0E4F  00B4               	movwf	(?___ftmul+1)
  4013+ 0E50  3000               	movlw	0x0
  4014+ 0E51  00B5               	movwf	(?___ftmul+2)
  4015+ 0E52  2F16               	goto	l115
  4016+                          	
  4017+ 0E53                     l30001545:	
  4018+                          	line	58
  4019+ 0E53  0836               	movf	(___ftmul@f2),w
  4020+ 0E54  00A9               	movwf	(??___ftmul+0+0)
  4021+ 0E55  0837               	movf	(___ftmul@f2+1),w
  4022+ 0E56  00AA               	movwf	(??___ftmul+0+0+1)
  4023+ 0E57  0838               	movf	(___ftmul@f2+2),w
  4024+ 0E58  00AB               	movwf	(??___ftmul+0+0+2)
  4025+ 0E59  1003               	clrc
  4026+ 0E5A  0D2A               	rlf	(??___ftmul+0+1),w
  4027+ 0E5B  0D2B               	rlf	(??___ftmul+0+2),w
  4028+ 0E5C  00B2               	movwf	(___ftmul@sign)
  4029+ 0E5D  08B2               	movf	((___ftmul@sign))&07fh,f
  4030+ 0E5E  1D03               	skipz
  4031+ 0E5F  2E61               	goto	u2811
  4032+ 0E60  2E62               	goto	u2810
  4033+ 0E61                     u2811:
  4034+ 0E61  2E69               	goto	l30001548
  4035+ 0E62                     u2810:
  4036+                          	
  4037+ 0E62                     l30001546:	
  4038+                          	line	59
  4039+ 0E62  3000               	movlw	0x0
  4040+ 0E63  00B3               	movwf	(?___ftmul)
  4041+ 0E64  3000               	movlw	0x0
  4042+ 0E65  00B4               	movwf	(?___ftmul+1)
  4043+ 0E66  3000               	movlw	0x0
  4044+ 0E67  00B5               	movwf	(?___ftmul+2)
  4045+ 0E68  2F16               	goto	l115
  4046+                          	
  4047+ 0E69                     l30001548:	
  4048+                          	line	60
  4049+ 0E69  0832               	movf	(___ftmul@sign),w
  4050+ 0E6A  3E7B               	addlw	07Bh
  4051+ 0E6B  00A9               	movwf	(??___ftmul+0+0)
  4052+ 0E6C  0829               	movf	(??___ftmul+0+0),w
  4053+ 0E6D  07AD               	addwf	(___ftmul@exp),f
  4054+                          	line	61
  4055+ 0E6E  0833               	movf	(___ftmul@f1),w
  4056+ 0E6F  00A9               	movwf	(??___ftmul+0+0)
  4057+ 0E70  0834               	movf	(___ftmul@f1+1),w
  4058+ 0E71  00AA               	movwf	(??___ftmul+0+0+1)
  4059+ 0E72  0835               	movf	(___ftmul@f1+2),w
  4060+ 0E73  00AB               	movwf	(??___ftmul+0+0+2)
  4061+ 0E74  3010               	movlw	010h
  4062+ 0E75                     u2825:
  4063+ 0E75  1003               	clrc
  4064+ 0E76  0CAB               	rrf	(??___ftmul+0+2),f
  4065+ 0E77  0CAA               	rrf	(??___ftmul+0+1),f
  4066+ 0E78  0CA9               	rrf	(??___ftmul+0+0),f
  4067+ 0E79                     u2820:
  4068+ 0E79  3EFF               	addlw	-1
  4069+ 0E7A  1D03               	skipz
  4070+ 0E7B  2E75               	goto	u2825
  4071+ 0E7C  0829               	movf	0+(??___ftmul+0+0),w
  4072+ 0E7D  00B2               	movwf	(___ftmul@sign)
  4073+                          	line	62
  4074+ 0E7E  0836               	movf	(___ftmul@f2),w
  4075+ 0E7F  00A9               	movwf	(??___ftmul+0+0)
  4076+ 0E80  0837               	movf	(___ftmul@f2+1),w
  4077+ 0E81  00AA               	movwf	(??___ftmul+0+0+1)
  4078+ 0E82  0838               	movf	(___ftmul@f2+2),w
  4079+ 0E83  00AB               	movwf	(??___ftmul+0+0+2)
  4080+ 0E84  3010               	movlw	010h
  4081+ 0E85                     u2835:
  4082+ 0E85  1003               	clrc
  4083+ 0E86  0CAB               	rrf	(??___ftmul+0+2),f
  4084+ 0E87  0CAA               	rrf	(??___ftmul+0+1),f
  4085+ 0E88  0CA9               	rrf	(??___ftmul+0+0),f
  4086+ 0E89                     u2830:
  4087+ 0E89  3EFF               	addlw	-1
  4088+ 0E8A  1D03               	skipz
  4089+ 0E8B  2E85               	goto	u2835
  4090+ 0E8C  0829               	movf	0+(??___ftmul+0+0),w
  4091+ 0E8D  00AC               	movwf	(??___ftmul+3+0)
  4092+ 0E8E  082C               	movf	(??___ftmul+3+0),w
  4093+ 0E8F  06B2               	xorwf	(___ftmul@sign),f
  4094+                          	line	63
  4095+ 0E90  3080               	movlw	(080h)
  4096+ 0E91  00A9               	movwf	(??___ftmul+0+0)
  4097+ 0E92  0829               	movf	(??___ftmul+0+0),w
  4098+ 0E93  05B2               	andwf	(___ftmul@sign),f
  4099+                          	
  4100+ 0E94                     l30001549:	
  4101+                          	line	64
  4102+ 0E94  17B4               	bsf	(___ftmul@f1)+(15/8),(15)&7
  4103+                          	
  4104+ 0E95                     l30001550:	
  4105+                          	line	66
  4106+ 0E95  17B7               	bsf	(___ftmul@f2)+(15/8),(15)&7
  4107+                          	
  4108+ 0E96                     l30001551:	
  4109+                          	line	67
  4110+ 0E96  30FF               	movlw	0FFh
  4111+ 0E97  05B6               	andwf	(___ftmul@f2),f
  4112+ 0E98  30FF               	movlw	0FFh
  4113+ 0E99  05B7               	andwf	(___ftmul@f2+1),f
  4114+ 0E9A  3000               	movlw	0
  4115+ 0E9B  05B8               	andwf	(___ftmul@f2+2),f
  4116+                          	
  4117+ 0E9C                     l30001552:	
  4118+                          	line	68
  4119+ 0E9C  3000               	movlw	0
  4120+ 0E9D  00AE               	movwf	(___ftmul@f3_as_product)
  4121+ 0E9E  3000               	movlw	0
  4122+ 0E9F  00AF               	movwf	(___ftmul@f3_as_product+1)
  4123+ 0EA0  3000               	movlw	0
  4124+ 0EA1  00B0               	movwf	(___ftmul@f3_as_product+2)
  4125+                          	
  4126+ 0EA2                     l30001553:	
  4127+                          	line	69
  4128+ 0EA2  3007               	movlw	(07h)
  4129+ 0EA3  00B1               	movwf	(___ftmul@cntr)
  4130+                          	
  4131+ 0EA4                     l30001554:	
  4132+                          	line	71
  4133+ 0EA4  1C33               	btfss	(___ftmul@f1),(0)&7
  4134+ 0EA5  2EA7               	goto	u2841
  4135+ 0EA6  2EA8               	goto	u2840
  4136+ 0EA7                     u2841:
  4137+ 0EA7  2EB8               	goto	l30001556
  4138+ 0EA8                     u2840:
  4139+                          	
  4140+ 0EA8                     l30001555:	
  4141+                          	line	72
  4142+ 0EA8  0836               	movf	(___ftmul@f2),w
  4143+ 0EA9  07AE               	addwf	(___ftmul@f3_as_product),f
  4144+ 0EAA  0837               	movf	(___ftmul@f2+1),w
  4145+ 0EAB  1103               	clrz
  4146+ 0EAC  1803               	skipnc
  4147+ 0EAD  0A37               	incf	(___ftmul@f2+1),w
  4148+ 0EAE  1903               	skipnz
  4149+ 0EAF  2EB1               	goto	u2851
  4150+ 0EB0  07AF               	addwf	(___ftmul@f3_as_product+1),f
  4151+ 0EB1                     u2851:
  4152+ 0EB1  0838               	movf	(___ftmul@f2+2),w
  4153+ 0EB2  1103               	clrz
  4154+ 0EB3  1803               	skipnc
  4155+ 0EB4  0A38               	incf	(___ftmul@f2+2),w
  4156+ 0EB5  1903               	skipnz
  4157+ 0EB6  2EB8               	goto	u2852
  4158+ 0EB7  07B0               	addwf	(___ftmul@f3_as_product+2),f
  4159+ 0EB8                     u2852:
  4160+                          
  4161+                          	
  4162+ 0EB8                     l30001556:	
  4163+                          	line	73
  4164+ 0EB8  3001               	movlw	01h
  4165+ 0EB9                     u2865:
  4166+ 0EB9  1003               	clrc
  4167+ 0EBA  0CB5               	rrf	(___ftmul@f1+2),f
  4168+ 0EBB  0CB4               	rrf	(___ftmul@f1+1),f
  4169+ 0EBC  0CB3               	rrf	(___ftmul@f1),f
  4170+ 0EBD  3EFF               	addlw	-1
  4171+ 0EBE  1D03               	skipz
  4172+ 0EBF  2EB9               	goto	u2865
  4173+                          
  4174+                          	
  4175+ 0EC0                     l30001557:	
  4176+                          	line	74
  4177+ 0EC0  3001               	movlw	01h
  4178+ 0EC1                     u2875:
  4179+ 0EC1  1003               	clrc
  4180+ 0EC2  0DB6               	rlf	(___ftmul@f2),f
  4181+ 0EC3  0DB7               	rlf	(___ftmul@f2+1),f
  4182+ 0EC4  0DB8               	rlf	(___ftmul@f2+2),f
  4183+ 0EC5  3EFF               	addlw	-1
  4184+ 0EC6  1D03               	skipz
  4185+ 0EC7  2EC1               	goto	u2875
  4186+                          	
  4187+ 0EC8                     l30001558:	
  4188+                          	line	75
  4189+ 0EC8  3001               	movlw	low(01h)
  4190+ 0EC9  02B1               	subwf	(___ftmul@cntr),f
  4191+ 0ECA  1D03               	btfss	status,2
  4192+ 0ECB  2ECD               	goto	u2881
  4193+ 0ECC  2ECE               	goto	u2880
  4194+ 0ECD                     u2881:
  4195+ 0ECD  2EA4               	goto	l30001554
  4196+ 0ECE                     u2880:
  4197+                          	
  4198+ 0ECE                     l30001559:	
  4199+                          	line	76
  4200+ 0ECE  3009               	movlw	(09h)
  4201+ 0ECF  00B1               	movwf	(___ftmul@cntr)
  4202+                          	
  4203+ 0ED0                     l30001560:	
  4204+                          	line	78
  4205+ 0ED0  1C33               	btfss	(___ftmul@f1),(0)&7
  4206+ 0ED1  2ED3               	goto	u2891
  4207+ 0ED2  2ED4               	goto	u2890
  4208+ 0ED3                     u2891:
  4209+ 0ED3  2EE4               	goto	l30001562
  4210+ 0ED4                     u2890:
  4211+                          	
  4212+ 0ED4                     l30001561:	
  4213+                          	line	79
  4214+ 0ED4  0836               	movf	(___ftmul@f2),w
  4215+ 0ED5  07AE               	addwf	(___ftmul@f3_as_product),f
  4216+ 0ED6  0837               	movf	(___ftmul@f2+1),w
  4217+ 0ED7  1103               	clrz
  4218+ 0ED8  1803               	skipnc
  4219+ 0ED9  0A37               	incf	(___ftmul@f2+1),w
  4220+ 0EDA  1903               	skipnz
  4221+ 0EDB  2EDD               	goto	u2901
  4222+ 0EDC  07AF               	addwf	(___ftmul@f3_as_product+1),f
  4223+ 0EDD                     u2901:
  4224+ 0EDD  0838               	movf	(___ftmul@f2+2),w
  4225+ 0EDE  1103               	clrz
  4226+ 0EDF  1803               	skipnc
  4227+ 0EE0  0A38               	incf	(___ftmul@f2+2),w
  4228+ 0EE1  1903               	skipnz
  4229+ 0EE2  2EE4               	goto	u2902
  4230+ 0EE3  07B0               	addwf	(___ftmul@f3_as_product+2),f
  4231+ 0EE4                     u2902:
  4232+                          
  4233+                          	
  4234+ 0EE4                     l30001562:	
  4235+                          	line	80
  4236+ 0EE4  3001               	movlw	01h
  4237+ 0EE5                     u2915:
  4238+ 0EE5  1003               	clrc
  4239+ 0EE6  0CB5               	rrf	(___ftmul@f1+2),f
  4240+ 0EE7  0CB4               	rrf	(___ftmul@f1+1),f
  4241+ 0EE8  0CB3               	rrf	(___ftmul@f1),f
  4242+ 0EE9  3EFF               	addlw	-1
  4243+ 0EEA  1D03               	skipz
  4244+ 0EEB  2EE5               	goto	u2915
  4245+                          
  4246+                          	
  4247+ 0EEC                     l30001563:	
  4248+                          	line	81
  4249+ 0EEC  3001               	movlw	01h
  4250+ 0EED                     u2925:
  4251+ 0EED  1003               	clrc
  4252+ 0EEE  0CB0               	rrf	(___ftmul@f3_as_product+2),f
  4253+ 0EEF  0CAF               	rrf	(___ftmul@f3_as_product+1),f
  4254+ 0EF0  0CAE               	rrf	(___ftmul@f3_as_product),f
  4255+ 0EF1  3EFF               	addlw	-1
  4256+ 0EF2  1D03               	skipz
  4257+ 0EF3  2EED               	goto	u2925
  4258+                          
  4259+                          	
  4260+ 0EF4                     l30001564:	
  4261+                          	line	82
  4262+ 0EF4  3001               	movlw	low(01h)
  4263+ 0EF5  02B1               	subwf	(___ftmul@cntr),f
  4264+ 0EF6  1D03               	btfss	status,2
  4265+ 0EF7  2EF9               	goto	u2931
  4266+ 0EF8  2EFA               	goto	u2930
  4267+ 0EF9                     u2931:
  4268+ 0EF9  2ED0               	goto	l30001560
  4269+ 0EFA                     u2930:
  4270+                          	
  4271+ 0EFA                     l30001565:	
  4272+                          	line	83
  4273+ 0EFA  082E               	movf	(___ftmul@f3_as_product),w
  4274+ 0EFB  00A0               	movwf	(?___ftpack)
  4275+ 0EFC  082F               	movf	(___ftmul@f3_as_product+1),w
  4276+ 0EFD  00A1               	movwf	(?___ftpack+1)
  4277+ 0EFE  0830               	movf	(___ftmul@f3_as_product+2),w
  4278+ 0EFF  00A2               	movwf	(?___ftpack+2)
  4279+ 0F00  082D               	movf	(___ftmul@exp),w
  4280+ 0F01  00A9               	movwf	(??___ftmul+0+0)
  4281+ 0F02  0829               	movf	(??___ftmul+0+0),w
  4282+ 0F03  00A3               	movwf	0+(?___ftpack)+03h
  4283+ 0F04  0832               	movf	(___ftmul@sign),w
  4284+ 0F05  00AA               	movwf	(??___ftmul+1+0)
  4285+ 0F06  082A               	movf	(??___ftmul+1+0),w
  4286+ 0F07  00A4               	movwf	0+(?___ftpack)+04h
  4287+ 0F08  120A  158A  2453   	fcall	___ftpack
      +       120A  158A         
  4288+ 0F0D  1383               	bcf	status, 7	;select IRP bank0
  4289+ 0F0E  1283               	bcf	status, 5	;RP0=0, select bank0
  4290+ 0F0F  1303               	bcf	status, 6	;RP1=0, select bank0
  4291+ 0F10  0820               	movf	(0+(?___ftpack)),w
  4292+ 0F11  00B3               	movwf	(?___ftmul)
  4293+ 0F12  0821               	movf	(1+(?___ftpack)),w
  4294+ 0F13  00B4               	movwf	(?___ftmul+1)
  4295+ 0F14  0822               	movf	(2+(?___ftpack)),w
  4296+ 0F15  00B5               	movwf	(?___ftmul+2)
  4297+                          	
  4298+ 0F16                     l115:	
  4299+ 0F16  0008               	return
  4300+                          	opt stack 0
  4301+                          GLOBAL	__end_of___ftmul
  4302+ 0F17                     	__end_of___ftmul:
  4303+                          ; =============== function ___ftmul ends ============
  4304+                          
  4305+                          psect	text130,local,class=CODE,delta=2
  4306+                          global __ptext130
  4307+ 0B00                     __ptext130:
  4308+                          	line	84
  4309+                          	signat	___ftmul,8315
  4310+                          	global	___awtoft
  4311+                          
  4312+                          ; *************** function ___awtoft *****************
  4313+                          ; Defined at:
  4314+                          ;		line 33 in file "C:\Program Files (x86)\HI-TECH Software\PICC\9.70\sources\awtoft.c"
  4315+                          ; Parameters:    Size  Location     Type
  4316+                          ;  c               2    6[BANK0 ] int 
  4317+                          ; Auto vars:     Size  Location     Type
  4318+                          ;  sign            1    5[BANK0 ] unsigned char 
  4319+                          ; Return value:  Size  Location     Type
  4320+                          ;                  3    6[BANK0 ] float 
  4321+                          ; Registers used:
  4322+                          ;		wreg, status,2, status,0, pclath, cstack
  4323+                          ; Tracked objects:
  4324+                          ;		On entry : 0/0
  4325+                          ;		On exit  : 0/0
  4326+                          ;		Unchanged: 0/0
  4327+                          ; Data sizes:     COMMON   BANK0   BANK1   BANK3   BANK2
  4328+                          ;      Locals:         2       4       0       0       0
  4329+                          ;      Temp:     2
  4330+                          ;      Total:    6
  4331+                          ; This function calls:
  4332+                          ;		___ftpack
  4333+                          ; This function is called by:
  4334+                          ;		_temperature
  4335+                          ;		_voltage
  4336+                          ; This function uses a non-reentrant model
  4337+                          ; 
  4338+                          psect	text130
  4339+                          	file	"C:\Program Files (x86)\HI-TECH Software\PICC\9.70\sources\awtoft.c"
  4340+                          	line	33
  4341+                          	global	__size_of___awtoft
  4342+ 002F                     	__size_of___awtoft	equ	__end_of___awtoft-___awtoft
  4343+                          	
  4344+ 0B00                     ___awtoft:	
  4345+                          	opt stack 6
  4346+                          ; Regs used in ___awtoft: [wreg+status,2+status,0+pclath+cstack]
  4347+                          	line	36
  4348+                          	
  4349+ 0B00                     l30001501:	
  4350+ 0B00  1003               	clrc
  4351+ 0B01  3000               	movlw	0
  4352+ 0B02  1803               	btfsc	status,0
  4353+ 0B03  3001               	movlw	1
  4354+ 0B04  1283               	bcf	status, 5	;RP0=0, select bank0
  4355+ 0B05  1303               	bcf	status, 6	;RP1=0, select bank0
  4356+ 0B06  00A5               	movwf	(___awtoft@sign)
  4357+                          	
  4358+ 0B07                     l30001502:	
  4359+                          	line	37
  4360+ 0B07  1FA7               	btfss	(___awtoft@c+1),7
  4361+ 0B08  2B0A               	goto	u2591
  4362+ 0B09  2B0B               	goto	u2590
  4363+ 0B0A                     u2591:
  4364+ 0B0A  2B13               	goto	l30001504
  4365+ 0B0B                     u2590:
  4366+                          	
  4367+ 0B0B                     l30001503:	
  4368+                          	line	38
  4369+ 0B0B  09A6               	comf	(___awtoft@c),f
  4370+ 0B0C  09A7               	comf	(___awtoft@c+1),f
  4371+ 0B0D  0AA6               	incf	(___awtoft@c),f
  4372+ 0B0E  1903               	skipnz
  4373+ 0B0F  0AA7               	incf	(___awtoft@c+1),f
  4374+                          	line	39
  4375+ 0B10  01A5               	clrf	(___awtoft@sign)
  4376+ 0B11  1403               	bsf	status,0
  4377+ 0B12  0DA5               	rlf	(___awtoft@sign),f
  4378+                          	
  4379+ 0B13                     l30001504:	
  4380+                          	line	41
  4381+ 0B13  0826               	movf	(___awtoft@c),w
  4382+ 0B14  00A0               	movwf	(?___ftpack)
  4383+ 0B15  0827               	movf	(___awtoft@c+1),w
  4384+ 0B16  00A1               	movwf	(?___ftpack+1)
  4385+ 0B17  01A2               	clrf	(?___ftpack+2)
  4386+ 0B18  308E               	movlw	(08Eh)
  4387+ 0B19  00F9               	movwf	(??___awtoft+0+0)
  4388+ 0B1A  0879               	movf	(??___awtoft+0+0),w
  4389+ 0B1B  00A3               	movwf	0+(?___ftpack)+03h
  4390+ 0B1C  0825               	movf	(___awtoft@sign),w
  4391+ 0B1D  00FA               	movwf	(??___awtoft+1+0)
  4392+ 0B1E  087A               	movf	(??___awtoft+1+0),w
  4393+ 0B1F  00A4               	movwf	0+(?___ftpack)+04h
  4394+ 0B20  120A  158A  2453   	fcall	___ftpack
      +       120A  158A         
  4395+ 0B25  1383               	bcf	status, 7	;select IRP bank0
  4396+ 0B26  1283               	bcf	status, 5	;RP0=0, select bank0
  4397+ 0B27  1303               	bcf	status, 6	;RP1=0, select bank0
  4398+ 0B28  0820               	movf	(0+(?___ftpack)),w
  4399+ 0B29  00A6               	movwf	(?___awtoft)
  4400+ 0B2A  0821               	movf	(1+(?___ftpack)),w
  4401+ 0B2B  00A7               	movwf	(?___awtoft+1)
  4402+ 0B2C  0822               	movf	(2+(?___ftpack)),w
  4403+ 0B2D  00A8               	movwf	(?___awtoft+2)
  4404+                          	
  4405+ 0B2E                     l184:	
  4406+ 0B2E  0008               	return
  4407+                          	opt stack 0
  4408+                          GLOBAL	__end_of___awtoft
  4409+ 0B2F                     	__end_of___awtoft:
  4410+                          ; =============== function ___awtoft ends ============
  4411+                          
  4412+                          psect	text131,local,class=CODE,delta=2
  4413+                          global __ptext131
  4414+ 000D                     __ptext131:
  4415+                          	line	42
  4416+                          	signat	___awtoft,4219
  4417+                          	global	___fttol
  4418+                          
  4419+                          ; *************** function ___fttol *****************
  4420+                          ; Defined at:
  4421+                          ;		line 45 in file "C:\Program Files (x86)\HI-TECH Software\PICC\9.70\sources\fttol.c"
  4422+                          ; Parameters:    Size  Location     Type
  4423+                          ;  f1              3   26[BANK0 ] float 
  4424+                          ; Auto vars:     Size  Location     Type
  4425+                          ;  lval            4   21[BANK0 ] unsigned long 
  4426+                          ;  exp1            1   25[BANK0 ] unsigned char 
  4427+                          ;  sign1           1   20[BANK0 ] unsigned char 
  4428+                          ; Return value:  Size  Location     Type
  4429+                          ;                  4   26[BANK0 ] long 
  4430+                          ; Registers used:
  4431+                          ;		wreg, status,2, status,0
  4432+                          ; Tracked objects:
  4433+                          ;		On entry : 0/0
  4434+                          ;		On exit  : 0/0
  4435+                          ;		Unchanged: 0/0
  4436+                          ; Data sizes:     COMMON   BANK0   BANK1   BANK3   BANK2
  4437+                          ;      Locals:         0      13       0       0       0
  4438+                          ;      Temp:     3
  4439+                          ;      Total:   13
  4440+                          ; This function calls:
  4441+                          ; This function is called by:
  4442+                          ;		_temperature
  4443+                          ;		_voltage
  4444+                          ; This function uses a non-reentrant model
  4445+                          ; 
  4446+                          psect	text131
  4447+                          	file	"C:\Program Files (x86)\HI-TECH Software\PICC\9.70\sources\fttol.c"
  4448+                          	line	45
  4449+                          	global	__size_of___fttol
  4450+ 0087                     	__size_of___fttol	equ	__end_of___fttol-___fttol
  4451+                          	
  4452+ 000D                     ___fttol:	
  4453+                          	opt stack 6
  4454+                          ; Regs used in ___fttol: [wreg+status,2+status,0]
  4455+                          	line	49
  4456+                          	
  4457+ 000D                     l30001210:	
  4458+ 000D  1283               	bcf	status, 5	;RP0=0, select bank0
  4459+ 000E  1303               	bcf	status, 6	;RP1=0, select bank0
  4460+ 000F  083A               	movf	(___fttol@f1),w
  4461+ 0010  00B1               	movwf	(??___fttol+0+0)
  4462+ 0011  083B               	movf	(___fttol@f1+1),w
  4463+ 0012  00B2               	movwf	(??___fttol+0+0+1)
  4464+ 0013  083C               	movf	(___fttol@f1+2),w
  4465+ 0014  00B3               	movwf	(??___fttol+0+0+2)
  4466+ 0015  1003               	clrc
  4467+ 0016  0D32               	rlf	(??___fttol+0+1),w
  4468+ 0017  0D33               	rlf	(??___fttol+0+2),w
  4469+ 0018  00B9               	movwf	(___fttol@exp1)
  4470+ 0019  08B9               	movf	((___fttol@exp1))&07fh,f
  4471+ 001A  1D03               	skipz
  4472+ 001B  281D               	goto	u1351
  4473+ 001C  281E               	goto	u1350
  4474+ 001D                     u1351:
  4475+ 001D  2827               	goto	l30001213
  4476+ 001E                     u1350:
  4477+                          	
  4478+ 001E                     l30001211:	
  4479+                          	line	50
  4480+ 001E  3000               	movlw	0
  4481+ 001F  00BD               	movwf	(?___fttol+3)
  4482+ 0020  3000               	movlw	0
  4483+ 0021  00BC               	movwf	(?___fttol+2)
  4484+ 0022  3000               	movlw	0
  4485+ 0023  00BB               	movwf	(?___fttol+1)
  4486+ 0024  3000               	movlw	0
  4487+ 0025  00BA               	movwf	(?___fttol)
  4488+                          
  4489+ 0026  2893               	goto	l168
  4490+                          	
  4491+ 0027                     l30001213:	
  4492+                          	line	51
  4493+ 0027  083A               	movf	(___fttol@f1),w
  4494+ 0028  00B1               	movwf	(??___fttol+0+0)
  4495+ 0029  083B               	movf	(___fttol@f1+1),w
  4496+ 002A  00B2               	movwf	(??___fttol+0+0+1)
  4497+ 002B  083C               	movf	(___fttol@f1+2),w
  4498+ 002C  00B3               	movwf	(??___fttol+0+0+2)
  4499+ 002D  3017               	movlw	017h
  4500+ 002E                     u1365:
  4501+ 002E  1003               	clrc
  4502+ 002F  0CB3               	rrf	(??___fttol+0+2),f
  4503+ 0030  0CB2               	rrf	(??___fttol+0+1),f
  4504+ 0031  0CB1               	rrf	(??___fttol+0+0),f
  4505+ 0032                     u1360:
  4506+ 0032  3EFF               	addlw	-1
  4507+ 0033  1D03               	skipz
  4508+ 0034  282E               	goto	u1365
  4509+ 0035  0831               	movf	0+(??___fttol+0+0),w
  4510+ 0036  00B4               	movwf	(___fttol@sign1)
  4511+                          	
  4512+ 0037                     l30001214:	
  4513+                          	line	52
  4514+ 0037  17BB               	bsf	(___fttol@f1)+(15/8),(15)&7
  4515+                          	
  4516+ 0038                     l30001215:	
  4517+                          	line	53
  4518+ 0038  30FF               	movlw	0FFh
  4519+ 0039  05BA               	andwf	(___fttol@f1),f
  4520+ 003A  30FF               	movlw	0FFh
  4521+ 003B  05BB               	andwf	(___fttol@f1+1),f
  4522+ 003C  3000               	movlw	0
  4523+ 003D  05BC               	andwf	(___fttol@f1+2),f
  4524+                          	
  4525+ 003E                     l30001216:	
  4526+                          	line	54
  4527+ 003E  083A               	movf	(___fttol@f1),w
  4528+ 003F  00B5               	movwf	(___fttol@lval)
  4529+ 0040  083B               	movf	(___fttol@f1+1),w
  4530+ 0041  00B6               	movwf	((___fttol@lval))+1
  4531+                          	
  4532+ 0042  083C               	movf	(___fttol@f1+2),w
  4533+ 0043  00B7               	movwf	((___fttol@lval))+2
  4534+                          	
  4535+ 0044  01B8               	clrf	3+(___fttol@lval)
  4536+                          	
  4537+ 0045                     l30001217:	
  4538+                          	line	55
  4539+ 0045  308E               	movlw	low(08Eh)
  4540+ 0046  02B9               	subwf	(___fttol@exp1),f
  4541+                          	
  4542+ 0047                     l30001218:	
  4543+                          	line	56
  4544+ 0047  1FB9               	btfss	(___fttol@exp1),7
  4545+ 0048  284A               	goto	u1371
  4546+ 0049  284B               	goto	u1370
  4547+ 004A                     u1371:
  4548+ 004A  2865               	goto	l30001223
  4549+ 004B                     u1370:
  4550+                          	
  4551+ 004B                     l30001219:	
  4552+                          	line	57
  4553+ 004B  0839               	movf	(___fttol@exp1),w
  4554+ 004C  3A80               	xorlw	80h
  4555+ 004D  3E8F               	addlw	-((-15)^80h)
  4556+ 004E  1803               	skipnc
  4557+ 004F  2851               	goto	u1381
  4558+ 0050  2852               	goto	u1380
  4559+ 0051                     u1381:
  4560+ 0051  2853               	goto	l30001222
  4561+ 0052                     u1380:
  4562+ 0052  281E               	goto	l30001211
  4563+                          	
  4564+ 0053                     l30001222:	
  4565+                          	line	60
  4566+ 0053  3001               	movlw	01h
  4567+ 0054                     u1395:
  4568+ 0054  1003               	clrc
  4569+ 0055  0CB8               	rrf	(___fttol@lval+3),f
  4570+ 0056  0CB7               	rrf	(___fttol@lval+2),f
  4571+ 0057  0CB6               	rrf	(___fttol@lval+1),f
  4572+ 0058  0CB5               	rrf	(___fttol@lval),f
  4573+ 0059  3EFF               	addlw	-1
  4574+ 005A  1D03               	skipz
  4575+ 005B  2854               	goto	u1395
  4576+                          
  4577+                          	line	61
  4578+ 005C  3001               	movlw	(01h)
  4579+ 005D  00B1               	movwf	(??___fttol+0+0)
  4580+ 005E  0831               	movf	(??___fttol+0+0),w
  4581+ 005F  07B9               	addwf	(___fttol@exp1),f
  4582+ 0060  1D03               	btfss	status,2
  4583+ 0061  2863               	goto	u1401
  4584+ 0062  2864               	goto	u1400
  4585+ 0063                     u1401:
  4586+ 0063  2853               	goto	l30001222
  4587+ 0064                     u1400:
  4588+ 0064  287C               	goto	l30001228
  4589+                          	
  4590+ 0065                     l30001223:	
  4591+                          	line	63
  4592+ 0065  3018               	movlw	(018h)
  4593+ 0066  0239               	subwf	(___fttol@exp1),w
  4594+ 0067  1C03               	skipc
  4595+ 0068  286A               	goto	u1411
  4596+ 0069  286B               	goto	u1410
  4597+ 006A                     u1411:
  4598+ 006A  2877               	goto	l30001227
  4599+ 006B                     u1410:
  4600+ 006B  281E               	goto	l30001211
  4601+                          	
  4602+ 006C                     l30001226:	
  4603+                          	line	66
  4604+ 006C  3001               	movlw	01h
  4605+ 006D  00B1               	movwf	(??___fttol+0+0)
  4606+ 006E                     u1425:
  4607+ 006E  1003               	clrc
  4608+ 006F  0DB5               	rlf	(___fttol@lval),f
  4609+ 0070  0DB6               	rlf	(___fttol@lval+1),f
  4610+ 0071  0DB7               	rlf	(___fttol@lval+2),f
  4611+ 0072  0DB8               	rlf	(___fttol@lval+3),f
  4612+ 0073  0BB1               	decfsz	(??___fttol+0+0)
  4613+ 0074  286E               	goto	u1425
  4614+                          	line	67
  4615+ 0075  3001               	movlw	low(01h)
  4616+ 0076  02B9               	subwf	(___fttol@exp1),f
  4617+                          	
  4618+ 0077                     l30001227:	
  4619+                          	line	65
  4620+ 0077  08B9               	movf	(___fttol@exp1),f
  4621+ 0078  1D03               	skipz
  4622+ 0079  287B               	goto	u1431
  4623+ 007A  287C               	goto	u1430
  4624+ 007B                     u1431:
  4625+ 007B  286C               	goto	l30001226
  4626+ 007C                     u1430:
  4627+                          	
  4628+ 007C                     l30001228:	
  4629+                          	line	70
  4630+ 007C  0834               	movf	(___fttol@sign1),w
  4631+ 007D  1D03               	skipz
  4632+ 007E  2880               	goto	u1440
  4633+ 007F  288B               	goto	l30001230
  4634+ 0080                     u1440:
  4635+                          	
  4636+ 0080                     l30001229:	
  4637+                          	line	71
  4638+ 0080  09B5               	comf	(___fttol@lval),f
  4639+ 0081  09B6               	comf	(___fttol@lval+1),f
  4640+ 0082  09B7               	comf	(___fttol@lval+2),f
  4641+ 0083  09B8               	comf	(___fttol@lval+3),f
  4642+ 0084  0AB5               	incf	(___fttol@lval),f
  4643+ 0085  1903               	skipnz
  4644+ 0086  0AB6               	incf	(___fttol@lval+1),f
  4645+ 0087  1903               	skipnz
  4646+ 0088  0AB7               	incf	(___fttol@lval+2),f
  4647+ 0089  1903               	skipnz
  4648+ 008A  0AB8               	incf	(___fttol@lval+3),f
  4649+                          	
  4650+ 008B                     l30001230:	
  4651+                          	line	72
  4652+ 008B  0838               	movf	(___fttol@lval+3),w
  4653+ 008C  00BD               	movwf	(?___fttol+3)
  4654+ 008D  0837               	movf	(___fttol@lval+2),w
  4655+ 008E  00BC               	movwf	(?___fttol+2)
  4656+ 008F  0836               	movf	(___fttol@lval+1),w
  4657+ 0090  00BB               	movwf	(?___fttol+1)
  4658+ 0091  0835               	movf	(___fttol@lval),w
  4659+ 0092  00BA               	movwf	(?___fttol)
  4660+                          
  4661+                          	
  4662+ 0093                     l168:	
  4663+ 0093  0008               	return
  4664+                          	opt stack 0
  4665+                          GLOBAL	__end_of___fttol
  4666+ 0094                     	__end_of___fttol:
  4667+                          ; =============== function ___fttol ends ============
  4668+                          
  4669+                          psect	text132,local,class=CODE,delta=2
  4670+                          global __ptext132
  4671+ 0003                     __ptext132:
  4672+                          	line	73
  4673+                          	signat	___fttol,4220
  4674+                          	global	___ftneg
  4675+                          
  4676+                          ; *************** function ___ftneg *****************
  4677+                          ; Defined at:
  4678+                          ;		line 16 in file "C:\Program Files (x86)\HI-TECH Software\PICC\9.70\sources\ftneg.c"
  4679+                          ; Parameters:    Size  Location     Type
  4680+                          ;  f1              3    0[COMMON] float 
  4681+                          ; Auto vars:     Size  Location     Type
  4682+                          ;		None
  4683+                          ; Return value:  Size  Location     Type
  4684+                          ;                  3    0[COMMON] float 
  4685+                          ; Registers used:
  4686+                          ;		wreg
  4687+                          ; Tracked objects:
  4688+                          ;		On entry : 0/0
  4689+                          ;		On exit  : 0/0
  4690+                          ;		Unchanged: 0/0
  4691+                          ; Data sizes:     COMMON   BANK0   BANK1   BANK3   BANK2
  4692+                          ;      Locals:         3       0       0       0       0
  4693+                          ;      Temp:     0
  4694+                          ;      Total:    3
  4695+                          ; This function calls:
  4696+                          ;		Nothing
  4697+                          ; This function is called by:
  4698+                          ;		_temperature
  4699+                          ;		_voltage
  4700+                          ; This function uses a non-reentrant model
  4701+                          ; 
  4702+                          psect	text132
  4703+                          	file	"C:\Program Files (x86)\HI-TECH Software\PICC\9.70\sources\ftneg.c"
  4704+                          	line	16
  4705+                          	global	__size_of___ftneg
  4706+ 000A                     	__size_of___ftneg	equ	__end_of___ftneg-___ftneg
  4707+                          	
  4708+ 0003                     ___ftneg:	
  4709+                          	opt stack 6
  4710+                          ; Regs used in ___ftneg: [wreg]
  4711+                          	line	17
  4712+                          	
  4713+ 0003                     l30001363:	
  4714+ 0003  0878               	movf	(___ftneg@f1+2),w
  4715+ 0004  0477               	iorwf	(___ftneg@f1+1),w
  4716+ 0005  0476               	iorwf	(___ftneg@f1),w
  4717+ 0006  1903               	skipnz
  4718+ 0007  2809               	goto	u2161
  4719+ 0008  280A               	goto	u2160
  4720+ 0009                     u2161:
  4721+ 0009  280C               	goto	l30001365
  4722+ 000A                     u2160:
  4723+                          	
  4724+ 000A                     l30001364:	
  4725+                          	line	18
  4726+ 000A  3080               	movlw	080h
  4727+ 000B  06F8               	xorwf	(___ftneg@f1+2),f
  4728+                          	
  4729+ 000C                     l30001365:	
  4730+                          	line	19
  4731+                          	
  4732+ 000C                     l207:	
  4733+ 000C  0008               	return
  4734+                          	opt stack 0
  4735+                          GLOBAL	__end_of___ftneg
  4736+ 000D                     	__end_of___ftneg:
  4737+                          ; =============== function ___ftneg ends ============
  4738+                          
  4739+                          psect	text133,local,class=CODE,delta=2
  4740+                          global __ptext133
  4741+ 0094                     __ptext133:
  4742+                          	line	20
  4743+                          	signat	___ftneg,4219
  4744+                          	global	___ftadd
  4745+                          
  4746+                          ; *************** function ___ftadd *****************
  4747+                          ; Defined at:
  4748+                          ;		line 87 in file "C:\Program Files (x86)\HI-TECH Software\PICC\9.70\sources\ftadd.c"
  4749+                          ; Parameters:    Size  Location     Type
  4750+                          ;  f1              3   11[BANK0 ] float 
  4751+                          ;  f2              3   14[BANK0 ] float 
  4752+                          ; Auto vars:     Size  Location     Type
  4753+                          ;  exp1            1   10[BANK0 ] unsigned char 
  4754+                          ;  exp2            1    9[BANK0 ] unsigned char 
  4755+                          ;  sign            1    8[BANK0 ] unsigned char 
  4756+                          ; Return value:  Size  Location     Type
  4757+                          ;                  3   11[BANK0 ] float 
  4758+                          ; Registers used:
  4759+                          ;		wreg, status,2, status,0, pclath, cstack
  4760+                          ; Tracked objects:
  4761+                          ;		On entry : 0/0
  4762+                          ;		On exit  : 0/0
  4763+                          ;		Unchanged: 0/0
  4764+                          ; Data sizes:     COMMON   BANK0   BANK1   BANK3   BANK2
  4765+                          ;      Locals:         0      12       0       0       0
  4766+                          ;      Temp:     3
  4767+                          ;      Total:   12
  4768+                          ; This function calls:
  4769+                          ;		___ftpack
  4770+                          ; This function is called by:
  4771+                          ;		_temperature
  4772+                          ;		_voltage
  4773+                          ; This function uses a non-reentrant model
  4774+                          ; 
  4775+                          psect	text133
  4776+                          	file	"C:\Program Files (x86)\HI-TECH Software\PICC\9.70\sources\ftadd.c"
  4777+                          	line	87
  4778+                          	global	__size_of___ftadd
  4779+ 014C                     	__size_of___ftadd	equ	__end_of___ftadd-___ftadd
  4780+                          	
  4781+ 0094                     ___ftadd:	
  4782+                          	opt stack 6
  4783+                          ; Regs used in ___ftadd: [wreg+status,2+status,0+pclath+cstack]
  4784+                          	line	90
  4785+                          	
  4786+ 0094                     l30001417:	
  4787+ 0094  1283               	bcf	status, 5	;RP0=0, select bank0
  4788+ 0095  1303               	bcf	status, 6	;RP1=0, select bank0
  4789+ 0096  082B               	movf	(___ftadd@f1),w
  4790+ 0097  00A5               	movwf	(??___ftadd+0+0)
  4791+ 0098  082C               	movf	(___ftadd@f1+1),w
  4792+ 0099  00A6               	movwf	(??___ftadd+0+0+1)
  4793+ 009A  082D               	movf	(___ftadd@f1+2),w
  4794+ 009B  00A7               	movwf	(??___ftadd+0+0+2)
  4795+ 009C  1003               	clrc
  4796+ 009D  0D26               	rlf	(??___ftadd+0+1),w
  4797+ 009E  0D27               	rlf	(??___ftadd+0+2),w
  4798+ 009F  00AA               	movwf	(___ftadd@exp1)
  4799+                          	line	91
  4800+ 00A0  082E               	movf	(___ftadd@f2),w
  4801+ 00A1  00A5               	movwf	(??___ftadd+0+0)
  4802+ 00A2  082F               	movf	(___ftadd@f2+1),w
  4803+ 00A3  00A6               	movwf	(??___ftadd+0+0+1)
  4804+ 00A4  0830               	movf	(___ftadd@f2+2),w
  4805+ 00A5  00A7               	movwf	(??___ftadd+0+0+2)
  4806+ 00A6  1003               	clrc
  4807+ 00A7  0D26               	rlf	(??___ftadd+0+1),w
  4808+ 00A8  0D27               	rlf	(??___ftadd+0+2),w
  4809+ 00A9  00A9               	movwf	(___ftadd@exp2)
  4810+                          	
  4811+ 00AA                     l30001418:	
  4812+                          	line	92
  4813+ 00AA  082A               	movf	(___ftadd@exp1),w
  4814+ 00AB  1D03               	skipz
  4815+ 00AC  28AE               	goto	u2170
  4816+ 00AD  28BE               	goto	l30001421
  4817+ 00AE                     u2170:
  4818+                          	
  4819+ 00AE                     l30001419:	
  4820+ 00AE  0829               	movf	(___ftadd@exp2),w
  4821+ 00AF  022A               	subwf	(___ftadd@exp1),w
  4822+ 00B0  1803               	skipnc
  4823+ 00B1  28B3               	goto	u2181
  4824+ 00B2  28B4               	goto	u2180
  4825+ 00B3                     u2181:
  4826+ 00B3  28C5               	goto	l30001423
  4827+ 00B4                     u2180:
  4828+                          	
  4829+ 00B4                     l30001420:	
  4830+ 00B4  032A               	decf	(___ftadd@exp1),w
  4831+ 00B5  3AFF               	xorlw	0ffh
  4832+ 00B6  0729               	addwf	(___ftadd@exp2),w
  4833+ 00B7  00A5               	movwf	(??___ftadd+0+0)
  4834+ 00B8  3019               	movlw	low(019h)
  4835+ 00B9  0225               	subwf	(??___ftadd+0+0),w
  4836+ 00BA  1C03               	skipc
  4837+ 00BB  28BD               	goto	u2191
  4838+ 00BC  28BE               	goto	u2190
  4839+ 00BD                     u2191:
  4840+ 00BD  28C5               	goto	l30001423
  4841+ 00BE                     u2190:
  4842+                          	
  4843+ 00BE                     l30001421:	
  4844+                          	line	93
  4845+ 00BE  082E               	movf	(___ftadd@f2),w
  4846+ 00BF  00AB               	movwf	(?___ftadd)
  4847+ 00C0  082F               	movf	(___ftadd@f2+1),w
  4848+ 00C1  00AC               	movwf	(?___ftadd+1)
  4849+ 00C2  0830               	movf	(___ftadd@f2+2),w
  4850+ 00C3  00AD               	movwf	(?___ftadd+2)
  4851+ 00C4  29DF               	goto	l79
  4852+                          	
  4853+ 00C5                     l30001423:	
  4854+                          	line	94
  4855+ 00C5  0829               	movf	(___ftadd@exp2),w
  4856+ 00C6  1D03               	skipz
  4857+ 00C7  28C9               	goto	u2200
  4858+ 00C8  28D9               	goto	l30001426
  4859+ 00C9                     u2200:
  4860+                          	
  4861+ 00C9                     l30001424:	
  4862+ 00C9  082A               	movf	(___ftadd@exp1),w
  4863+ 00CA  0229               	subwf	(___ftadd@exp2),w
  4864+ 00CB  1803               	skipnc
  4865+ 00CC  28CE               	goto	u2211
  4866+ 00CD  28CF               	goto	u2210
  4867+ 00CE                     u2211:
  4868+ 00CE  28E0               	goto	l30001428
  4869+ 00CF                     u2210:
  4870+                          	
  4871+ 00CF                     l30001425:	
  4872+ 00CF  0329               	decf	(___ftadd@exp2),w
  4873+ 00D0  3AFF               	xorlw	0ffh
  4874+ 00D1  072A               	addwf	(___ftadd@exp1),w
  4875+ 00D2  00A5               	movwf	(??___ftadd+0+0)
  4876+ 00D3  3019               	movlw	low(019h)
  4877+ 00D4  0225               	subwf	(??___ftadd+0+0),w
  4878+ 00D5  1C03               	skipc
  4879+ 00D6  28D8               	goto	u2221
  4880+ 00D7  28D9               	goto	u2220
  4881+ 00D8                     u2221:
  4882+ 00D8  28E0               	goto	l30001428
  4883+ 00D9                     u2220:
  4884+                          	
  4885+ 00D9                     l30001426:	
  4886+                          	line	95
  4887+ 00D9  082B               	movf	(___ftadd@f1),w
  4888+ 00DA  00AB               	movwf	(?___ftadd)
  4889+ 00DB  082C               	movf	(___ftadd@f1+1),w
  4890+ 00DC  00AC               	movwf	(?___ftadd+1)
  4891+ 00DD  082D               	movf	(___ftadd@f1+2),w
  4892+ 00DE  00AD               	movwf	(?___ftadd+2)
  4893+ 00DF  29DF               	goto	l79
  4894+                          	
  4895+ 00E0                     l30001428:	
  4896+                          	line	96
  4897+ 00E0  3006               	movlw	(06h)
  4898+ 00E1  00A8               	movwf	(___ftadd@sign)
  4899+                          	
  4900+ 00E2                     l30001429:	
  4901+                          	line	97
  4902+ 00E2  1FAD               	btfss	(___ftadd@f1+2),(23)&7
  4903+ 00E3  28E5               	goto	u2231
  4904+ 00E4  28E6               	goto	u2230
  4905+ 00E5                     u2231:
  4906+ 00E5  28E7               	goto	l82
  4907+ 00E6                     u2230:
  4908+                          	
  4909+ 00E6                     l30001430:	
  4910+                          	line	98
  4911+ 00E6  17A8               	bsf	(___ftadd@sign)+(7/8),(7)&7
  4912+                          	
  4913+ 00E7                     l82:	
  4914+                          	line	99
  4915+ 00E7  1FB0               	btfss	(___ftadd@f2+2),(23)&7
  4916+ 00E8  28EA               	goto	u2241
  4917+ 00E9  28EB               	goto	u2240
  4918+ 00EA                     u2241:
  4919+ 00EA  28EC               	goto	l83
  4920+ 00EB                     u2240:
  4921+                          	
  4922+ 00EB                     l30001431:	
  4923+                          	line	100
  4924+ 00EB  1728               	bsf	(___ftadd@sign)+(6/8),(6)&7
  4925+                          	
  4926+ 00EC                     l83:	
  4927+                          	line	101
  4928+ 00EC  17AC               	bsf	(___ftadd@f1)+(15/8),(15)&7
  4929+                          	
  4930+ 00ED                     l30001432:	
  4931+                          	line	102
  4932+ 00ED  30FF               	movlw	0FFh
  4933+ 00EE  05AB               	andwf	(___ftadd@f1),f
  4934+ 00EF  30FF               	movlw	0FFh
  4935+ 00F0  05AC               	andwf	(___ftadd@f1+1),f
  4936+ 00F1  3000               	movlw	0
  4937+ 00F2  05AD               	andwf	(___ftadd@f1+2),f
  4938+                          	
  4939+ 00F3                     l30001433:	
  4940+                          	line	103
  4941+ 00F3  17AF               	bsf	(___ftadd@f2)+(15/8),(15)&7
  4942+                          	line	104
  4943+ 00F4  30FF               	movlw	0FFh
  4944+ 00F5  05AE               	andwf	(___ftadd@f2),f
  4945+ 00F6  30FF               	movlw	0FFh
  4946+ 00F7  05AF               	andwf	(___ftadd@f2+1),f
  4947+ 00F8  3000               	movlw	0
  4948+ 00F9  05B0               	andwf	(___ftadd@f2+2),f
  4949+                          	line	106
  4950+ 00FA  0829               	movf	(___ftadd@exp2),w
  4951+ 00FB  022A               	subwf	(___ftadd@exp1),w
  4952+ 00FC  1803               	skipnc
  4953+ 00FD  28FF               	goto	u2251
  4954+ 00FE  2900               	goto	u2250
  4955+ 00FF                     u2251:
  4956+ 00FF  292C               	goto	l30001439
  4957+ 0100                     u2250:
  4958+                          	
  4959+ 0100                     l30001434:	
  4960+                          	line	110
  4961+ 0100  3001               	movlw	01h
  4962+ 0101                     u2265:
  4963+ 0101  1003               	clrc
  4964+ 0102  0DAE               	rlf	(___ftadd@f2),f
  4965+ 0103  0DAF               	rlf	(___ftadd@f2+1),f
  4966+ 0104  0DB0               	rlf	(___ftadd@f2+2),f
  4967+ 0105  3EFF               	addlw	-1
  4968+ 0106  1D03               	skipz
  4969+ 0107  2901               	goto	u2265
  4970+                          	line	111
  4971+ 0108  3001               	movlw	low(01h)
  4972+ 0109  02A9               	subwf	(___ftadd@exp2),f
  4973+                          	
  4974+ 010A                     l30001435:	
  4975+                          	line	112
  4976+ 010A  0829               	movf	(___ftadd@exp2),w
  4977+ 010B  062A               	xorwf	(___ftadd@exp1),w
  4978+ 010C  1903               	skipnz
  4979+ 010D  290F               	goto	u2271
  4980+ 010E  2910               	goto	u2270
  4981+ 010F                     u2271:
  4982+ 010F  2925               	goto	l30001438
  4983+ 0110                     u2270:
  4984+                          	
  4985+ 0110                     l30001436:	
  4986+ 0110  3001               	movlw	low(01h)
  4987+ 0111  02A8               	subwf	(___ftadd@sign),f
  4988+ 0112  0828               	movf	((___ftadd@sign))&07fh,w
  4989+ 0113  3907               	andlw	07h
  4990+ 0114  1D03               	btfss	status,2
  4991+ 0115  2917               	goto	u2281
  4992+ 0116  2918               	goto	u2280
  4993+ 0117                     u2281:
  4994+ 0117  2900               	goto	l30001434
  4995+ 0118                     u2280:
  4996+ 0118  2925               	goto	l30001438
  4997+                          	
  4998+ 0119                     l30001437:	
  4999+                          	line	114
  5000+ 0119  3001               	movlw	01h
  5001+ 011A                     u2295:
  5002+ 011A  1003               	clrc
  5003+ 011B  0CAD               	rrf	(___ftadd@f1+2),f
  5004+ 011C  0CAC               	rrf	(___ftadd@f1+1),f
  5005+ 011D  0CAB               	rrf	(___ftadd@f1),f
  5006+ 011E  3EFF               	addlw	-1
  5007+ 011F  1D03               	skipz
  5008+ 0120  291A               	goto	u2295
  5009+                          
  5010+                          	line	115
  5011+ 0121  3001               	movlw	(01h)
  5012+ 0122  00A5               	movwf	(??___ftadd+0+0)
  5013+ 0123  0825               	movf	(??___ftadd+0+0),w
  5014+ 0124  07AA               	addwf	(___ftadd@exp1),f
  5015+                          	
  5016+ 0125                     l30001438:	
  5017+                          	line	113
  5018+ 0125  082A               	movf	(___ftadd@exp1),w
  5019+ 0126  0629               	xorwf	(___ftadd@exp2),w
  5020+ 0127  1D03               	skipz
  5021+ 0128  292A               	goto	u2301
  5022+ 0129  292B               	goto	u2300
  5023+ 012A                     u2301:
  5024+ 012A  2919               	goto	l30001437
  5025+ 012B                     u2300:
  5026+ 012B  295D               	goto	l91
  5027+                          	
  5028+ 012C                     l30001439:	
  5029+                          	line	117
  5030+ 012C  082A               	movf	(___ftadd@exp1),w
  5031+ 012D  0229               	subwf	(___ftadd@exp2),w
  5032+ 012E  1803               	skipnc
  5033+ 012F  2931               	goto	u2311
  5034+ 0130  2932               	goto	u2310
  5035+ 0131                     u2311:
  5036+ 0131  295D               	goto	l91
  5037+ 0132                     u2310:
  5038+                          	
  5039+ 0132                     l30001440:	
  5040+                          	line	121
  5041+ 0132  3001               	movlw	01h
  5042+ 0133                     u2325:
  5043+ 0133  1003               	clrc
  5044+ 0134  0DAB               	rlf	(___ftadd@f1),f
  5045+ 0135  0DAC               	rlf	(___ftadd@f1+1),f
  5046+ 0136  0DAD               	rlf	(___ftadd@f1+2),f
  5047+ 0137  3EFF               	addlw	-1
  5048+ 0138  1D03               	skipz
  5049+ 0139  2933               	goto	u2325
  5050+                          	line	122
  5051+ 013A  3001               	movlw	low(01h)
  5052+ 013B  02AA               	subwf	(___ftadd@exp1),f
  5053+                          	
  5054+ 013C                     l30001441:	
  5055+                          	line	123
  5056+ 013C  0829               	movf	(___ftadd@exp2),w
  5057+ 013D  062A               	xorwf	(___ftadd@exp1),w
  5058+ 013E  1903               	skipnz
  5059+ 013F  2941               	goto	u2331
  5060+ 0140  2942               	goto	u2330
  5061+ 0141                     u2331:
  5062+ 0141  2957               	goto	l30001444
  5063+ 0142                     u2330:
  5064+                          	
  5065+ 0142                     l30001442:	
  5066+ 0142  3001               	movlw	low(01h)
  5067+ 0143  02A8               	subwf	(___ftadd@sign),f
  5068+ 0144  0828               	movf	((___ftadd@sign))&07fh,w
  5069+ 0145  3907               	andlw	07h
  5070+ 0146  1D03               	btfss	status,2
  5071+ 0147  2949               	goto	u2341
  5072+ 0148  294A               	goto	u2340
  5073+ 0149                     u2341:
  5074+ 0149  2932               	goto	l30001440
  5075+ 014A                     u2340:
  5076+ 014A  2957               	goto	l30001444
  5077+                          	
  5078+ 014B                     l30001443:	
  5079+                          	line	125
  5080+ 014B  3001               	movlw	01h
  5081+ 014C                     u2355:
  5082+ 014C  1003               	clrc
  5083+ 014D  0CB0               	rrf	(___ftadd@f2+2),f
  5084+ 014E  0CAF               	rrf	(___ftadd@f2+1),f
  5085+ 014F  0CAE               	rrf	(___ftadd@f2),f
  5086+ 0150  3EFF               	addlw	-1
  5087+ 0151  1D03               	skipz
  5088+ 0152  294C               	goto	u2355
  5089+                          
  5090+                          	line	126
  5091+ 0153  3001               	movlw	(01h)
  5092+ 0154  00A5               	movwf	(??___ftadd+0+0)
  5093+ 0155  0825               	movf	(??___ftadd+0+0),w
  5094+ 0156  07A9               	addwf	(___ftadd@exp2),f
  5095+                          	
  5096+ 0157                     l30001444:	
  5097+                          	line	124
  5098+ 0157  082A               	movf	(___ftadd@exp1),w
  5099+ 0158  0629               	xorwf	(___ftadd@exp2),w
  5100+ 0159  1D03               	skipz
  5101+ 015A  295C               	goto	u2361
  5102+ 015B  295D               	goto	u2360
  5103+ 015C                     u2361:
  5104+ 015C  294B               	goto	l30001443
  5105+ 015D                     u2360:
  5106+                          	
  5107+ 015D                     l91:	
  5108+                          	line	129
  5109+ 015D  1FA8               	btfss	(___ftadd@sign),(7)&7
  5110+ 015E  2960               	goto	u2371
  5111+ 015F  2961               	goto	u2370
  5112+ 0160                     u2371:
  5113+ 0160  2977               	goto	l30001446
  5114+ 0161                     u2370:
  5115+                          	
  5116+ 0161                     l30001445:	
  5117+                          	line	131
  5118+ 0161  30FF               	movlw	0FFh
  5119+ 0162  06AB               	xorwf	(___ftadd@f1),f
  5120+ 0163  30FF               	movlw	0FFh
  5121+ 0164  06AC               	xorwf	(___ftadd@f1+1),f
  5122+ 0165  30FF               	movlw	0FFh
  5123+ 0166  06AD               	xorwf	(___ftadd@f1+2),f
  5124+                          	line	132
  5125+ 0167  3001               	movlw	01h
  5126+ 0168  07AB               	addwf	(___ftadd@f1),f
  5127+ 0169  3000               	movlw	0
  5128+ 016A  1103               	clrz
  5129+ 016B  1803               	skipnc
  5130+ 016C  3E01               	addlw	1
  5131+ 016D  1903               	skipnz
  5132+ 016E  2970               	goto	u2381
  5133+ 016F  07AC               	addwf	(___ftadd@f1+1),f
  5134+ 0170                     u2381:
  5135+ 0170  3000               	movlw	0
  5136+ 0171  1103               	clrz
  5137+ 0172  1803               	skipnc
  5138+ 0173  3E01               	addlw	1
  5139+ 0174  1903               	skipnz
  5140+ 0175  2977               	goto	u2382
  5141+ 0176  07AD               	addwf	(___ftadd@f1+2),f
  5142+ 0177                     u2382:
  5143+                          
  5144+                          	
  5145+ 0177                     l30001446:	
  5146+                          	line	134
  5147+ 0177  1F28               	btfss	(___ftadd@sign),(6)&7
  5148+ 0178  297A               	goto	u2391
  5149+ 0179  297B               	goto	u2390
  5150+ 017A                     u2391:
  5151+ 017A  2991               	goto	l30001448
  5152+ 017B                     u2390:
  5153+                          	
  5154+ 017B                     l30001447:	
  5155+                          	line	136
  5156+ 017B  30FF               	movlw	0FFh
  5157+ 017C  06AE               	xorwf	(___ftadd@f2),f
  5158+ 017D  30FF               	movlw	0FFh
  5159+ 017E  06AF               	xorwf	(___ftadd@f2+1),f
  5160+ 017F  30FF               	movlw	0FFh
  5161+ 0180  06B0               	xorwf	(___ftadd@f2+2),f
  5162+                          	line	137
  5163+ 0181  3001               	movlw	01h
  5164+ 0182  07AE               	addwf	(___ftadd@f2),f
  5165+ 0183  3000               	movlw	0
  5166+ 0184  1103               	clrz
  5167+ 0185  1803               	skipnc
  5168+ 0186  3E01               	addlw	1
  5169+ 0187  1903               	skipnz
  5170+ 0188  298A               	goto	u2401
  5171+ 0189  07AF               	addwf	(___ftadd@f2+1),f
  5172+ 018A                     u2401:
  5173+ 018A  3000               	movlw	0
  5174+ 018B  1103               	clrz
  5175+ 018C  1803               	skipnc
  5176+ 018D  3E01               	addlw	1
  5177+ 018E  1903               	skipnz
  5178+ 018F  2991               	goto	u2402
  5179+ 0190  07B0               	addwf	(___ftadd@f2+2),f
  5180+ 0191                     u2402:
  5181+                          
  5182+                          	
  5183+ 0191                     l30001448:	
  5184+                          	line	139
  5185+ 0191  1003               	clrc
  5186+ 0192  3000               	movlw	0
  5187+ 0193  1803               	btfsc	status,0
  5188+ 0194  3001               	movlw	1
  5189+ 0195  00A8               	movwf	(___ftadd@sign)
  5190+                          	
  5191+ 0196                     l30001449:	
  5192+                          	line	140
  5193+ 0196  082B               	movf	(___ftadd@f1),w
  5194+ 0197  07AE               	addwf	(___ftadd@f2),f
  5195+ 0198  082C               	movf	(___ftadd@f1+1),w
  5196+ 0199  1103               	clrz
  5197+ 019A  1803               	skipnc
  5198+ 019B  0A2C               	incf	(___ftadd@f1+1),w
  5199+ 019C  1903               	skipnz
  5200+ 019D  299F               	goto	u2411
  5201+ 019E  07AF               	addwf	(___ftadd@f2+1),f
  5202+ 019F                     u2411:
  5203+ 019F  082D               	movf	(___ftadd@f1+2),w
  5204+ 01A0  1103               	clrz
  5205+ 01A1  1803               	skipnc
  5206+ 01A2  0A2D               	incf	(___ftadd@f1+2),w
  5207+ 01A3  1903               	skipnz
  5208+ 01A4  29A6               	goto	u2412
  5209+ 01A5  07B0               	addwf	(___ftadd@f2+2),f
  5210+ 01A6                     u2412:
  5211+                          
  5212+                          	
  5213+ 01A6                     l30001450:	
  5214+                          	line	141
  5215+ 01A6  1FB0               	btfss	(___ftadd@f2+2),(23)&7
  5216+ 01A7  29A9               	goto	u2421
  5217+ 01A8  29AA               	goto	u2420
  5218+ 01A9                     u2421:
  5219+ 01A9  29C3               	goto	l30001453
  5220+ 01AA                     u2420:
  5221+                          	
  5222+ 01AA                     l30001451:	
  5223+                          	line	142
  5224+ 01AA  30FF               	movlw	0FFh
  5225+ 01AB  06AE               	xorwf	(___ftadd@f2),f
  5226+ 01AC  30FF               	movlw	0FFh
  5227+ 01AD  06AF               	xorwf	(___ftadd@f2+1),f
  5228+ 01AE  30FF               	movlw	0FFh
  5229+ 01AF  06B0               	xorwf	(___ftadd@f2+2),f
  5230+                          	line	143
  5231+ 01B0  3001               	movlw	01h
  5232+ 01B1  07AE               	addwf	(___ftadd@f2),f
  5233+ 01B2  3000               	movlw	0
  5234+ 01B3  1103               	clrz
  5235+ 01B4  1803               	skipnc
  5236+ 01B5  3E01               	addlw	1
  5237+ 01B6  1903               	skipnz
  5238+ 01B7  29B9               	goto	u2431
  5239+ 01B8  07AF               	addwf	(___ftadd@f2+1),f
  5240+ 01B9                     u2431:
  5241+ 01B9  3000               	movlw	0
  5242+ 01BA  1103               	clrz
  5243+ 01BB  1803               	skipnc
  5244+ 01BC  3E01               	addlw	1
  5245+ 01BD  1903               	skipnz
  5246+ 01BE  29C0               	goto	u2432
  5247+ 01BF  07B0               	addwf	(___ftadd@f2+2),f
  5248+ 01C0                     u2432:
  5249+                          
  5250+                          	
  5251+ 01C0                     l30001452:	
  5252+                          	line	144
  5253+ 01C0  01A8               	clrf	(___ftadd@sign)
  5254+ 01C1  1403               	bsf	status,0
  5255+ 01C2  0DA8               	rlf	(___ftadd@sign),f
  5256+                          	
  5257+ 01C3                     l30001453:	
  5258+                          	line	146
  5259+ 01C3  082E               	movf	(___ftadd@f2),w
  5260+ 01C4  00A0               	movwf	(?___ftpack)
  5261+ 01C5  082F               	movf	(___ftadd@f2+1),w
  5262+ 01C6  00A1               	movwf	(?___ftpack+1)
  5263+ 01C7  0830               	movf	(___ftadd@f2+2),w
  5264+ 01C8  00A2               	movwf	(?___ftpack+2)
  5265+ 01C9  082A               	movf	(___ftadd@exp1),w
  5266+ 01CA  00A5               	movwf	(??___ftadd+0+0)
  5267+ 01CB  0825               	movf	(??___ftadd+0+0),w
  5268+ 01CC  00A3               	movwf	0+(?___ftpack)+03h
  5269+ 01CD  0828               	movf	(___ftadd@sign),w
  5270+ 01CE  00A6               	movwf	(??___ftadd+1+0)
  5271+ 01CF  0826               	movf	(??___ftadd+1+0),w
  5272+ 01D0  00A4               	movwf	0+(?___ftpack)+04h
  5273+ 01D1  120A  158A  2453   	fcall	___ftpack
      +       120A  118A         
  5274+ 01D6  1383               	bcf	status, 7	;select IRP bank0
  5275+ 01D7  1283               	bcf	status, 5	;RP0=0, select bank0
  5276+ 01D8  1303               	bcf	status, 6	;RP1=0, select bank0
  5277+ 01D9  0820               	movf	(0+(?___ftpack)),w
  5278+ 01DA  00AB               	movwf	(?___ftadd)
  5279+ 01DB  0821               	movf	(1+(?___ftpack)),w
  5280+ 01DC  00AC               	movwf	(?___ftadd+1)
  5281+ 01DD  0822               	movf	(2+(?___ftpack)),w
  5282+ 01DE  00AD               	movwf	(?___ftadd+2)
  5283+                          	
  5284+ 01DF                     l79:	
  5285+ 01DF  0008               	return
  5286+                          	opt stack 0
  5287+                          GLOBAL	__end_of___ftadd
  5288+ 01E0                     	__end_of___ftadd:
  5289+                          ; =============== function ___ftadd ends ============
  5290+                          
  5291+                          psect	text134,local,class=CODE,delta=2
  5292+                          global __ptext134
  5293+ 0CCF                     __ptext134:
  5294+                          	line	148
  5295+                          	signat	___ftadd,8315
  5296+                          	global	_count
  5297+                          
  5298+                          ; *************** function _count *****************
  5299+                          ; Defined at:
  5300+                          ;		line 55 in file "C:\Users\gowth\Documents\PIC Programs\ADC\Temp LM35\LM35.c"
  5301+                          ; Parameters:    Size  Location     Type
  5302+                          ;  i               2   22[BANK0 ] int 
  5303+                          ; Auto vars:     Size  Location     Type
  5304+                          ;  f               2   16[BANK0 ] int 
  5305+                          ;  e               2   14[BANK0 ] int 
  5306+                          ;  c               2   20[BANK0 ] int 
  5307+                          ;  a               2   18[BANK0 ] int 
  5308+                          ; Return value:  Size  Location     Type
  5309+                          ;		None               void
  5310+                          ; Registers used:
  5311+                          ;		wreg, status,2, status,0, pclath, cstack
  5312+                          ; Tracked objects:
  5313+                          ;		On entry : 0/0
  5314+                          ;		On exit  : 0/0
  5315+                          ;		Unchanged: 0/0
  5316+                          ; Data sizes:     COMMON   BANK0   BANK1   BANK3   BANK2
  5317+                          ;      Locals:         0      10       0       0       0
  5318+                          ;      Temp:     0
  5319+                          ;      Total:   10
  5320+                          ; This function calls:
  5321+                          ;		___awdiv
  5322+                          ;		___awmod
  5323+                          ;		_command
  5324+                          ;		_data
  5325+                          ; This function is called by:
  5326+                          ;		_adc
  5327+                          ; This function uses a non-reentrant model
  5328+                          ; 
  5329+                          psect	text134
  5330+                          	file	"C:\Users\gowth\Documents\PIC Programs\ADC\Temp LM35\LM35.c"
  5331+                          	line	55
  5332+                          	global	__size_of_count
  5333+ 00B1                     	__size_of_count	equ	__end_of_count-_count
  5334+                          ;LM35.c: 54: void count(int i)
  5335+                          ;LM35.c: 55: {
  5336+                          	
  5337+ 0CCF                     _count:	
  5338+                          	opt stack 6
  5339+                          ; Regs used in _count: [wreg+status,2+status,0+pclath+cstack]
  5340+                          	line	58
  5341+                          	
  5342+ 0CCF                     l30001585:	
  5343+                          ;LM35.c: 56: int a,c,e,f;
  5344+                          ;LM35.c: 58: a=i/1000;
  5345+ 0CCF  1283               	bcf	status, 5	;RP0=0, select bank0
  5346+ 0CD0  1303               	bcf	status, 6	;RP1=0, select bank0
  5347+ 0CD1  0837               	movf	(count@i+1),w
  5348+ 0CD2  01AB               	clrf	(?___awdiv+1)
  5349+ 0CD3  07AB               	addwf	(?___awdiv+1)
  5350+ 0CD4  0836               	movf	(count@i),w
  5351+ 0CD5  01AA               	clrf	(?___awdiv)
  5352+ 0CD6  07AA               	addwf	(?___awdiv)
  5353+                          
  5354+ 0CD7  30E8               	movlw	low(03E8h)
  5355+ 0CD8  00AC               	movwf	0+(?___awdiv)+02h
  5356+ 0CD9  3003               	movlw	high(03E8h)
  5357+ 0CDA  00AD               	movwf	(0+(?___awdiv)+02h)+1
  5358+ 0CDB  120A  158A  23E1   	fcall	___awdiv
      +       120A  158A         
  5359+ 0CE0  1383               	bcf	status, 7	;select IRP bank0
  5360+ 0CE1  1283               	bcf	status, 5	;RP0=0, select bank0
  5361+ 0CE2  1303               	bcf	status, 6	;RP1=0, select bank0
  5362+ 0CE3  082B               	movf	(1+(?___awdiv)),w
  5363+ 0CE4  01B3               	clrf	(count@a+1)
  5364+ 0CE5  07B3               	addwf	(count@a+1)
  5365+ 0CE6  082A               	movf	(0+(?___awdiv)),w
  5366+ 0CE7  01B2               	clrf	(count@a)
  5367+ 0CE8  07B2               	addwf	(count@a)
  5368+                          
  5369+                          	line	59
  5370+                          ;LM35.c: 59: c=(i%1000)/100;
  5371+ 0CE9  0837               	movf	(count@i+1),w
  5372+ 0CEA  01A3               	clrf	(?___awmod+1)
  5373+ 0CEB  07A3               	addwf	(?___awmod+1)
  5374+ 0CEC  0836               	movf	(count@i),w
  5375+ 0CED  01A2               	clrf	(?___awmod)
  5376+ 0CEE  07A2               	addwf	(?___awmod)
  5377+                          
  5378+ 0CEF  30E8               	movlw	low(03E8h)
  5379+ 0CF0  00A4               	movwf	0+(?___awmod)+02h
  5380+ 0CF1  3003               	movlw	high(03E8h)
  5381+ 0CF2  00A5               	movwf	(0+(?___awmod)+02h)+1
  5382+ 0CF3  120A  158A  237F   	fcall	___awmod
      +       120A  158A         
  5383+ 0CF8  1383               	bcf	status, 7	;select IRP bank0
  5384+ 0CF9  1283               	bcf	status, 5	;RP0=0, select bank0
  5385+ 0CFA  1303               	bcf	status, 6	;RP1=0, select bank0
  5386+ 0CFB  0823               	movf	(1+(?___awmod)),w
  5387+ 0CFC  01AB               	clrf	(?___awdiv+1)
  5388+ 0CFD  07AB               	addwf	(?___awdiv+1)
  5389+ 0CFE  0822               	movf	(0+(?___awmod)),w
  5390+ 0CFF  01AA               	clrf	(?___awdiv)
  5391+ 0D00  07AA               	addwf	(?___awdiv)
  5392+                          
  5393+ 0D01  3064               	movlw	low(064h)
  5394+ 0D02  00AC               	movwf	0+(?___awdiv)+02h
  5395+ 0D03  3000               	movlw	high(064h)
  5396+ 0D04  00AD               	movwf	(0+(?___awdiv)+02h)+1
  5397+ 0D05  120A  158A  23E1   	fcall	___awdiv
      +       120A  158A         
  5398+ 0D0A  1383               	bcf	status, 7	;select IRP bank0
  5399+ 0D0B  1283               	bcf	status, 5	;RP0=0, select bank0
  5400+ 0D0C  1303               	bcf	status, 6	;RP1=0, select bank0
  5401+ 0D0D  082B               	movf	(1+(?___awdiv)),w
  5402+ 0D0E  01B5               	clrf	(count@c+1)
  5403+ 0D0F  07B5               	addwf	(count@c+1)
  5404+ 0D10  082A               	movf	(0+(?___awdiv)),w
  5405+ 0D11  01B4               	clrf	(count@c)
  5406+ 0D12  07B4               	addwf	(count@c)
  5407+                          
  5408+                          	line	60
  5409+                          ;LM35.c: 60: e=(i%100)/10;
  5410+ 0D13  0837               	movf	(count@i+1),w
  5411+ 0D14  01A3               	clrf	(?___awmod+1)
  5412+ 0D15  07A3               	addwf	(?___awmod+1)
  5413+ 0D16  0836               	movf	(count@i),w
  5414+ 0D17  01A2               	clrf	(?___awmod)
  5415+ 0D18  07A2               	addwf	(?___awmod)
  5416+                          
  5417+ 0D19  3064               	movlw	low(064h)
  5418+ 0D1A  00A4               	movwf	0+(?___awmod)+02h
  5419+ 0D1B  3000               	movlw	high(064h)
  5420+ 0D1C  00A5               	movwf	(0+(?___awmod)+02h)+1
  5421+ 0D1D  120A  158A  237F   	fcall	___awmod
      +       120A  158A         
  5422+ 0D22  1383               	bcf	status, 7	;select IRP bank0
  5423+ 0D23  1283               	bcf	status, 5	;RP0=0, select bank0
  5424+ 0D24  1303               	bcf	status, 6	;RP1=0, select bank0
  5425+ 0D25  0823               	movf	(1+(?___awmod)),w
  5426+ 0D26  01AB               	clrf	(?___awdiv+1)
  5427+ 0D27  07AB               	addwf	(?___awdiv+1)
  5428+ 0D28  0822               	movf	(0+(?___awmod)),w
  5429+ 0D29  01AA               	clrf	(?___awdiv)
  5430+ 0D2A  07AA               	addwf	(?___awdiv)
  5431+                          
  5432+ 0D2B  300A               	movlw	low(0Ah)
  5433+ 0D2C  00AC               	movwf	0+(?___awdiv)+02h
  5434+ 0D2D  3000               	movlw	high(0Ah)
  5435+ 0D2E  00AD               	movwf	(0+(?___awdiv)+02h)+1
  5436+ 0D2F  120A  158A  23E1   	fcall	___awdiv
      +       120A  158A         
  5437+ 0D34  1383               	bcf	status, 7	;select IRP bank0
  5438+ 0D35  1283               	bcf	status, 5	;RP0=0, select bank0
  5439+ 0D36  1303               	bcf	status, 6	;RP1=0, select bank0
  5440+ 0D37  082B               	movf	(1+(?___awdiv)),w
  5441+ 0D38  01AF               	clrf	(count@e+1)
  5442+ 0D39  07AF               	addwf	(count@e+1)
  5443+ 0D3A  082A               	movf	(0+(?___awdiv)),w
  5444+ 0D3B  01AE               	clrf	(count@e)
  5445+ 0D3C  07AE               	addwf	(count@e)
  5446+                          
  5447+                          	line	61
  5448+                          ;LM35.c: 61: f=i%10;
  5449+ 0D3D  0837               	movf	(count@i+1),w
  5450+ 0D3E  01A3               	clrf	(?___awmod+1)
  5451+ 0D3F  07A3               	addwf	(?___awmod+1)
  5452+ 0D40  0836               	movf	(count@i),w
  5453+ 0D41  01A2               	clrf	(?___awmod)
  5454+ 0D42  07A2               	addwf	(?___awmod)
  5455+                          
  5456+ 0D43  300A               	movlw	low(0Ah)
  5457+ 0D44  00A4               	movwf	0+(?___awmod)+02h
  5458+ 0D45  3000               	movlw	high(0Ah)
  5459+ 0D46  00A5               	movwf	(0+(?___awmod)+02h)+1
  5460+ 0D47  120A  158A  237F   	fcall	___awmod
      +       120A  158A         
  5461+ 0D4C  1383               	bcf	status, 7	;select IRP bank0
  5462+ 0D4D  1283               	bcf	status, 5	;RP0=0, select bank0
  5463+ 0D4E  1303               	bcf	status, 6	;RP1=0, select bank0
  5464+ 0D4F  0823               	movf	(1+(?___awmod)),w
  5465+ 0D50  01B1               	clrf	(count@f+1)
  5466+ 0D51  07B1               	addwf	(count@f+1)
  5467+ 0D52  0822               	movf	(0+(?___awmod)),w
  5468+ 0D53  01B0               	clrf	(count@f)
  5469+ 0D54  07B0               	addwf	(count@f)
  5470+                          
  5471+                          	line	63
  5472+                          ;LM35.c: 63: command(0X80);
  5473+ 0D55  3080               	movlw	(080h)
  5474+ 0D56  120A  158A  22BC   	fcall	_command
      +       120A  158A         
  5475+                          	line	64
  5476+                          ;LM35.c: 64: data(a+48);
  5477+ 0D5B  1283               	bcf	status, 5	;RP0=0, select bank0
  5478+ 0D5C  1303               	bcf	status, 6	;RP1=0, select bank0
  5479+ 0D5D  0832               	movf	(count@a),w
  5480+ 0D5E  3E30               	addlw	030h
  5481+ 0D5F  120A  158A  22B0   	fcall	_data
      +       120A  158A         
  5482+                          	line	65
  5483+                          ;LM35.c: 65: data(c+48);
  5484+ 0D64  1283               	bcf	status, 5	;RP0=0, select bank0
  5485+ 0D65  1303               	bcf	status, 6	;RP1=0, select bank0
  5486+ 0D66  0834               	movf	(count@c),w
  5487+ 0D67  3E30               	addlw	030h
  5488+ 0D68  120A  158A  22B0   	fcall	_data
      +       120A  158A         
  5489+                          	line	66
  5490+                          ;LM35.c: 66: data(e+48);
  5491+ 0D6D  1283               	bcf	status, 5	;RP0=0, select bank0
  5492+ 0D6E  1303               	bcf	status, 6	;RP1=0, select bank0
  5493+ 0D6F  082E               	movf	(count@e),w
  5494+ 0D70  3E30               	addlw	030h
  5495+ 0D71  120A  158A  22B0   	fcall	_data
      +       120A  158A         
  5496+                          	line	67
  5497+                          ;LM35.c: 67: data(f+48);
  5498+ 0D76  1283               	bcf	status, 5	;RP0=0, select bank0
  5499+ 0D77  1303               	bcf	status, 6	;RP1=0, select bank0
  5500+ 0D78  0830               	movf	(count@f),w
  5501+ 0D79  3E30               	addlw	030h
  5502+ 0D7A  120A  158A  22B0   	fcall	_data
      +       120A  158A         
  5503+                          	
  5504+ 0D7F                     l12:	
  5505+ 0D7F  0008               	return
  5506+                          	opt stack 0
  5507+                          GLOBAL	__end_of_count
  5508+ 0D80                     	__end_of_count:
  5509+                          ; =============== function _count ends ============
  5510+                          
  5511+                          psect	text135,local,class=CODE,delta=2
  5512+                          global __ptext135
  5513+ 0C53                     __ptext135:
  5514+                          	line	68
  5515+                          	signat	_count,4216
  5516+                          	global	___ftpack
  5517+                          
  5518+                          ; *************** function ___ftpack *****************
  5519+                          ; Defined at:
  5520+                          ;		line 63 in file "C:\Program Files (x86)\HI-TECH Software\PICC\9.70\sources\float.c"
  5521+                          ; Parameters:    Size  Location     Type
  5522+                          ;  arg             3    0[BANK0 ] unsigned um
  5523+                          ;  exp             1    3[BANK0 ] unsigned char 
  5524+                          ;  sign            1    4[BANK0 ] unsigned char 
  5525+                          ; Auto vars:     Size  Location     Type
  5526+                          ;		None
  5527+                          ; Return value:  Size  Location     Type
  5528+                          ;                  3    0[BANK0 ] float 
  5529+                          ; Registers used:
  5530+                          ;		wreg, status,2, status,0
  5531+                          ; Tracked objects:
  5532+                          ;		On entry : 0/0
  5533+                          ;		On exit  : 0/0
  5534+                          ;		Unchanged: 0/0
  5535+                          ; Data sizes:     COMMON   BANK0   BANK1   BANK3   BANK2
  5536+                          ;      Locals:         3       5       0       0       0
  5537+                          ;      Temp:     3
  5538+                          ;      Total:    8
  5539+                          ; This function calls:
  5540+                          ;		Nothing
  5541+                          ; This function is called by:
  5542+                          ;		___ftadd
  5543+                          ;		___ftdiv
  5544+                          ;		___ftmul
  5545+                          ;		___awtoft
  5546+                          ; This function uses a non-reentrant model
  5547+                          ; 
  5548+                          psect	text135
  5549+                          	file	"C:\Program Files (x86)\HI-TECH Software\PICC\9.70\sources\float.c"
  5550+                          	line	63
  5551+                          	global	__size_of___ftpack
  5552+ 007C                     	__size_of___ftpack	equ	__end_of___ftpack-___ftpack
  5553+                          	
  5554+ 0C53                     ___ftpack:	
  5555+                          	opt stack 5
  5556+                          ; Regs used in ___ftpack: [wreg+status,2+status,0]
  5557+                          	line	64
  5558+                          	
  5559+ 0C53                     l30001506:	
  5560+ 0C53  1283               	bcf	status, 5	;RP0=0, select bank0
  5561+ 0C54  1303               	bcf	status, 6	;RP1=0, select bank0
  5562+ 0C55  0823               	movf	(___ftpack@exp),w
  5563+ 0C56  1D03               	skipz
  5564+ 0C57  2C59               	goto	u2600
  5565+ 0C58  2C60               	goto	l30001508
  5566+ 0C59                     u2600:
  5567+                          	
  5568+ 0C59                     l30001507:	
  5569+ 0C59  0822               	movf	(___ftpack@arg+2),w
  5570+ 0C5A  0421               	iorwf	(___ftpack@arg+1),w
  5571+ 0C5B  0420               	iorwf	(___ftpack@arg),w
  5572+ 0C5C  1D03               	skipz
  5573+ 0C5D  2C5F               	goto	u2611
  5574+ 0C5E  2C60               	goto	u2610
  5575+ 0C5F                     u2611:
  5576+ 0C5F  2C73               	goto	l30001511
  5577+ 0C60                     u2610:
  5578+                          	
  5579+ 0C60                     l30001508:	
  5580+                          	line	65
  5581+ 0C60  3000               	movlw	0x0
  5582+ 0C61  00A0               	movwf	(?___ftpack)
  5583+ 0C62  3000               	movlw	0x0
  5584+ 0C63  00A1               	movwf	(?___ftpack+1)
  5585+ 0C64  3000               	movlw	0x0
  5586+ 0C65  00A2               	movwf	(?___ftpack+2)
  5587+ 0C66  2CCE               	goto	l371
  5588+                          	
  5589+ 0C67                     l30001510:	
  5590+                          	line	67
  5591+ 0C67  3001               	movlw	(01h)
  5592+ 0C68  00F6               	movwf	(??___ftpack+0+0)
  5593+ 0C69  0876               	movf	(??___ftpack+0+0),w
  5594+ 0C6A  07A3               	addwf	(___ftpack@exp),f
  5595+                          	line	68
  5596+ 0C6B  3001               	movlw	01h
  5597+ 0C6C                     u2625:
  5598+ 0C6C  1003               	clrc
  5599+ 0C6D  0CA2               	rrf	(___ftpack@arg+2),f
  5600+ 0C6E  0CA1               	rrf	(___ftpack@arg+1),f
  5601+ 0C6F  0CA0               	rrf	(___ftpack@arg),f
  5602+ 0C70  3EFF               	addlw	-1
  5603+ 0C71  1D03               	skipz
  5604+ 0C72  2C6C               	goto	u2625
  5605+                          
  5606+                          	
  5607+ 0C73                     l30001511:	
  5608+                          	line	66
  5609+ 0C73  30FE               	movlw	low highword(0FE0000h)
  5610+ 0C74  0522               	andwf	(___ftpack@arg+2),w
  5611+ 0C75  1D03               	btfss	status,2
  5612+ 0C76  2C78               	goto	u2631
  5613+ 0C77  2C79               	goto	u2630
  5614+ 0C78                     u2631:
  5615+ 0C78  2C67               	goto	l30001510
  5616+ 0C79                     u2630:
  5617+ 0C79  2C96               	goto	l376
  5618+                          	
  5619+ 0C7A                     l30001512:	
  5620+                          	line	71
  5621+ 0C7A  3001               	movlw	(01h)
  5622+ 0C7B  00F6               	movwf	(??___ftpack+0+0)
  5623+ 0C7C  0876               	movf	(??___ftpack+0+0),w
  5624+ 0C7D  07A3               	addwf	(___ftpack@exp),f
  5625+                          	
  5626+ 0C7E                     l30001513:	
  5627+                          	line	72
  5628+ 0C7E  3001               	movlw	01h
  5629+ 0C7F  07A0               	addwf	(___ftpack@arg),f
  5630+ 0C80  3000               	movlw	0
  5631+ 0C81  1103               	clrz
  5632+ 0C82  1803               	skipnc
  5633+ 0C83  3E01               	addlw	1
  5634+ 0C84  1903               	skipnz
  5635+ 0C85  2C87               	goto	u2641
  5636+ 0C86  07A1               	addwf	(___ftpack@arg+1),f
  5637+ 0C87                     u2641:
  5638+ 0C87  3000               	movlw	0
  5639+ 0C88  1103               	clrz
  5640+ 0C89  1803               	skipnc
  5641+ 0C8A  3E01               	addlw	1
  5642+ 0C8B  1903               	skipnz
  5643+ 0C8C  2C8E               	goto	u2642
  5644+ 0C8D  07A2               	addwf	(___ftpack@arg+2),f
  5645+ 0C8E                     u2642:
  5646+                          
  5647+                          	
  5648+ 0C8E                     l30001514:	
  5649+                          	line	73
  5650+ 0C8E  3001               	movlw	01h
  5651+ 0C8F                     u2655:
  5652+ 0C8F  1003               	clrc
  5653+ 0C90  0CA2               	rrf	(___ftpack@arg+2),f
  5654+ 0C91  0CA1               	rrf	(___ftpack@arg+1),f
  5655+ 0C92  0CA0               	rrf	(___ftpack@arg),f
  5656+ 0C93  3EFF               	addlw	-1
  5657+ 0C94  1D03               	skipz
  5658+ 0C95  2C8F               	goto	u2655
  5659+                          
  5660+                          	
  5661+ 0C96                     l376:	
  5662+                          	line	70
  5663+ 0C96  30FF               	movlw	low highword(0FF0000h)
  5664+ 0C97  0522               	andwf	(___ftpack@arg+2),w
  5665+ 0C98  1D03               	btfss	status,2
  5666+ 0C99  2C9B               	goto	u2661
  5667+ 0C9A  2C9C               	goto	u2660
  5668+ 0C9B                     u2661:
  5669+ 0C9B  2C7A               	goto	l30001512
  5670+ 0C9C                     u2660:
  5671+ 0C9C  2CA7               	goto	l30001516
  5672+                          	
  5673+ 0C9D                     l30001515:	
  5674+                          	line	76
  5675+ 0C9D  3001               	movlw	low(01h)
  5676+ 0C9E  02A3               	subwf	(___ftpack@exp),f
  5677+                          	line	77
  5678+ 0C9F  3001               	movlw	01h
  5679+ 0CA0                     u2675:
  5680+ 0CA0  1003               	clrc
  5681+ 0CA1  0DA0               	rlf	(___ftpack@arg),f
  5682+ 0CA2  0DA1               	rlf	(___ftpack@arg+1),f
  5683+ 0CA3  0DA2               	rlf	(___ftpack@arg+2),f
  5684+ 0CA4  3EFF               	addlw	-1
  5685+ 0CA5  1D03               	skipz
  5686+ 0CA6  2CA0               	goto	u2675
  5687+                          	
  5688+ 0CA7                     l30001516:	
  5689+                          	line	75
  5690+ 0CA7  1FA1               	btfss	(___ftpack@arg+1),(15)&7
  5691+ 0CA8  2CAA               	goto	u2681
  5692+ 0CA9  2CAB               	goto	u2680
  5693+ 0CAA                     u2681:
  5694+ 0CAA  2C9D               	goto	l30001515
  5695+ 0CAB                     u2680:
  5696+                          	
  5697+ 0CAB                     l381:	
  5698+                          	line	79
  5699+ 0CAB  1823               	btfsc	(___ftpack@exp),(0)&7
  5700+ 0CAC  2CAE               	goto	u2691
  5701+ 0CAD  2CAF               	goto	u2690
  5702+ 0CAE                     u2691:
  5703+ 0CAE  2CB5               	goto	l382
  5704+ 0CAF                     u2690:
  5705+                          	
  5706+ 0CAF                     l30001517:	
  5707+                          	line	80
  5708+ 0CAF  30FF               	movlw	0FFh
  5709+ 0CB0  05A0               	andwf	(___ftpack@arg),f
  5710+ 0CB1  307F               	movlw	07Fh
  5711+ 0CB2  05A1               	andwf	(___ftpack@arg+1),f
  5712+ 0CB3  30FF               	movlw	0FFh
  5713+ 0CB4  05A2               	andwf	(___ftpack@arg+2),f
  5714+                          	
  5715+ 0CB5                     l382:	
  5716+                          	line	81
  5717+ 0CB5  1003               	clrc
  5718+ 0CB6  0CA3               	rrf	(___ftpack@exp),f
  5719+                          
  5720+                          	
  5721+ 0CB7                     l30001518:	
  5722+                          	line	82
  5723+ 0CB7  0823               	movf	(___ftpack@exp),w
  5724+ 0CB8  00F6               	movwf	(??___ftpack+0+0)
  5725+ 0CB9  01F7               	clrf	(??___ftpack+0+0+1)
  5726+ 0CBA  01F8               	clrf	(??___ftpack+0+0+2)
  5727+ 0CBB  3010               	movlw	010h
  5728+ 0CBC                     u2705:
  5729+ 0CBC  1003               	clrc
  5730+ 0CBD  0DF6               	rlf	(??___ftpack+0+0),f
  5731+ 0CBE  0DF7               	rlf	(??___ftpack+0+1),f
  5732  0CBF  0DF8               	rlf	(??___ftpack+0+2),f
  5733  0CC0                     u2700:
  5734  0CC0  3EFF               	addlw	-1
  5735  0CC1  1D03               	skipz
  5736  0CC2  2CBC               	goto	u2705
  5737  0CC3  0876               	movf	0+(??___ftpack+0+0),w
  5738  0CC4  04A0               	iorwf	(___ftpack@arg),f
  5739  0CC5  0877               	movf	1+(??___ftpack+0+0),w
  5740  0CC6  04A1               	iorwf	(___ftpack@arg+1),f
  5741  0CC7  0878               	movf	2+(??___ftpack+0+0),w
  5742  0CC8  04A2               	iorwf	(___ftpack@arg+2),f
  5743                           	
  5744  0CC9                     l30001519:	
  5745                           	line	83
  5746  0CC9  0824               	movf	(___ftpack@sign),w
  5747  0CCA  1D03               	skipz
  5748  0CCB  2CCD               	goto	u2710
  5749  0CCC  2CCE               	goto	l383
  5750  0CCD                     u2710:
  5751                           	
  5752  0CCD                     l30001520:	
  5753                           	line	84
  5754  0CCD  17A2               	bsf	(___ftpack@arg)+(23/8),(23)&7
  5755                           	
  5756  0CCE                     l383:	
  5757                           	line	85
  5758                           	
  5759  0CCE                     l371:	
  5760  0CCE  0008               	return
  5761                           	opt stack 0
  5762                           GLOBAL	__end_of___ftpack
  5763  0CCF                     	__end_of___ftpack:
  5764                           ; =============== function ___ftpack ends ============
  5765                           
  5766                           psect	text136,local,class=CODE,delta=2
  5767                           global __ptext136
  5768  0BE1                     __ptext136:
  5769                           	line	86
  5770                           	signat	___ftpack,12411
  5771                           	global	___awdiv
  5772                           
  5773                           ; *************** function ___awdiv *****************
  5774                           ; Defined at:
  5775                           ;		line 5 in file "C:\Program Files (x86)\HI-TECH Software\PICC\9.70\sources\awdiv.c"
  5776                           ; Parameters:    Size  Location     Type
  5777                           ;  dividend        2   10[BANK0 ] int 
  5778                           ;  divisor         2   12[BANK0 ] int 
  5779                           ; Auto vars:     Size  Location     Type
  5780                           ;  quotient        2    8[BANK0 ] int 
  5781                           ;  sign            1    7[BANK0 ] unsigned char 
  5782                           ;  counter         1    6[BANK0 ] unsigned char 
  5783                           ; Return value:  Size  Location     Type
  5784                           ;                  2   10[BANK0 ] int 
  5785                           ; Registers used:
  5786                           ;		wreg, status,2, status,0
  5787                           ; Tracked objects:
  5788                           ;		On entry : 0/0
  5789                           ;		On exit  : 0/0
  5790                           ;		Unchanged: 0/0
  5791                           ; Data sizes:     COMMON   BANK0   BANK1   BANK3   BANK2
  5792                           ;      Locals:         1       8       0       0       0
  5793                           ;      Temp:     1
  5794                           ;      Total:    9
  5795                           ; This function calls:
  5796                           ; This function is called by:
  5797                           ;		_count
  5798                           ;		_temperature
  5799                           ;		_voltage
  5800                           ; This function uses a non-reentrant model
  5801                           ; 
  5802                           psect	text136
  5803                           	file	"C:\Program Files (x86)\HI-TECH Software\PICC\9.70\sources\awdiv.c"
  5804                           	line	5
  5805                           	global	__size_of___awdiv
  5806  0072                     	__size_of___awdiv	equ	__end_of___awdiv-___awdiv
  5807                           	
  5808  0BE1                     ___awdiv:	
  5809                           	opt stack 5
  5810                           ; Regs used in ___awdiv: [wreg+status,2+status,0]
  5811                           	line	9
  5812                           	
  5813  0BE1                     l30001333:	
  5814  0BE1  1003               	clrc
  5815  0BE2  3000               	movlw	0
  5816  0BE3  1803               	btfsc	status,0
  5817  0BE4  3001               	movlw	1
  5818  0BE5  1283               	bcf	status, 5	;RP0=0, select bank0
  5819  0BE6  1303               	bcf	status, 6	;RP1=0, select bank0
  5820  0BE7  00A7               	movwf	(___awdiv@sign)
  5821                           	
  5822  0BE8                     l30001334:	
  5823                           	line	10
  5824  0BE8  1FAD               	btfss	(___awdiv@divisor+1),7
  5825  0BE9  2BEB               	goto	u2051
  5826  0BEA  2BEC               	goto	u2050
  5827  0BEB                     u2051:
  5828  0BEB  2BF4               	goto	l30001336
  5829  0BEC                     u2050:
  5830                           	
  5831  0BEC                     l30001335:	
  5832                           	line	11
  5833  0BEC  09AC               	comf	(___awdiv@divisor),f
  5834  0BED  09AD               	comf	(___awdiv@divisor+1),f
  5835  0BEE  0AAC               	incf	(___awdiv@divisor),f
  5836  0BEF  1903               	skipnz
  5837  0BF0  0AAD               	incf	(___awdiv@divisor+1),f
  5838                           	line	12
  5839  0BF1  01A7               	clrf	(___awdiv@sign)
  5840  0BF2  1403               	bsf	status,0
  5841  0BF3  0DA7               	rlf	(___awdiv@sign),f
  5842                           	
  5843  0BF4                     l30001336:	
  5844                           	line	14
  5845  0BF4  1FAB               	btfss	(___awdiv@dividend+1),7
  5846  0BF5  2BF7               	goto	u2061
  5847  0BF6  2BF8               	goto	u2060
  5848  0BF7                     u2061:
  5849  0BF7  2C01               	goto	l188
  5850  0BF8                     u2060:
  5851                           	
  5852  0BF8                     l30001337:	
  5853                           	line	15
  5854  0BF8  09AA               	comf	(___awdiv@dividend),f
  5855  0BF9  09AB               	comf	(___awdiv@dividend+1),f
  5856  0BFA  0AAA               	incf	(___awdiv@dividend),f
  5857  0BFB  1903               	skipnz
  5858  0BFC  0AAB               	incf	(___awdiv@dividend+1),f
  5859                           	
  5860  0BFD                     l30001338:	
  5861                           	line	16
  5862  0BFD  3001               	movlw	(01h)
  5863  0BFE  00F7               	movwf	(??___awdiv+0+0)
  5864  0BFF  0877               	movf	(??___awdiv+0+0),w
  5865  0C00  06A7               	xorwf	(___awdiv@sign),f
  5866                           	
  5867  0C01                     l188:	
  5868                           	line	18
  5869  0C01  3000               	movlw	low(0)
  5870  0C02  00A8               	movwf	(___awdiv@quotient)
  5871  0C03  3000               	movlw	high(0)
  5872  0C04  00A9               	movwf	((___awdiv@quotient))+1
  5873                           	line	19
  5874  0C05  082D               	movf	(___awdiv@divisor+1),w
  5875  0C06  042C               	iorwf	(___awdiv@divisor),w
  5876  0C07  1903               	skipnz
  5877  0C08  2C0A               	goto	u2071
  5878  0C09  2C0B               	goto	u2070
  5879  0C0A                     u2071:
  5880  0C0A  2C43               	goto	l30001348
  5881  0C0B                     u2070:
  5882                           	
  5883  0C0B                     l30001339:	
  5884                           	line	20
  5885  0C0B  01A6               	clrf	(___awdiv@counter)
  5886  0C0C  1403               	bsf	status,0
  5887  0C0D  0DA6               	rlf	(___awdiv@counter),f
  5888  0C0E  2C1A               	goto	l30001342
  5889                           	
  5890  0C0F                     l30001340:	
  5891                           	line	22
  5892  0C0F  3001               	movlw	01h
  5893  0C10                     u2085:
  5894  0C10  1003               	clrc
  5895  0C11  0DAC               	rlf	(___awdiv@divisor),f
  5896  0C12  0DAD               	rlf	(___awdiv@divisor+1),f
  5897  0C13  3EFF               	addlw	-1
  5898  0C14  1D03               	skipz
  5899  0C15  2C10               	goto	u2085
  5900                           	
  5901  0C16                     l30001341:	
  5902                           	line	23
  5903  0C16  3001               	movlw	(01h)
  5904  0C17  00F7               	movwf	(??___awdiv+0+0)
  5905  0C18  0877               	movf	(??___awdiv+0+0),w
  5906  0C19  07A6               	addwf	(___awdiv@counter),f
  5907                           	
  5908  0C1A                     l30001342:	
  5909                           	line	21
  5910  0C1A  1FAD               	btfss	(___awdiv@divisor+1),(15)&7
  5911  0C1B  2C1D               	goto	u2091
  5912  0C1C  2C1E               	goto	u2090
  5913  0C1D                     u2091:
  5914  0C1D  2C0F               	goto	l30001340
  5915  0C1E                     u2090:
  5916                           	
  5917  0C1E                     l30001343:	
  5918                           	line	26
  5919  0C1E  3001               	movlw	01h
  5920  0C1F                     u2105:
  5921  0C1F  1003               	clrc
  5922  0C20  0DA8               	rlf	(___awdiv@quotient),f
  5923  0C21  0DA9               	rlf	(___awdiv@quotient+1),f
  5924  0C22  3EFF               	addlw	-1
  5925  0C23  1D03               	skipz
  5926  0C24  2C1F               	goto	u2105
  5927                           	line	27
  5928  0C25  082D               	movf	(___awdiv@divisor+1),w
  5929  0C26  022B               	subwf	(___awdiv@dividend+1),w
  5930  0C27  1D03               	skipz
  5931  0C28  2C2B               	goto	u2115
  5932  0C29  082C               	movf	(___awdiv@divisor),w
  5933  0C2A  022A               	subwf	(___awdiv@dividend),w
  5934  0C2B                     u2115:
  5935  0C2B  1C03               	skipc
  5936  0C2C  2C2E               	goto	u2111
  5937  0C2D  2C2F               	goto	u2110
  5938  0C2E                     u2111:
  5939  0C2E  2C36               	goto	l30001346
  5940  0C2F                     u2110:
  5941                           	
  5942  0C2F                     l30001344:	
  5943                           	line	28
  5944  0C2F  082C               	movf	(___awdiv@divisor),w
  5945  0C30  02AA               	subwf	(___awdiv@dividend),f
  5946  0C31  082D               	movf	(___awdiv@divisor+1),w
  5947  0C32  1C03               	skipc
  5948  0C33  03AB               	decf	(___awdiv@dividend+1),f
  5949  0C34  02AB               	subwf	(___awdiv@dividend+1),f
  5950                           	
  5951  0C35                     l30001345:	
  5952                           	line	29
  5953  0C35  1428               	bsf	(___awdiv@quotient)+(0/8),(0)&7
  5954                           	
  5955  0C36                     l30001346:	
  5956                           	line	31
  5957  0C36  3001               	movlw	01h
  5958  0C37                     u2125:
  5959  0C37  1003               	clrc
  5960  0C38  0CAD               	rrf	(___awdiv@divisor+1),f
  5961  0C39  0CAC               	rrf	(___awdiv@divisor),f
  5962  0C3A  3EFF               	addlw	-1
  5963  0C3B  1D03               	skipz
  5964  0C3C  2C37               	goto	u2125
  5965                           	
  5966  0C3D                     l30001347:	
  5967                           	line	32
  5968  0C3D  3001               	movlw	low(01h)
  5969  0C3E  02A6               	subwf	(___awdiv@counter),f
  5970  0C3F  1D03               	btfss	status,2
  5971  0C40  2C42               	goto	u2131
  5972  0C41  2C43               	goto	u2130
  5973  0C42                     u2131:
  5974  0C42  2C1E               	goto	l30001343
  5975  0C43                     u2130:
  5976                           	
  5977  0C43                     l30001348:	
  5978                           	line	34
  5979  0C43  0827               	movf	(___awdiv@sign),w
  5980  0C44  1D03               	skipz
  5981  0C45  2C47               	goto	u2140
  5982  0C46  2C4C               	goto	l30001350
  5983  0C47                     u2140:
  5984                           	
  5985  0C47                     l30001349:	
  5986                           	line	35
  5987  0C47  09A8               	comf	(___awdiv@quotient),f
  5988  0C48  09A9               	comf	(___awdiv@quotient+1),f
  5989  0C49  0AA8               	incf	(___awdiv@quotient),f
  5990  0C4A  1903               	skipnz
  5991  0C4B  0AA9               	incf	(___awdiv@quotient+1),f
  5992                           	
  5993  0C4C                     l30001350:	
  5994                           	line	36
  5995  0C4C  0829               	movf	(___awdiv@quotient+1),w
  5996  0C4D  01AB               	clrf	(?___awdiv+1)
  5997  0C4E  07AB               	addwf	(?___awdiv+1)
  5998  0C4F  0828               	movf	(___awdiv@quotient),w
  5999  0C50  01AA               	clrf	(?___awdiv)
  6000  0C51  07AA               	addwf	(?___awdiv)
  6001                           
  6002                           	
  6003  0C52                     l186:	
  6004  0C52  0008               	return
  6005                           	opt stack 0
  6006                           GLOBAL	__end_of___awdiv
  6007  0C53                     	__end_of___awdiv:
  6008                           ; =============== function ___awdiv ends ============
  6009                           
  6010                           psect	text137,local,class=CODE,delta=2
  6011                           global __ptext137
  6012  0ABC                     __ptext137:
  6013                           	line	37
  6014                           	signat	___awdiv,8314
  6015                           	global	_command
  6016                           
  6017                           ; *************** function _command *****************
  6018                           ; Defined at:
  6019                           ;		line 32 in file "C:\Users\gowth\Documents\PIC Programs\ADC\Temp LM35\LM35.c"
  6020                           ; Parameters:    Size  Location     Type
  6021                           ;  data            1    wreg     unsigned char 
  6022                           ; Auto vars:     Size  Location     Type
  6023                           ;  data            1    2[COMMON] unsigned char 
  6024                           ; Return value:  Size  Location     Type
  6025                           ;		None               void
  6026                           ; Registers used:
  6027                           ;		wreg, status,2, status,0, pclath, cstack
  6028                           ; Tracked objects:
  6029                           ;		On entry : 0/0
  6030                           ;		On exit  : 0/0
  6031                           ;		Unchanged: 0/0
  6032                           ; Data sizes:     COMMON   BANK0   BANK1   BANK3   BANK2
  6033                           ;      Locals:         1       0       0       0       0
  6034                           ;      Temp:     0
  6035                           ;      Total:    1
  6036                           ; This function calls:
  6037                           ;		_pulse
  6038                           ; This function is called by:
  6039                           ;		_count
  6040                           ;		_temperature
  6041                           ;		_voltage
  6042                           ;		_main
  6043                           ; This function uses a non-reentrant model
  6044                           ; 
  6045                           psect	text137
  6046                           	file	"C:\Users\gowth\Documents\PIC Programs\ADC\Temp LM35\LM35.c"
  6047                           	line	32
  6048                           	global	__size_of_command
  6049  000C                     	__size_of_command	equ	__end_of_command-_command
  6050                           ;LM35.c: 31: void command(char data)
  6051                           ;LM35.c: 32: {
  6052                           	
  6053  0ABC                     _command:	
  6054                           	opt stack 5
  6055                           ; Regs used in _command: [wreg+status,2+status,0+pclath+cstack]
  6056                           ;command@data stored from wreg
  6057  0ABC  00F8               	movwf	(command@data)
  6058                           	
  6059  0ABD                     l30001352:	
  6060                           	line	33
  6061                           ;LM35.c: 33: RE0=0;
  6062  0ABD  1283               	bcf	status, 5	;RP0=0, select bank0
  6063  0ABE  1303               	bcf	status, 6	;RP1=0, select bank0
  6064  0ABF  1009               	bcf	(72/8),(72)&7
  6065                           	
  6066  0AC0                     l30001353:	
  6067                           	line	34
  6068                           ;LM35.c: 34: PORTD=data;
  6069  0AC0  0878               	movf	(command@data),w
  6070  0AC1  0088               	movwf	(8)	;volatile
  6071                           	
  6072  0AC2                     l30001354:	
  6073                           	line	35
  6074                           ;LM35.c: 35: pulse();
  6075  0AC2  120A  158A  22E7   	fcall	_pulse
              120A  158A         
  6076                           	
  6077  0AC7                     l6:	
  6078  0AC7  0008               	return
  6079                           	opt stack 0
  6080                           GLOBAL	__end_of_command
  6081  0AC8                     	__end_of_command:
  6082                           ; =============== function _command ends ============
  6083                           
  6084                           psect	text138,local,class=CODE,delta=2
  6085                           global __ptext138
  6086  0AB0                     __ptext138:
  6087                           	line	36
  6088                           	signat	_command,4216
  6089                           	global	_data
  6090                           
  6091                           ; *************** function _data *****************
  6092                           ; Defined at:
  6093                           ;		line 39 in file "C:\Users\gowth\Documents\PIC Programs\ADC\Temp LM35\LM35.c"
  6094                           ; Parameters:    Size  Location     Type
  6095                           ;  data            1    wreg     unsigned char 
  6096                           ; Auto vars:     Size  Location     Type
  6097                           ;  data            1    2[COMMON] unsigned char 
  6098                           ; Return value:  Size  Location     Type
  6099                           ;		None               void
  6100                           ; Registers used:
  6101                           ;		wreg, status,2, status,0, pclath, cstack
  6102                           ; Tracked objects:
  6103                           ;		On entry : 0/0
  6104                           ;		On exit  : 0/0
  6105                           ;		Unchanged: 0/0
  6106                           ; Data sizes:     COMMON   BANK0   BANK1   BANK3   BANK2
  6107                           ;      Locals:         1       0       0       0       0
  6108                           ;      Temp:     0
  6109                           ;      Total:    1
  6110                           ; This function calls:
  6111                           ;		_pulse
  6112                           ; This function is called by:
  6113                           ;		_count
  6114                           ;		_temperature
  6115                           ;		_voltage
  6116                           ; This function uses a non-reentrant model
  6117                           ; 
  6118                           psect	text138
  6119                           	file	"C:\Users\gowth\Documents\PIC Programs\ADC\Temp LM35\LM35.c"
  6120                           	line	39
  6121                           	global	__size_of_data
  6122  000C                     	__size_of_data	equ	__end_of_data-_data
  6123                           ;LM35.c: 38: void data(char data)
  6124                           ;LM35.c: 39: {
  6125                           	
  6126  0AB0                     _data:	
  6127                           	opt stack 5
  6128                           ; Regs used in _data: [wreg+status,2+status,0+pclath+cstack]
  6129                           ;data@data stored from wreg
  6130  0AB0  00F8               	movwf	(data@data)
  6131                           	
  6132  0AB1                     l30001355:	
  6133                           	line	40
  6134                           ;LM35.c: 40: RE0=1;
  6135  0AB1  1283               	bcf	status, 5	;RP0=0, select bank0
  6136  0AB2  1303               	bcf	status, 6	;RP1=0, select bank0
  6137  0AB3  1409               	bsf	(72/8),(72)&7
  6138                           	
  6139  0AB4                     l30001356:	
  6140                           	line	41
  6141                           ;LM35.c: 41: PORTD=data;
  6142  0AB4  0878               	movf	(data@data),w
  6143  0AB5  0088               	movwf	(8)	;volatile
  6144                           	
  6145  0AB6                     l30001357:	
  6146                           	line	42
  6147                           ;LM35.c: 42: pulse();
  6148  0AB6  120A  158A  22E7   	fcall	_pulse
              120A  158A         
  6149                           	
  6150  0ABB                     l7:	
  6151  0ABB  0008               	return
  6152                           	opt stack 0
  6153                           GLOBAL	__end_of_data
  6154  0ABC                     	__end_of_data:
  6155                           ; =============== function _data ends ============
  6156                           
  6157                           psect	text139,local,class=CODE,delta=2
  6158                           global __ptext139
  6159  0B7F                     __ptext139:
  6160                           	line	43
  6161                           	signat	_data,4216
  6162                           	global	___awmod
  6163                           
  6164                           ; *************** function ___awmod *****************
  6165                           ; Defined at:
  6166                           ;		line 5 in file "C:\Program Files (x86)\HI-TECH Software\PICC\9.70\sources\awmod.c"
  6167                           ; Parameters:    Size  Location     Type
  6168                           ;  dividend        2    2[BANK0 ] int 
  6169                           ;  divisor         2    4[BANK0 ] int 
  6170                           ; Auto vars:     Size  Location     Type
  6171                           ;  sign            1    0[BANK0 ] unsigned char 
  6172                           ;  counter         1    1[BANK0 ] unsigned char 
  6173                           ; Return value:  Size  Location     Type
  6174                           ;                  2    2[BANK0 ] int 
  6175                           ; Registers used:
  6176                           ;		wreg, status,2, status,0
  6177                           ; Tracked objects:
  6178                           ;		On entry : 0/0
  6179                           ;		On exit  : 0/0
  6180                           ;		Unchanged: 0/0
  6181                           ; Data sizes:     COMMON   BANK0   BANK1   BANK3   BANK2
  6182                           ;      Locals:         1       6       0       0       0
  6183                           ;      Temp:     1
  6184                           ;      Total:    7
  6185                           ; This function calls:
  6186                           ;		Nothing
  6187                           ; This function is called by:
  6188                           ;		_count
  6189                           ;		_temperature
  6190                           ;		_voltage
  6191                           ; This function uses a non-reentrant model
  6192                           ; 
  6193                           psect	text139
  6194                           	file	"C:\Program Files (x86)\HI-TECH Software\PICC\9.70\sources\awmod.c"
  6195                           	line	5
  6196                           	global	__size_of___awmod
  6197  0062                     	__size_of___awmod	equ	__end_of___awmod-___awmod
  6198                           	
  6199  0B7F                     ___awmod:	
  6200                           	opt stack 5
  6201                           ; Regs used in ___awmod: [wreg+status,2+status,0]
  6202                           	line	8
  6203                           	
  6204  0B7F                     l30001567:	
  6205  0B7F  1003               	clrc
  6206  0B80  3000               	movlw	0
  6207  0B81  1803               	btfsc	status,0
  6208  0B82  3001               	movlw	1
  6209  0B83  1283               	bcf	status, 5	;RP0=0, select bank0
  6210  0B84  1303               	bcf	status, 6	;RP1=0, select bank0
  6211  0B85  00A0               	movwf	(___awmod@sign)
  6212                           	
  6213  0B86                     l30001568:	
  6214                           	line	9
  6215  0B86  1FA3               	btfss	(___awmod@dividend+1),7
  6216  0B87  2B89               	goto	u2941
  6217  0B88  2B8A               	goto	u2940
  6218  0B89                     u2941:
  6219  0B89  2B92               	goto	l30001570
  6220  0B8A                     u2940:
  6221                           	
  6222  0B8A                     l30001569:	
  6223                           	line	10
  6224  0B8A  09A2               	comf	(___awmod@dividend),f
  6225  0B8B  09A3               	comf	(___awmod@dividend+1),f
  6226  0B8C  0AA2               	incf	(___awmod@dividend),f
  6227  0B8D  1903               	skipnz
  6228  0B8E  0AA3               	incf	(___awmod@dividend+1),f
  6229                           	line	11
  6230  0B8F  01A0               	clrf	(___awmod@sign)
  6231  0B90  1403               	bsf	status,0
  6232  0B91  0DA0               	rlf	(___awmod@sign),f
  6233                           	
  6234  0B92                     l30001570:	
  6235                           	line	13
  6236  0B92  1FA5               	btfss	(___awmod@divisor+1),7
  6237  0B93  2B95               	goto	u2951
  6238  0B94  2B96               	goto	u2950
  6239  0B95                     u2951:
  6240  0B95  2B9B               	goto	l30001572
  6241  0B96                     u2950:
  6242                           	
  6243  0B96                     l30001571:	
  6244                           	line	14
  6245  0B96  09A4               	comf	(___awmod@divisor),f
  6246  0B97  09A5               	comf	(___awmod@divisor+1),f
  6247  0B98  0AA4               	incf	(___awmod@divisor),f
  6248  0B99  1903               	skipnz
  6249  0B9A  0AA5               	incf	(___awmod@divisor+1),f
  6250                           	
  6251  0B9B                     l30001572:	
  6252                           	line	15
  6253  0B9B  0825               	movf	(___awmod@divisor+1),w
  6254  0B9C  0424               	iorwf	(___awmod@divisor),w
  6255  0B9D  1903               	skipnz
  6256  0B9E  2BA0               	goto	u2961
  6257  0B9F  2BA1               	goto	u2960
  6258  0BA0                     u2961:
  6259  0BA0  2BD1               	goto	l30001581
  6260  0BA1                     u2960:
  6261                           	
  6262  0BA1                     l30001573:	
  6263                           	line	16
  6264  0BA1  01A1               	clrf	(___awmod@counter)
  6265  0BA2  1403               	bsf	status,0
  6266  0BA3  0DA1               	rlf	(___awmod@counter),f
  6267  0BA4  2BB0               	goto	l30001576
  6268                           	
  6269  0BA5                     l30001574:	
  6270                           	line	18
  6271  0BA5  3001               	movlw	01h
  6272  0BA6                     u2975:
  6273  0BA6  1003               	clrc
  6274  0BA7  0DA4               	rlf	(___awmod@divisor),f
  6275  0BA8  0DA5               	rlf	(___awmod@divisor+1),f
  6276  0BA9  3EFF               	addlw	-1
  6277  0BAA  1D03               	skipz
  6278  0BAB  2BA6               	goto	u2975
  6279                           	
  6280  0BAC                     l30001575:	
  6281                           	line	19
  6282  0BAC  3001               	movlw	(01h)
  6283  0BAD  00F6               	movwf	(??___awmod+0+0)
  6284  0BAE  0876               	movf	(??___awmod+0+0),w
  6285  0BAF  07A1               	addwf	(___awmod@counter),f
  6286                           	
  6287  0BB0                     l30001576:	
  6288                           	line	17
  6289  0BB0  1FA5               	btfss	(___awmod@divisor+1),(15)&7
  6290  0BB1  2BB3               	goto	u2981
  6291  0BB2  2BB4               	goto	u2980
  6292  0BB3                     u2981:
  6293  0BB3  2BA5               	goto	l30001574
  6294  0BB4                     u2980:
  6295                           	
  6296  0BB4                     l30001577:	
  6297                           	line	22
  6298  0BB4  0825               	movf	(___awmod@divisor+1),w
  6299  0BB5  0223               	subwf	(___awmod@dividend+1),w
  6300  0BB6  1D03               	skipz
  6301  0BB7  2BBA               	goto	u2995
  6302  0BB8  0824               	movf	(___awmod@divisor),w
  6303  0BB9  0222               	subwf	(___awmod@dividend),w
  6304  0BBA                     u2995:
  6305  0BBA  1C03               	skipc
  6306  0BBB  2BBD               	goto	u2991
  6307  0BBC  2BBE               	goto	u2990
  6308  0BBD                     u2991:
  6309  0BBD  2BC4               	goto	l30001579
  6310  0BBE                     u2990:
  6311                           	
  6312  0BBE                     l30001578:	
  6313                           	line	23
  6314  0BBE  0824               	movf	(___awmod@divisor),w
  6315  0BBF  02A2               	subwf	(___awmod@dividend),f
  6316  0BC0  0825               	movf	(___awmod@divisor+1),w
  6317  0BC1  1C03               	skipc
  6318  0BC2  03A3               	decf	(___awmod@dividend+1),f
  6319  0BC3  02A3               	subwf	(___awmod@dividend+1),f
  6320                           	
  6321  0BC4                     l30001579:	
  6322                           	line	24
  6323  0BC4  3001               	movlw	01h
  6324  0BC5                     u3005:
  6325  0BC5  1003               	clrc
  6326  0BC6  0CA5               	rrf	(___awmod@divisor+1),f
  6327  0BC7  0CA4               	rrf	(___awmod@divisor),f
  6328  0BC8  3EFF               	addlw	-1
  6329  0BC9  1D03               	skipz
  6330  0BCA  2BC5               	goto	u3005
  6331                           	
  6332  0BCB                     l30001580:	
  6333                           	line	25
  6334  0BCB  3001               	movlw	low(01h)
  6335  0BCC  02A1               	subwf	(___awmod@counter),f
  6336  0BCD  1D03               	btfss	status,2
  6337  0BCE  2BD0               	goto	u3011
  6338  0BCF  2BD1               	goto	u3010
  6339  0BD0                     u3011:
  6340  0BD0  2BB4               	goto	l30001577
  6341  0BD1                     u3010:
  6342                           	
  6343  0BD1                     l30001581:	
  6344                           	line	27
  6345  0BD1  0820               	movf	(___awmod@sign),w
  6346  0BD2  1D03               	skipz
  6347  0BD3  2BD5               	goto	u3020
  6348  0BD4  2BDA               	goto	l30001583
  6349  0BD5                     u3020:
  6350                           	
  6351  0BD5                     l30001582:	
  6352                           	line	28
  6353  0BD5  09A2               	comf	(___awmod@dividend),f
  6354  0BD6  09A3               	comf	(___awmod@dividend+1),f
  6355  0BD7  0AA2               	incf	(___awmod@dividend),f
  6356  0BD8  1903               	skipnz
  6357  0BD9  0AA3               	incf	(___awmod@dividend+1),f
  6358                           	
  6359  0BDA                     l30001583:	
  6360                           	line	29
  6361  0BDA  0823               	movf	(___awmod@dividend+1),w
  6362  0BDB  01A3               	clrf	(?___awmod+1)
  6363  0BDC  07A3               	addwf	(?___awmod+1)
  6364  0BDD  0822               	movf	(___awmod@dividend),w
  6365  0BDE  01A2               	clrf	(?___awmod)
  6366  0BDF  07A2               	addwf	(?___awmod)
  6367                           
  6368                           	
  6369  0BE0                     l266:	
  6370  0BE0  0008               	return
  6371                           	opt stack 0
  6372                           GLOBAL	__end_of___awmod
  6373  0BE1                     	__end_of___awmod:
  6374                           ; =============== function ___awmod ends ============
  6375                           
  6376                           psect	text140,local,class=CODE,delta=2
  6377                           global __ptext140
  6378  0AE7                     __ptext140:
  6379                           	line	30
  6380                           	signat	___awmod,8314
  6381                           	global	_pulse
  6382                           
  6383                           ; *************** function _pulse *****************
  6384                           ; Defined at:
  6385                           ;		line 24 in file "C:\Users\gowth\Documents\PIC Programs\ADC\Temp LM35\LM35.c"
  6386                           ; Parameters:    Size  Location     Type
  6387                           ;		None
  6388                           ; Auto vars:     Size  Location     Type
  6389                           ;		None
  6390                           ; Return value:  Size  Location     Type
  6391                           ;		None               void
  6392                           ; Registers used:
  6393                           ;		wreg, status,2, status,0, pclath, cstack
  6394                           ; Tracked objects:
  6395                           ;		On entry : 0/0
  6396                           ;		On exit  : 0/0
  6397                           ;		Unchanged: 0/0
  6398                           ; Data sizes:     COMMON   BANK0   BANK1   BANK3   BANK2
  6399                           ;      Locals:         0       0       0       0       0
  6400                           ;      Temp:     0
  6401                           ;      Total:    0
  6402                           ; This function calls:
  6403                           ;		_delay
  6404                           ; This function is called by:
  6405                           ;		_command
  6406                           ;		_data
  6407                           ; This function uses a non-reentrant model
  6408                           ; 
  6409                           psect	text140
  6410                           	file	"C:\Users\gowth\Documents\PIC Programs\ADC\Temp LM35\LM35.c"
  6411                           	line	24
  6412                           	global	__size_of_pulse
  6413  0019                     	__size_of_pulse	equ	__end_of_pulse-_pulse
  6414                           ;LM35.c: 23: void pulse()
  6415                           ;LM35.c: 24: {
  6416                           	
  6417  0AE7                     _pulse:	
  6418                           	opt stack 4
  6419                           ; Regs used in _pulse: [wreg+status,2+status,0+pclath+cstack]
  6420                           	line	25
  6421                           	
  6422  0AE7                     l30001358:	
  6423                           ;LM35.c: 25: RE1=1;
  6424  0AE7  1283               	bcf	status, 5	;RP0=0, select bank0
  6425  0AE8  1303               	bcf	status, 6	;RP1=0, select bank0
  6426  0AE9  1489               	bsf	(73/8),(73)&7
  6427                           	
  6428  0AEA                     l30001359:	
  6429                           	line	26
  6430                           ;LM35.c: 26: delay(1000);
  6431  0AEA  30E8               	movlw	low(03E8h)
  6432  0AEB  00F6               	movwf	(?_delay)
  6433  0AEC  3003               	movlw	high(03E8h)
  6434  0AED  00F7               	movwf	((?_delay))+1
  6435  0AEE  120A  158A  22D6   	fcall	_delay
              120A  158A         
  6436                           	
  6437  0AF3                     l30001360:	
  6438                           	line	27
  6439                           ;LM35.c: 27: RE1=0;
  6440  0AF3  1283               	bcf	status, 5	;RP0=0, select bank0
  6441  0AF4  1303               	bcf	status, 6	;RP1=0, select bank0
  6442  0AF5  1089               	bcf	(73/8),(73)&7
  6443                           	line	28
  6444                           ;LM35.c: 28: delay(1000);
  6445  0AF6  30E8               	movlw	low(03E8h)
  6446  0AF7  00F6               	movwf	(?_delay)
  6447  0AF8  3003               	movlw	high(03E8h)
  6448  0AF9  00F7               	movwf	((?_delay))+1
  6449  0AFA  120A  158A  22D6   	fcall	_delay
              120A  158A         
  6450                           	
  6451  0AFF                     l5:	
  6452  0AFF  0008               	return
  6453                           	opt stack 0
  6454                           GLOBAL	__end_of_pulse
  6455  0B00                     	__end_of_pulse:
  6456                           ; =============== function _pulse ends ============
  6457                           
  6458                           psect	text141,local,class=CODE,delta=2
  6459                           global __ptext141
  6460  0AD6                     __ptext141:
  6461                           	line	29
  6462                           	signat	_pulse,88
  6463                           	global	_delay
  6464                           
  6465                           ; *************** function _delay *****************
  6466                           ; Defined at:
  6467                           ;		line 18 in file "C:\Users\gowth\Documents\PIC Programs\ADC\Temp LM35\LM35.c"
  6468                           ; Parameters:    Size  Location     Type
  6469                           ;  x               2    0[COMMON] int 
  6470                           ; Auto vars:     Size  Location     Type
  6471                           ;		None
  6472                           ; Return value:  Size  Location     Type
  6473                           ;		None               void
  6474                           ; Registers used:
  6475                           ;		wreg
  6476                           ; Tracked objects:
  6477                           ;		On entry : 0/0
  6478                           ;		On exit  : 0/0
  6479                           ;		Unchanged: 0/0
  6480                           ; Data sizes:     COMMON   BANK0   BANK1   BANK3   BANK2
  6481                           ;      Locals:         2       0       0       0       0
  6482                           ;      Temp:     0
  6483                           ;      Total:    2
  6484                           ; This function calls:
  6485                           ;		Nothing
  6486                           ; This function is called by:
  6487                           ;		_pulse
  6488                           ; This function uses a non-reentrant model
  6489                           ; 
  6490                           psect	text141
  6491                           	file	"C:\Users\gowth\Documents\PIC Programs\ADC\Temp LM35\LM35.c"
  6492                           	line	18
  6493                           	global	__size_of_delay
  6494  0011                     	__size_of_delay	equ	__end_of_delay-_delay
  6495                           ;pic16f887.h: 19: volatile unsigned char INDF @ 0x000;
  6496                           ;pic16f887.h: 20: volatile unsigned char TMR0 @ 0x001;
  6497                           ;pic16f887.h: 21: volatile unsigned char PCL @ 0x002;
  6498                           ;pic16f887.h: 22: volatile unsigned char STATUS @ 0x003;
  6499                           ;pic16f887.h: 23: unsigned char FSR @ 0x004;
  6500                           ;pic16f887.h: 24: volatile unsigned char PORTA @ 0x005;
  6501                           ;pic16f887.h: 25: volatile unsigned char PORTB @ 0x006;
  6502                           ;pic16f887.h: 26: volatile unsigned char PORTC @ 0x007;
  6503                           ;pic16f887.h: 28: volatile unsigned char PORTD @ 0x008;
  6504                           ;pic16f887.h: 30: volatile unsigned char PORTE @ 0x009;
  6505                           	
  6506  0AD6                     _delay:	
  6507                           	opt stack 3
  6508                           ; Regs used in _delay: [wreg]
  6509                           	
  6510  0AD6                     l30001361:	
  6511                           	
  6512  0AD6                     l30001362:	
  6513                           	line	19
  6514  0AD6  30FF               	movlw	low(-1)
  6515  0AD7  07F6               	addwf	(delay@x),f
  6516  0AD8  1803               	skipnc
  6517  0AD9  0AF7               	incf	(delay@x+1),f
  6518  0ADA  30FF               	movlw	high(-1)
  6519  0ADB  07F7               	addwf	(delay@x+1),f
  6520  0ADC  30FF               	movlw	high(-1)
  6521  0ADD  0677               	xorwf	((delay@x+1))&07fh,w
  6522  0ADE  1D03               	skipz
  6523  0ADF  2AE2               	goto	u2155
  6524  0AE0  30FF               	movlw	low(-1)
  6525  0AE1  0676               	xorwf	((delay@x))&07fh,w
  6526  0AE2                     u2155:
  6527                           
  6528  0AE2  1D03               	skipz
  6529  0AE3  2AE5               	goto	u2151
  6530  0AE4  2AE6               	goto	u2150
  6531  0AE5                     u2151:
  6532  0AE5  2AD6               	goto	l30001362
  6533  0AE6                     u2150:
  6534                           	
  6535  0AE6                     l1:	
  6536  0AE6  0008               	return
  6537                           	opt stack 0
  6538                           GLOBAL	__end_of_delay
  6539  0AE7                     	__end_of_delay:
  6540                           ; =============== function _delay ends ============
  6541                           
  6542                           psect	text142,local,class=CODE,delta=2
  6543                           global __ptext142
  6544  0003                     __ptext142:


HI-TECH Software PICC Macro Assembler V9.70 build 5239 
Symbol Table                                                                                   Wed Apr 12 21:07:49 2023

     ___awdiv@dividend 002A                      l1 0AE6                      l5 0AFF                      l6 0AC7  
                    l7 0ABB         __size_of_delay 0011                     l12 0D7F                     l13 0FFF  
                   l21 0FB7                     _DA 04A5                     l14 0F1F                     l30 03EF  
                   _BF 04A0                     _DC 0019                     l24 0FE6                     l27 07FF  
                   l82 00E7                     l91 015D                     l83 00EC                     l79 01DF  
                   _DV 0070                     _PD 001B         __size_of_count 00B1                     _RD 0C60  
                   _UA 04A1                     _TO 001C                     _RW 04A2                     _WR 0C61  
                   _k1 0058                     _k2 005A         __size_of_pulse 0019            __pbssCOMMON 0070  
                  _C1R 083A                    _C2R 0842                    l115 0F16                    l108 0E3A  
                  l207 000C                    l168 0093                    l184 0B2E                    l266 0BE0  
                  l186 0C52                    l371 0CCE                    l188 0C01                    l381 0CAB  
                  l382 0CB5                    l383 0CCE                    l376 0C96                    _CKE 04A6  
             ___awtoft 0B00                    _CKP 00A4                    _GIE 005F                    _BOR 0470  
                  _RA0 0028               ___ftpack 0C53                    _RA1 0029                    _RB0 0030  
                  _RA2 002A                    _RB1 0031                    _RA3 002B                    _RC0 0038  
                  _RB2 0032                    _RA4 002C                    _RC1 0039                    _RB3 0033  
                  _RA5 002D                    _RD0 0040                    _RC2 003A                    _RB4 0034  
                  _RA6 002E                    _RD1 0041                    _RC3 003B                    _RB5 0035  
                  _RA7 002F                    _RE0 0048                    _RD2 0042                    _RC4 003C  
                  _RB6 0036                    _RE1 0049                    _RD3 0043                    _RC5 003D  
                  _RB7 0037                    _RE2 004A                    _RD4 0044                    _RC6 003E  
                  _RE3 004B                    _RD5 0045                    _RC7 003F                    _RD6 0046  
                  _RD7 0047                    _FSR 0004                    _PCL 0002                    _PS0 0408  
                  _PR2 0092                    _PS1 0409                    _PS2 040A                    _PEN 048A  
                  _RP0 001D                    _IRP 001F                    _RP1 001E                    _HTS 047A  
                  _SR0 0C2E                    _SR1 0C2F                    _SEN 0488                    _SCS 0478  
                  _PSA 040B                    _LTS 0479                    _VR0 04B8                    _VR1 04B9  
                  _VR2 04BA                    _VR3 04BB                    _POR 0471                    _RX9 00C6  
                  _SMP 04A7                    _TX9 04C6                    _WUE 0C39                    _VRR 04BD  
        temperature@a1 00A2          temperature@b1 00BB          temperature@c1 00A0          temperature@d1 00BF  
        temperature@e1 00AA          temperature@f1 00B7          temperature@g1 00A8          temperature@h1 00A6  
        temperature@w1 00C3                    _adc 0F17              ?___awtoft 0026              ?___ftpack 0020  
                  _low 0074       __size_of___awdiv 0072       __size_of___ftadd 014C       __size_of___awmod 0062  
     __size_of___ftdiv 00BB       __size_of___ftneg 000A       __size_of___ftmul 00DC       __size_of___fttol 0087  
           ??___awtoft 0079             ??___ftpack 0076                ??_delay 0076                ??_count 0078  
                 ?_adc 0079                   _C1IE 046D                   _C1IF 006D                   _C2IE 046E  
                 _C2IF 006E                   _C1OE 083D                   _C2OE 0845                   _C1ON 083F  
                 _C2ON 0847                   _ADIE 0466                   _ADIF 0066                   _ADFM 04FF  
     __size_of_command 000C                   _ADON 00F8                   _P1M0 00BE                   _CHS0 00FA  
                 _P1M1 00BF                   _CHS1 00FB                   _CHS2 00FC                   _CHS3 00FD  
                 _EEIE 046C                   _EEIF 006C                   _ANS0 0C40                   _BRG0 04C8  
                 _ANS1 0C41                   _BRG1 04C9                   _ANS2 0C42                   _BRG2 04CA  
                 _ANS3 0C43                   _BRG3 04CB                   _ANS4 0C44                   _BRG4 04CC  
                 _ANS5 0C45                   _BRG5 04CD                   _ANS6 0C46                   _GCEN 048F  
                 _BRG6 04CE                   _ANS7 0C47                   _BRG7 04CF                   _ANS8 0C48  
                 _BRG8 04D0                   _ANS9 0C49                   _BRG9 04D1                   _BRGH 04C2  
                 _T0IE 005D                   _T0IF 005A                   _CREN 00C4                   _T0CS 040D  
                 _FERR 00C2                   u2110 0C2F                   _PDC0 04D8                   u2111 0C2E  
                 _PDC1 04D9                   u2200 00C9                   u1400 0064                   _PDC2 04DA  
                 u2105 0C1F                   u1401 0063                   _PDC3 04DB                   u3010 0BD1  
                 u2130 0C43                   u2050 0BEC                   u2210 00CF                   u1410 006B  
                 _PDC4 04DC                   u3011 0BD0                   u2131 0C42                   u2115 0C2B  
                 u2051 0BEB                   u2211 00CE                   u1411 006A                   _T0SE 040C  
                 _PDC5 04DD                   _CSRC 04C7                   u3020 0BD5                   u2140 0C47  
                 u2060 0BF8                   u2300 012B                   u2220 00D9                   _PDC6 04DE  
                 _IOCB 0096                   u3005 0BC5                   u2125 0C37                   u2061 0BF7  
                 u2301 012A                   u2221 00D8                   u2150 0AE6                   u2070 0C0B  
                 u2310 0132                   u2230 00E6                   u1430 007C                   u1350 001E  
                 _INDF 0000                   u2151 0AE5                   u2071 0C0A                   u2311 0131  
                 u2231 00E5                   u1431 007B                   u1351 001D                   u2240 00EB  
                 u2160 000A                   u1440 0080                   u1360 0032                   u2401 018A  
                 u2241 00EA                   u2161 0009                   u1425 006E                   u2090 0C1E  
                 u2402 0191                   u2330 0142                   u2250 0100                   u2170 00AE  
                 u1370 004B                ??_pulse 0076                   u2155 0AE2                   u2091 0C1D  
                 u2411 019F                   u2331 0141                   u2251 00FF                   u1371 004A  
                 u2420 01AA                   u2412 01A6                   u2340 014A                   u2180 00B4  
                 u1380 0052                   u2500 0F54                   u2085 0C10                   u2421 01A9  
                 u2341 0149                   u2325 0133                   u2181 00B3                   u1381 0051  
                 u1365 002E                   u2501 0F53                   u2270 0110                   u2190 00BE  
                 u2510 0F70                   u2431 01B9                   u2271 010F                   u2191 00BD  
                 u2511 0F6F                   u2600 0C59                   u2432 01C0                   u2360 015D  
                 u2280 0118                   u2440 0447                   u2520 0F8C                   u2361 015C  
                 u2281 0117                   u2265 0101                   u2441 0446                   u2521 0F8B  
                 u2610 0C60                   u2370 0161                   u2450 0629                   u2530 0FB0  
                 u2611 0C5F                   u2371 0160                   u2355 014C                   u1395 0054  
                 u2451 0628                   u2531 0FAF                   u2700 0CC0                   u2540 0FC0  
                 u2460 0231                   u2381 0170                   u2445 0443                   u2541 0FBF  
                 u2461 0230                   u2710 0CCD                   u2630 0C79                   u2390 017B  
                 u2382 0177                   u2550 0FCD                   u2470 0311                   u2631 0C78  
                 u2391 017A                   u2295 011A                   u2455 0625                   u2551 0FCC  
                 u2535 0FAC                   u2471 0310                   _PIE1 008C                   u2800 0E4C  
                 u2720 0D91                   u2560 0FDF                   u2480 0F24                   _PIE2 008D  
                 u2705 0CBC                   u2641 0C87                   u2625 0C6C                   u2801 0E4B  
                 u2721 0D90                   u2561 0FDE                   u2481 0F23                   u2465 022D  
                 u2642 0C8E                   u2810 0E62                   u2730 0DA7                   u2570 0FEF  
                 u2490 0F3C                   u2811 0E61                   u2731 0DA6                   u2571 0FEE  
                 u2555 0FC9                   u2491 0F3B                   u2475 030D                   u2660 0C9C  
                 u2820 0E79                   u2740 0DC4                   u2580 0FFC                   u2661 0C9B  
                 u2901 0EDD                   u2581 0FFB                   u2565 0FDB                   u2590 0B0B  
                 u2902 0EE4                   u2830 0E89                   u2750 0DD4                   u2655 0C8F  
                 u2591 0B0A                   u2680 0CAB                   u2840 0EA8                   u2681 0CAA  
                 u2841 0EA7                   u2825 0E75                   u2745 0DC0                   u2585 0FF8  
                 u2690 0CAF                   u2930 0EFA                   u2770 0E05                   u2691 0CAE  
                 u2675 0CA0                   u2931 0EF9                   u2915 0EE5                   u2851 0EB1  
                 u2835 0E85                   u2771 0E04                   u2755 0DD0                   _PEIE 005E  
                 u2940 0B8A                   u2852 0EB8                   u2941 0B89                   u2925 0EED  
                 u2765 0DF0                   _INTE 005C                   u2950 0B96                   u2790 0E1E  
                 _INTF 0059                   u2951 0B95                   u2791 0E1D                   u2775 0E01  
                 _RBIE 005B                   u2960 0BA1                   u2880 0ECE                   _RBIF 0058  
                 u2961 0BA0                   u2881 0ECD                   u2865 0EB9                   u2785 0E11  
                 u2890 0ED4                   u2891 0ED3                   u2875 0EC1                   _RCIE 0465  
                 u2980 0BB4                   _RCEN 048B                   _RCIF 0065                   u2981 0BB3  
                 u2990 0BBE                   u2991 0BBD                   u2975 0BA6                   _PCON 008E  
                 _PIR1 000C                   _PIR2 000D                   u2995 0BBA                   _OERR 00C1  
     ___awdiv@quotient 0028                   _SCKP 0C3C                   _RBPU 040F                   _RX9D 00C0  
                 _TMR0 0001                   _TMR2 0011                   _WCOL 00A7                   _SPEN 00C7  
                 _RSEN 0489                   _TX9D 04C0                   _SREN 00C5                   _OSTS 047B  
                 _TUN0 0480                   _TUN1 0481                   _TUN2 0482                   _TUN3 0483  
                 _TUN4 0484                   _STRA 04E8                   _STRB 04E9                   _STRC 04EA  
                 _VREN 04BF                   _STRD 04EB                   _TRMT 04C1                   _STOP 04A4  
                 _TXIE 0464                   _ZERO 001A                   _WREN 0C62                   _TXEN 04C5  
                 _TXIF 0064                   _VROE 04BE                   _SYNC 04C4                   _WPUB 0095  
                 _VRSS 04BC           ___awdiv@sign 0027                   _data 0AB0               data@data 0078  
                 _high 0072                   _main 0B2F           ___ftadd@exp1 002A           ___ftadd@exp2 0029  
                 start 0000           ___ftadd@sign 0028      __size_of___awtoft 002F      __size_of___ftpack 007C  
     __size_of_voltage 0210    start_initialization 0AC8           ___awmod@sign 0020              voltage@w1 004D  
                ??_adc 0038        __end_of___awdiv 0C53        __end_of___ftadd 01E0        __end_of___awmod 0BE1  
      __end_of___ftdiv 0E3B        __end_of___ftneg 000D        __end_of___ftmul 0F17        __end_of___fttol 0094  
          _temperature 03F0             ___ftadd@f1 002B             ___ftadd@f2 002E           ___ftdiv@cntr 003D  
              _CM1CON0 0107                _CM2CON0 0108                _CCP1CON 0017                _CM2CON1 0109  
              _CCP2CON 001D           ___ftdiv@sign 0042                _ACKSTAT 048E                _BAUDCTL 0187  
              _ECCPAS0 04E4                _ECCPAS1 04E5                _ECCPAS2 04E6                _ECCPASE 04E7  
                _C1CH0 0838                  _C1CH1 0839                  _C2CH0 0840                  _C2CH1 0841  
  __end_of_temperature 0800                  _DC1B0 00BC             ___ftdiv@f1 0043                  _DC1B1 00BD  
           ___ftdiv@f2 0046             ___ftdiv@f3 003E                  _C1SEN 0C2D                  ?_data 0079  
                _C2REN 0C2C                  _C1POL 083C                  _C2POL 0844                  _C1OUT 083E  
                _C2OUT 0846                  _ABDEN 0C38                  _ADCS0 00FE                  _ADCS1 00FF  
                _ADDEN 00C3                  ?_main 0058                  _ACKEN 048C                  _ACKDT 048D  
            __ptext130 0B00              __ptext131 000D              __ptext140 0AE7              __ptext132 0003  
            __ptext124 0003              __ptext141 0AD6              __ptext133 0094              __ptext125 01E0  
            __ptext142 0003              __ptext134 0CCF              __ptext126 0F17              __ptext135 0C53  
            __ptext127 03F0              __ptext136 0BE1              __ptext128 0D80              __ptext137 0ABC  
            __ptext129 0E3B              __ptext138 0AB0              __ptext139 0B7F                  _BCLIE 046B  
                _BCLIF 006B                  _CCP2X 00ED                  _CCP2Y 00EC                  _EEADR 010D  
           ___ftneg@f1 0076                  _ANS10 0C4A                  _EEDAT 010C                  _BRG10 04D2  
                _ANS11 0C4B                  _BRG11 04D3                  _ANS12 0C4C                  _BRG12 04D4  
                _ANS13 0C4D                  _BRG13 04D5                  _BRG14 04D6                  _BRG15 04D7  
                _BRG16 0C3B          __end_of_delay 0AE7                  _CARRY 0018                  _EEPGD 0C67  
                _ANSEL 0188             ___awtoft@c 0026  ___ftmul@f3_as_product 002E                  _T1CON 0010  
                _IOCB0 04B0                  _T2CON 0012                  _IOCB1 04B1                  _IOCB2 04B2  
                _IOCB3 04B3                  _IOCB4 04B4                  _IOCB5 04B5                  _IOCB6 04B6  
                _IOCB7 04B7                  _T1GSS 0849                _T1CKPS0 0084                _T1CKPS1 0085  
                _IRCF0 047C          __end_of_count 0D80                  _IRCF1 047D                  _IRCF2 047E  
              _T2CKPS0 0090                _T2CKPS1 0091                  _RABIE 005B                  _RABIF 0058  
                _RABPU 040F        __end_of_command 0AC8                  _RCIDL 0C3E                  _FVREN 0C28  
                _VCFG0 04FC                  _VCFG1 04FD                  _RCREG 001A                  _SENDB 04C3  
           ___ftmul@f1 0033             ___ftmul@f2 0036                  _RCSTA 0018                  _OSFIE 046F  
                _OSFIF 006F           ___ftpack@arg 0020                  _TMR1H 000F                  _TMR1L 000E  
                _SPBRG 0099                  _PORTA 0005                  _PORTB 0006                _T1OSCEN 0083  
                _PORTC 0007                  _PORTD 0008                  _PORTE 0009           ___ftpack@exp 0023  
                _PRSEN 04DF                  _SRCON 0185          __end_of_pulse 0B00                  _START 04A3  
                _PULSR 0C2A                  _PULSS 0C2B                  _SSPM0 00A0                  _SSPM1 00A1  
                _SSPM2 00A2                  _SSPM3 00A3                  _TRISA 0085                  _TRISB 0086  
                _TRISC 0087                  _TRISD 0088                  _SSPIE 0463                  _TRISE 0089  
                _SSPIF 0063                  _SSPEN 00A5             ___fttol@f1 003A                  _VRCON 0097  
                _WPUB0 04A8                  _WPUB1 04A9                  _WPUB2 04AA                  _WPUB3 04AB  
                _WPUB4 04AC                  _SSPOV 00A6                  _WPUB5 04AD                  _WPUB6 04AE  
                _WPUB7 04AF                  _WRERR 0C63                  _TXREG 0019                  _TXSTA 0098  
       __pcstackCOMMON 0076                _OSCTUNE 0090                _PWM1CON 009B                  _delay 0AD6  
                _count 0CCF           ___ftmul@cntr 0031           ___ftmul@sign 0032                _PSTRCON 009D  
              _SSPCON2 0091                  _pulse 0AE7                _ULPWUIE 046A                _ULPWUIF 006A  
              _SSPSTAT 0094                _TOUTPS0 0093                _TOUTPS1 0094                _TOUTPS2 0095  
              _TOUTPS3 0096        __end_of_voltage 03F0           ?_temperature 004A                _STRSYNC 04EC  
         ___fttol@exp1 0039           ___fttol@lval 0035                  status 0003   __size_of_temperature 0410  
      ___awdiv@divisor 002C          __size_of_data 000C          __size_of_main 0050             __pbssBANK0 0058  
             l30001210 000D               l30001211 001E               l30001213 0027        ___awdiv@counter 0026  
             l30001230 008B               l30001222 0053               l30001214 0037               l30001223 0065  
             l30001215 0038               l30001216 003E               l30001217 0045               l30001226 006C  
             l30001218 0047               l30001227 0077               l30001219 004B               l30001340 0C0F  
             l30001420 00B4               l30001228 007C               l30001500 0FFC               l30001341 0C16  
             l30001333 0BE1               l30001421 00BE               l30001229 0080               l30001501 0B00  
             l30001350 0C4C               l30001342 0C1A               l30001334 0BE8               l30001510 0C67  
             l30001430 00E6               l30001502 0B07               l30001343 0C1E               l30001335 0BEC  
             l30001511 0C73               l30001431 00EB               l30001423 00C5               l30001503 0B0B  
             l30001360 0AF3               l30001352 0ABD               l30001344 0C2F               l30001336 0BF4  
             l30001520 0CCD               l30001512 0C7A               l30001440 0132               l30001432 00ED  
             l30001424 00C9               l30001504 0B13               l30001361 0AD6               l30001353 0AC0  
             l30001345 0C35               l30001337 0BF8               l30001513 0C7E               l30001441 013C  
             l30001433 00F3               l30001425 00CF               l30001417 0094               l30001521 0D80  
             l30001362 0AD6               l30001354 0AC2               l30001346 0C36               l30001338 0BFD  
             l30001514 0C8E               l30001506 0C53               l30001450 01A6               l30001442 0142  
             l30001434 0100               l30001426 00D9               l30001418 00AA               l30001530 0DC9  
             l30001522 0D91               l30001355 0AB1               l30001347 0C3D               l30001339 0C0B  
             l30001515 0C9D               l30001507 0C59               l30001451 01AA               l30001443 014B  
             l30001435 010A               l30001419 00AE               l30001363 0003               l30001531 0DDB  
             l30001356 0AB4               l30001348 0C43               l30001516 0CA7               l30001508 0C60  
             l30001452 01C0               l30001444 0157               l30001436 0110               l30001428 00E0  
             l30001364 000A               l30001540 0E1E               l30001532 0DDF               l30001524 0D98  
             l30001460 0B2F               l30001357 0AB6               l30001349 0C47               l30001517 0CAF  
             l30001453 01C3               l30001445 0161               l30001437 0119               l30001429 00E2  
             l30001365 000C               l30001533 0DE6               l30001525 0DA7               l30001461 0B33  
             l30001358 0AE7               l30001518 0CB7               l30001446 0177               l30001438 0125  
             l30001550 0E95               l30001542 0E3B               l30001534 0DEF               l30001470 0B71  
             l30001462 0B3A               l30001359 0AEA               l30001519 0CC9               l30001447 017B  
             l30001439 012C               l30001551 0E96               l30001543 0E4C               l30001535 0DF7  
             l30001527 0DAE               l30001455 03F0               l30001471 0B76               l30001463 0B41  
             l30001448 0191               l30001560 0ED0               l30001552 0E9C               l30001536 0E05  
             l30001528 0DB4               l30001456 0438               l30001480 0F3C               l30001472 01E0  
             l30001464 0B48               l30001449 0196               l30001561 0ED4               l30001553 0EA2  
             l30001545 0E53               l30001537 0E0F               l30001529 0DB9               l30001457 0447  
             l30001481 0F42               l30001473 0224               l30001465 0B4F               l30001570 0B92  
             l30001562 0EE4               l30001554 0EA4               l30001546 0E62               l30001538 0E10  
             l30001458 061A               l30001490 0F94               l30001482 0F4D               l30001474 0231  
             l30001466 0B5B               l30001571 0B96               l30001563 0EEC               l30001555 0EA8  
             l30001539 0E18               l30001459 0629               l30001491 0FA1               l30001483 0F54  
             l30001475 0302               l30001467 0B60               l30001580 0BCB               l30001572 0B9B  
             l30001564 0EF4               l30001556 0EB8               l30001548 0E69               l30001492 0FB0  
             l30001484 0F5C               l30001476 0311               l30001468 0B66               l30001573 0BA1  
             l30001581 0BD1               l30001565 0EFA               l30001557 0EC0               l30001549 0E94  
             l30001493 0FB3               l30001485 0F69               l30001477 0F17               l30001469 0B6C  
             l30001582 0BD5               l30001574 0BA5               l30001558 0EC8               l30001494 0FC0  
             l30001486 0F70               l30001478 0F24               l30001583 0BDA               l30001575 0BAC  
             l30001567 0B7F               l30001559 0ECE               l30001495 0FCD               l30001487 0F78  
             l30001479 0F36               l30001576 0BB0               l30001568 0B86               l30001496 0FD0  
             l30001488 0F85               l30001577 0BB4               l30001569 0B8A               l30001585 0CCF  
             l30001497 0FDF               l30001489 0F8C               l30001578 0BBE               l30001498 0FE2  
             l30001579 0BC4               l30001499 0FEF                ___awdiv 0BE1                ___ftadd 0094  
              ___awmod 0B7F                ___ftdiv 0D80                ___ftneg 0003                ___ftmul 0E3B  
              ___fttol 000D               ?___awdiv 002A               ?___ftadd 002B               ?___awmod 0022  
         temperature@a 00B2           temperature@b 00B9           temperature@c 00B0           temperature@d 00C1  
         temperature@e 00AE           temperature@f 00BD           temperature@g 00AC           temperature@h 00A4  
         temperature@w 00C6               ?___ftdiv 0043           temperature@z 00B4               ?___ftneg 0076  
             ?___ftmul 0033               ?___fttol 003A              ??___awdiv 0077              ??___ftadd 0025  
            ??___awmod 0076              ??___ftdiv 0039              ??___ftneg 0076              ??___ftmul 0029  
            ??___fttol 0031                 ??_data 0076                 ??_main 0029       __end_of___awtoft 0B2F  
          command@data 0078       __end_of___ftpack 0CCF                _command 0ABC               ?_command 0079  
           __pmaintext 0B2F              ??_command 0076               voltage@a 0052               voltage@b 0054  
             voltage@c 0050               voltage@w 0056               voltage@z 004A                 _C1RSEL 084D  
               _C2RSEL 084C                 ?_delay 0076                 _C2SYNC 0848                 _ADCON0 001F  
               _ADCON1 009F                 _ABDOVF 0C3F            ___ftdiv@exp 0041                 _CCP1M0 00B8  
               _CCP1M1 00B9                 _CCP1M2 00BA                 _CCP1M3 00BB                 _CCP2M0 00E8  
               _CCP2M1 00E9                 _CCP2M2 00EA                 _CCP2M3 00EB                 _CCP1IE 0462  
               ?_count 0036                 _CCP1IF 0062                 _CCP2IE 0468                 _CCP2IF 0068  
               _ADRESH 001E                 _EEADRH 010F                 _ADRESL 009E                 _EEADRL 010D  
               _EEDATA 010C                 _ECCPAS 009C                 _CCPR1H 0016                 _EEDATH 010E  
               _CCPR2H 001C                 _CCPR1L 0015                 _CCPR2L 001B                 _EECON1 018C  
               _EECON2 018D           __end_of_data 0ABC                 ?_pulse 0078                 _ANSELH 0189  
               _MC1OUT 084F                 _MC2OUT 084E           __end_of_main 0B7F                _voltage 01E0  
               _T1GINV 0087                 _GODONE 00F9   end_of_initialization 0AD2               ?_voltage 0058  
        ??_temperature 0049                 _T1SYNC 0082                 _INTEDG 040E                 _PCLATH 000A  
               _INTCON 000B          __pcstackBANK0 0020          __pcstackBANK1 00A0          ___awtoft@sign 0025  
               _SBOREN 0474                 _OSCCON 008F              ??_voltage 0049                 _TMR1GE 0086  
               _TMR1IE 0460                 _TMR1IF 0060                 _TMR1CS 0081                 _TMR2IE 0461  
               _TMR2IF 0061                 _PSSAC0 04E2                 _PSSAC1 04E3                 _PSSBD0 04E0  
               _PSSBD1 04E1                 _SPBRGH 009A                 _OPTION 0081                 _TMR1ON 0080  
               _TMR2ON 0092                 _WDTCON 0105            ___ftmul@exp 002D                 _WDTPS0 0829  
               _WDTPS1 082A                 _WDTPS2 082B                 _WDTPS3 082C                 _SSPADD 0093  
               _TRISA0 0428                 _TRISA1 0429                 _TRISB0 0430                 _TRISA2 042A  
               _TRISB1 0431                 _TRISA3 042B                 _TRISC0 0438                 _TRISB2 0432  
               _TRISA4 042C                 _TRISC1 0439                 _TRISB3 0433                 _TRISA5 042D  
               _TRISD0 0440                 _TRISC2 043A                 _TRISB4 0434                 _TRISA6 042E  
               _TRISD1 0441                 _TRISC3 043B                 _TRISB5 0435                 _TRISA7 042F  
               _TRISE0 0448                 _TRISD2 0442                 _TRISC4 043C                 _TRISB6 0436  
               _TRISE1 0449                 _TRISD3 0443                 _TRISC5 043D                 _TRISB7 0437  
               _TRISE2 044A                 _TRISD4 0444                 _TRISC6 043E                 _TRISE3 044B  
               _TRISD5 0445                 _TRISC7 043F                 _TRISD6 0446                 _TRISD7 0447  
               _STATUS 0003          ___ftpack@sign 0024                 _SSPCON 0014                 _SSPBUF 0013  
               _SWDTEN 0828                 _ULPWUE 0475                 _SSPMSK 0093           __size_of_adc 00E9  
               delay@x 0076            __end_of_adc 1000                 count@a 0032                 count@c 0034  
               count@e 002E                 count@f 0030                 count@i 0036          ___fttol@sign1 0034  
     ___awmod@dividend 0022        ___awmod@divisor 0024        ___awmod@counter 0021  
