

HI-TECH Software PIC LITE Macro Assembler V9.70 build 5239 
                                                                                               Wed Apr 19 15:48:45 2023

HI-TECH Software Omniscient Code Generator (Lite mode) build 5239
     1  0000                     opt subtitle "HI-TECH Software Omniscient Code Generator (Lite mode) build 5239"
     2                           
     3                           opt pagewidth 120
     4                           
     5                           	opt lm
     6                           
     7                           	processor	16F887
     8                           clrc	macro
     9                           	bcf	3,0
    10  0000                     	endm
    11                           clrz	macro
    12                           	bcf	3,2
    13  0000                     	endm
    14                           setc	macro
    15                           	bsf	3,0
    16  0000                     	endm
    17                           setz	macro
    18                           	bsf	3,2
    19  0000                     	endm
    20                           skipc	macro
    21                           	btfss	3,0
    22  0000                     	endm
    23                           skipz	macro
    24                           	btfss	3,2
    25  0000                     	endm
    26                           skipnc	macro
    27                           	btfsc	3,0
    28  0000                     	endm
    29                           skipnz	macro
    30                           	btfsc	3,2
    31  0000                     	endm
    32  0000                     indf	equ	0
    33  0000                     indf0	equ	0
    34  0002                     pc	equ	2
    35  0002                     pcl	equ	2
    36  0003                     status	equ	3
    37  0004                     fsr	equ	4
    38  0004                     fsr0	equ	4
    39  0001                     c	equ	1
    40  0000                     z	equ	0
    41  000A                     pclath	equ	10
    42                           ;BANK0:	_main->_temperature
    43                           ;COMMON:	_temperature->___awtoft
    44                           ;COMMON:	___awtoft->___ftpack
    45                           ;BANK0:	___awtoft->___ftpack
    46                           ;BANK0:	_temperature->___ftdiv
    47                           ;BANK0:	___ftdiv->___ftmul
    48                           ;COMMON:	___ftmul->___awtoft
    49                           ;COMMON:	___awtoft->___ftpack
    50                           ;BANK0:	___awtoft->___ftpack
    51                           ;BANK0:	___ftmul->___awtoft
    52                           ;COMMON:	___awtoft->___ftpack
    53                           ;BANK0:	___awtoft->___ftpack
    54                           ;COMMON:	___ftdiv->___awtoft
    55                           ;COMMON:	___awtoft->___ftpack
    56                           ;BANK0:	___awtoft->___ftpack
    57                           ;BANK1:	_main->_temperature
    58                           ;COMMON:	_temperature->___awtoft
    59                           ;COMMON:	___awtoft->___ftpack
    60                           ;BANK0:	___awtoft->___ftpack
    61                           ;BANK0:	_temperature->___ftdiv
    62                           ;BANK0:	___ftdiv->___ftmul
    63                           ;COMMON:	___ftmul->___awtoft
    64                           ;COMMON:	___awtoft->___ftpack
    65                           ;BANK0:	___awtoft->___ftpack
    66                           ;BANK0:	___ftmul->___awtoft
    67                           ;COMMON:	___awtoft->___ftpack
    68                           ;BANK0:	___awtoft->___ftpack
    69                           ;COMMON:	___ftdiv->___awtoft
    70                           ;COMMON:	___awtoft->___ftpack
    71                           ;BANK0:	___awtoft->___ftpack
    72                           	FNCALL	_main,_command
    73                           	FNCALL	_main,_lift
    74                           	FNCALL	_main,_adc
    75                           	FNCALL	_main,_temperature
    76                           	FNCALL	_main,_tmr
    77                           	FNCALL	_lift,_command
    78                           	FNCALL	_lift,_string
    79                           	FNCALL	_temperature,___awtoft
    80                           	FNCALL	_temperature,___ftmul
    81                           	FNCALL	_temperature,___ftdiv
    82                           	FNCALL	_temperature,___ftadd
    83                           	FNCALL	_temperature,___fttol
    84                           	FNCALL	_temperature,___awdiv
    85                           	FNCALL	_temperature,___awmod
    86                           	FNCALL	_temperature,_command
    87                           	FNCALL	_temperature,_data
    88                           	FNCALL	_temperature,___ftneg
    89                           	FNCALL	_adc,_count
    90                           	FNCALL	_tmr,_command
    91                           	FNCALL	_tmr,_string
    92                           	FNCALL	___ftmul,___ftpack
    93                           	FNCALL	___ftadd,___ftpack
    94                           	FNCALL	___awtoft,___ftpack
    95                           	FNCALL	___ftdiv,___ftpack
    96                           	FNCALL	_command,_pulse
    97                           	FNCALL	_string,_data
    98                           	FNCALL	_count,___awdiv
    99                           	FNCALL	_count,___awmod
   100                           	FNCALL	_data,_pulse
   101                           	FNCALL	_pulse,_delay
   102                           	FNROOT	_main
   103                           	global	_high
   104                           	global	_input
   105                           	global	_k1
   106                           	global	_k2
   107                           	global	_output
   108                           	global	_DV
   109                           	global	_counttmr
   110                           	global	_low
   111                           	global	_ADCON0
   112                           psect	text148,local,class=CODE,delta=2
   113                           global __ptext148
   114  0003                     __ptext148:
   115  001F                     _ADCON0  equ     31
   116                           	global	_ADRESH
   117  001E                     _ADRESH  equ     30
   118                           	global	_CCP1CON
   119  0017                     _CCP1CON  equ     23
   120                           	global	_CCP2CON
   121  001D                     _CCP2CON  equ     29
   122                           	global	_CCPR1H
   123  0016                     _CCPR1H  equ     22
   124                           	global	_CCPR1L
   125  0015                     _CCPR1L  equ     21
   126                           	global	_CCPR2H
   127  001C                     _CCPR2H  equ     28
   128                           	global	_CCPR2L
   129  001B                     _CCPR2L  equ     27
   130                           	global	_FSR
   131  0004                     _FSR  equ     4
   132                           	global	_INDF
   133  0000                     _INDF  equ     0
   134                           	global	_INTCON
   135  000B                     _INTCON  equ     11
   136                           	global	_PCL
   137  0002                     _PCL  equ     2
   138                           	global	_PCLATH
   139  000A                     _PCLATH  equ     10
   140                           	global	_PIR1
   141  000C                     _PIR1  equ     12
   142                           	global	_PIR2
   143  000D                     _PIR2  equ     13
   144                           	global	_PORTA
   145  0005                     _PORTA  equ     5
   146                           	global	_PORTB
   147  0006                     _PORTB  equ     6
   148                           	global	_PORTC
   149  0007                     _PORTC  equ     7
   150                           	global	_PORTD
   151  0008                     _PORTD  equ     8
   152                           	global	_PORTE
   153  0009                     _PORTE  equ     9
   154                           	global	_RCREG
   155  001A                     _RCREG  equ     26
   156                           	global	_RCSTA
   157  0018                     _RCSTA  equ     24
   158                           	global	_SSPBUF
   159  0013                     _SSPBUF  equ     19
   160                           	global	_SSPCON
   161  0014                     _SSPCON  equ     20
   162                           	global	_STATUS
   163  0003                     _STATUS  equ     3
   164                           	global	_T1CON
   165  0010                     _T1CON  equ     16
   166                           	global	_T2CON
   167  0012                     _T2CON  equ     18
   168                           	global	_TMR0
   169  0001                     _TMR0  equ     1
   170                           	global	_TMR1H
   171  000F                     _TMR1H  equ     15
   172                           	global	_TMR1L
   173  000E                     _TMR1L  equ     14
   174                           	global	_TMR2
   175  0011                     _TMR2  equ     17
   176                           	global	_TXREG
   177  0019                     _TXREG  equ     25
   178                           	global	_ADCS0
   179  00FE                     _ADCS0  equ     254
   180                           	global	_ADCS1
   181  00FF                     _ADCS1  equ     255
   182                           	global	_ADDEN
   183  00C3                     _ADDEN  equ     195
   184                           	global	_ADIF
   185  0066                     _ADIF  equ     102
   186                           	global	_ADON
   187  00F8                     _ADON  equ     248
   188                           	global	_BCLIF
   189  006B                     _BCLIF  equ     107
   190                           	global	_C1IF
   191  006D                     _C1IF  equ     109
   192                           	global	_C2IF
   193  006E                     _C2IF  equ     110
   194                           	global	_CARRY
   195  0018                     _CARRY  equ     24
   196                           	global	_CCP1IF
   197  0062                     _CCP1IF  equ     98
   198                           	global	_CCP1M0
   199  00B8                     _CCP1M0  equ     184
   200                           	global	_CCP1M1
   201  00B9                     _CCP1M1  equ     185
   202                           	global	_CCP1M2
   203  00BA                     _CCP1M2  equ     186
   204                           	global	_CCP1M3
   205  00BB                     _CCP1M3  equ     187
   206                           	global	_CCP2IF
   207  0068                     _CCP2IF  equ     104
   208                           	global	_CCP2M0
   209  00E8                     _CCP2M0  equ     232
   210                           	global	_CCP2M1
   211  00E9                     _CCP2M1  equ     233
   212                           	global	_CCP2M2
   213  00EA                     _CCP2M2  equ     234
   214                           	global	_CCP2M3
   215  00EB                     _CCP2M3  equ     235
   216                           	global	_CCP2X
   217  00ED                     _CCP2X  equ     237
   218                           	global	_CCP2Y
   219  00EC                     _CCP2Y  equ     236
   220                           	global	_CHS0
   221  00FA                     _CHS0  equ     250
   222                           	global	_CHS1
   223  00FB                     _CHS1  equ     251
   224                           	global	_CHS2
   225  00FC                     _CHS2  equ     252
   226                           	global	_CHS3
   227  00FD                     _CHS3  equ     253
   228                           	global	_CKP
   229  00A4                     _CKP  equ     164
   230                           	global	_CREN
   231  00C4                     _CREN  equ     196
   232                           	global	_DC
   233  0019                     _DC  equ     25
   234                           	global	_DC1B0
   235  00BC                     _DC1B0  equ     188
   236                           	global	_DC1B1
   237  00BD                     _DC1B1  equ     189
   238                           	global	_EEIF
   239  006C                     _EEIF  equ     108
   240                           	global	_FERR
   241  00C2                     _FERR  equ     194
   242                           	global	_GIE
   243  005F                     _GIE  equ     95
   244                           	global	_GODONE
   245  00F9                     _GODONE  equ     249
   246                           	global	_INTE
   247  005C                     _INTE  equ     92
   248                           	global	_INTF
   249  0059                     _INTF  equ     89
   250                           	global	_IRP
   251  001F                     _IRP  equ     31
   252                           	global	_OERR
   253  00C1                     _OERR  equ     193
   254                           	global	_OSFIF
   255  006F                     _OSFIF  equ     111
   256                           	global	_P1M0
   257  00BE                     _P1M0  equ     190
   258                           	global	_P1M1
   259  00BF                     _P1M1  equ     191
   260                           	global	_PD
   261  001B                     _PD  equ     27
   262                           	global	_PEIE
   263  005E                     _PEIE  equ     94
   264                           	global	_RA0
   265  0028                     _RA0  equ     40
   266                           	global	_RA1
   267  0029                     _RA1  equ     41
   268                           	global	_RA2
   269  002A                     _RA2  equ     42
   270                           	global	_RA3
   271  002B                     _RA3  equ     43
   272                           	global	_RA4
   273  002C                     _RA4  equ     44
   274                           	global	_RA5
   275  002D                     _RA5  equ     45
   276                           	global	_RA6
   277  002E                     _RA6  equ     46
   278                           	global	_RA7
   279  002F                     _RA7  equ     47
   280                           	global	_RABIE
   281  005B                     _RABIE  equ     91
   282                           	global	_RABIF
   283  0058                     _RABIF  equ     88
   284                           	global	_RB0
   285  0030                     _RB0  equ     48
   286                           	global	_RB1
   287  0031                     _RB1  equ     49
   288                           	global	_RB2
   289  0032                     _RB2  equ     50
   290                           	global	_RB3
   291  0033                     _RB3  equ     51
   292                           	global	_RB4
   293  0034                     _RB4  equ     52
   294                           	global	_RB5
   295  0035                     _RB5  equ     53
   296                           	global	_RB6
   297  0036                     _RB6  equ     54
   298                           	global	_RB7
   299  0037                     _RB7  equ     55
   300                           	global	_RBIE
   301  005B                     _RBIE  equ     91
   302                           	global	_RBIF
   303  0058                     _RBIF  equ     88
   304                           	global	_RC0
   305  0038                     _RC0  equ     56
   306                           	global	_RC1
   307  0039                     _RC1  equ     57
   308                           	global	_RC2
   309  003A                     _RC2  equ     58
   310                           	global	_RC3
   311  003B                     _RC3  equ     59
   312                           	global	_RC4
   313  003C                     _RC4  equ     60
   314                           	global	_RC5
   315  003D                     _RC5  equ     61
   316                           	global	_RC6
   317  003E                     _RC6  equ     62
   318                           	global	_RC7
   319  003F                     _RC7  equ     63
   320                           	global	_RCIF
   321  0065                     _RCIF  equ     101
   322                           	global	_RD0
   323  0040                     _RD0  equ     64
   324                           	global	_RD1
   325  0041                     _RD1  equ     65
   326                           	global	_RD2
   327  0042                     _RD2  equ     66
   328                           	global	_RD3
   329  0043                     _RD3  equ     67
   330                           	global	_RD4
   331  0044                     _RD4  equ     68
   332                           	global	_RD5
   333  0045                     _RD5  equ     69
   334                           	global	_RD6
   335  0046                     _RD6  equ     70
   336                           	global	_RD7
   337  0047                     _RD7  equ     71
   338                           	global	_RE0
   339  0048                     _RE0  equ     72
   340                           	global	_RE1
   341  0049                     _RE1  equ     73
   342                           	global	_RE2
   343  004A                     _RE2  equ     74
   344                           	global	_RE3
   345  004B                     _RE3  equ     75
   346                           	global	_RP0
   347  001D                     _RP0  equ     29
   348                           	global	_RP1
   349  001E                     _RP1  equ     30
   350                           	global	_RX9
   351  00C6                     _RX9  equ     198
   352                           	global	_RX9D
   353  00C0                     _RX9D  equ     192
   354                           	global	_SPEN
   355  00C7                     _SPEN  equ     199
   356                           	global	_SREN
   357  00C5                     _SREN  equ     197
   358                           	global	_SSPEN
   359  00A5                     _SSPEN  equ     165
   360                           	global	_SSPIF
   361  0063                     _SSPIF  equ     99
   362                           	global	_SSPM0
   363  00A0                     _SSPM0  equ     160
   364                           	global	_SSPM1
   365  00A1                     _SSPM1  equ     161
   366                           	global	_SSPM2
   367  00A2                     _SSPM2  equ     162
   368                           	global	_SSPM3
   369  00A3                     _SSPM3  equ     163
   370                           	global	_SSPOV
   371  00A6                     _SSPOV  equ     166
   372                           	global	_T0IE
   373  005D                     _T0IE  equ     93
   374                           	global	_T0IF
   375  005A                     _T0IF  equ     90
   376                           	global	_T1CKPS0
   377  0084                     _T1CKPS0  equ     132
   378                           	global	_T1CKPS1
   379  0085                     _T1CKPS1  equ     133
   380                           	global	_T1GINV
   381  0087                     _T1GINV  equ     135
   382                           	global	_T1OSCEN
   383  0083                     _T1OSCEN  equ     131
   384                           	global	_T1SYNC
   385  0082                     _T1SYNC  equ     130
   386                           	global	_T2CKPS0
   387  0090                     _T2CKPS0  equ     144
   388                           	global	_T2CKPS1
   389  0091                     _T2CKPS1  equ     145
   390                           	global	_TMR1CS
   391  0081                     _TMR1CS  equ     129
   392                           	global	_TMR1GE
   393  0086                     _TMR1GE  equ     134
   394                           	global	_TMR1IF
   395  0060                     _TMR1IF  equ     96
   396                           	global	_TMR1ON
   397  0080                     _TMR1ON  equ     128
   398                           	global	_TMR2IF
   399  0061                     _TMR2IF  equ     97
   400                           	global	_TMR2ON
   401  0092                     _TMR2ON  equ     146
   402                           	global	_TO
   403  001C                     _TO  equ     28
   404                           	global	_TOUTPS0
   405  0093                     _TOUTPS0  equ     147
   406                           	global	_TOUTPS1
   407  0094                     _TOUTPS1  equ     148
   408                           	global	_TOUTPS2
   409  0095                     _TOUTPS2  equ     149
   410                           	global	_TOUTPS3
   411  0096                     _TOUTPS3  equ     150
   412                           	global	_TXIF
   413  0064                     _TXIF  equ     100
   414                           	global	_ULPWUIF
   415  006A                     _ULPWUIF  equ     106
   416                           	global	_WCOL
   417  00A7                     _WCOL  equ     167
   418                           	global	_ZERO
   419  001A                     _ZERO  equ     26
   420                           	global	_ADCON1
   421  009F                     _ADCON1  equ     159
   422                           	global	_ADRESL
   423  009E                     _ADRESL  equ     158
   424                           	global	_ECCPAS
   425  009C                     _ECCPAS  equ     156
   426                           	global	_IOCB
   427  0096                     _IOCB  equ     150
   428                           	global	_OPTION
   429  0081                     _OPTION  equ     129
   430                           	global	_OSCCON
   431  008F                     _OSCCON  equ     143
   432                           	global	_OSCTUNE
   433  0090                     _OSCTUNE  equ     144
   434                           	global	_PCON
   435  008E                     _PCON  equ     142
   436                           	global	_PIE1
   437  008C                     _PIE1  equ     140
   438                           	global	_PIE2
   439  008D                     _PIE2  equ     141
   440                           	global	_PR2
   441  0092                     _PR2  equ     146
   442                           	global	_PSTRCON
   443  009D                     _PSTRCON  equ     157
   444                           	global	_PWM1CON
   445  009B                     _PWM1CON  equ     155
   446                           	global	_SPBRG
   447  0099                     _SPBRG  equ     153
   448                           	global	_SPBRGH
   449  009A                     _SPBRGH  equ     154
   450                           	global	_SSPADD
   451  0093                     _SSPADD  equ     147
   452                           	global	_SSPCON2
   453  0091                     _SSPCON2  equ     145
   454                           	global	_SSPMSK
   455  0093                     _SSPMSK  equ     147
   456                           	global	_SSPSTAT
   457  0094                     _SSPSTAT  equ     148
   458                           	global	_TRISA
   459  0085                     _TRISA  equ     133
   460                           	global	_TRISB
   461  0086                     _TRISB  equ     134
   462                           	global	_TRISC
   463  0087                     _TRISC  equ     135
   464                           	global	_TRISD
   465  0088                     _TRISD  equ     136
   466                           	global	_TRISE
   467  0089                     _TRISE  equ     137
   468                           	global	_TXSTA
   469  0098                     _TXSTA  equ     152
   470                           	global	_VRCON
   471  0097                     _VRCON  equ     151
   472+                          	global	_WPUB
   473+ 0095                     _WPUB  equ     149
   474                           	global	_ACKDT
   475  048D                     _ACKDT  equ     1165
   476                           	global	_ACKEN
   477  048C                     _ACKEN  equ     1164
   478                           	global	_ACKSTAT
   479  048E                     _ACKSTAT  equ     1166
   480                           	global	_ADFM
   481  04FF                     _ADFM  equ     1279
   482                           	global	_ADIE
   483  0466                     _ADIE  equ     1126
   484                           	global	_BCLIE
   485  046B                     _BCLIE  equ     1131
   486                           	global	_BF
   487  04A0                     _BF  equ     1184
   488                           	global	_BOR
   489  0470                     _BOR  equ     1136
   490                           	global	_BRG0
   491  04C8                     _BRG0  equ     1224
   492                           	global	_BRG1
   493  04C9                     _BRG1  equ     1225
   494                           	global	_BRG10
   495  04D2                     _BRG10  equ     1234
   496                           	global	_BRG11
   497  04D3                     _BRG11  equ     1235
   498                           	global	_BRG12
   499  04D4                     _BRG12  equ     1236
   500                           	global	_BRG13
   501  04D5                     _BRG13  equ     1237
   502                           	global	_BRG14
   503  04D6                     _BRG14  equ     1238
   504                           	global	_BRG15
   505  04D7                     _BRG15  equ     1239
   506                           	global	_BRG2
   507  04CA                     _BRG2  equ     1226
   508                           	global	_BRG3
   509  04CB                     _BRG3  equ     1227
   510                           	global	_BRG4
   511  04CC                     _BRG4  equ     1228
   512                           	global	_BRG5
   513  04CD                     _BRG5  equ     1229
   514                           	global	_BRG6
   515  04CE                     _BRG6  equ     1230
   516                           	global	_BRG7
   517  04CF                     _BRG7  equ     1231
   518                           	global	_BRG8
   519  04D0                     _BRG8  equ     1232
   520                           	global	_BRG9
   521  04D1                     _BRG9  equ     1233
   522                           	global	_BRGH
   523  04C2                     _BRGH  equ     1218
   524                           	global	_C1IE
   525  046D                     _C1IE  equ     1133
   526                           	global	_C2IE
   527  046E                     _C2IE  equ     1134
   528                           	global	_CCP1IE
   529  0462                     _CCP1IE  equ     1122
   530                           	global	_CCP2IE
   531  0468                     _CCP2IE  equ     1128
   532                           	global	_CKE
   533  04A6                     _CKE  equ     1190
   534                           	global	_CSRC
   535  04C7                     _CSRC  equ     1223
   536                           	global	_DA
   537  04A5                     _DA  equ     1189
   538                           	global	_ECCPAS0
   539  04E4                     _ECCPAS0  equ     1252
   540                           	global	_ECCPAS1
   541  04E5                     _ECCPAS1  equ     1253
   542                           	global	_ECCPAS2
   543  04E6                     _ECCPAS2  equ     1254
   544                           	global	_ECCPASE
   545  04E7                     _ECCPASE  equ     1255
   546                           	global	_EEIE
   547  046C                     _EEIE  equ     1132
   548                           	global	_GCEN
   549  048F                     _GCEN  equ     1167
   550                           	global	_HTS
   551  047A                     _HTS  equ     1146
   552                           	global	_INTEDG
   553  040E                     _INTEDG  equ     1038
   554                           	global	_IOCB0
   555  04B0                     _IOCB0  equ     1200
   556                           	global	_IOCB1
   557  04B1                     _IOCB1  equ     1201
   558                           	global	_IOCB2
   559  04B2                     _IOCB2  equ     1202
   560                           	global	_IOCB3
   561  04B3                     _IOCB3  equ     1203
   562                           	global	_IOCB4
   563  04B4                     _IOCB4  equ     1204
   564                           	global	_IOCB5
   565  04B5                     _IOCB5  equ     1205
   566                           	global	_IOCB6
   567  04B6                     _IOCB6  equ     1206
   568                           	global	_IOCB7
   569  04B7                     _IOCB7  equ     1207
   570                           	global	_IRCF0
   571  047C                     _IRCF0  equ     1148
   572                           	global	_IRCF1
   573  047D                     _IRCF1  equ     1149
   574                           	global	_IRCF2
   575  047E                     _IRCF2  equ     1150
   576                           	global	_LTS
   577  0479                     _LTS  equ     1145
   578                           	global	_OSFIE
   579  046F                     _OSFIE  equ     1135
   580                           	global	_OSTS
   581  047B                     _OSTS  equ     1147
   582                           	global	_PDC0
   583  04D8                     _PDC0  equ     1240
   584                           	global	_PDC1
   585  04D9                     _PDC1  equ     1241
   586                           	global	_PDC2
   587  04DA                     _PDC2  equ     1242
   588                           	global	_PDC3
   589  04DB                     _PDC3  equ     1243
   590                           	global	_PDC4
   591  04DC                     _PDC4  equ     1244
   592                           	global	_PDC5
   593  04DD                     _PDC5  equ     1245
   594                           	global	_PDC6
   595  04DE                     _PDC6  equ     1246
   596                           	global	_PEN
   597  048A                     _PEN  equ     1162
   598                           	global	_POR
   599  0471                     _POR  equ     1137
   600                           	global	_PRSEN
   601  04DF                     _PRSEN  equ     1247
   602                           	global	_PS0
   603  0408                     _PS0  equ     1032
   604                           	global	_PS1
   605  0409                     _PS1  equ     1033
   606                           	global	_PS2
   607  040A                     _PS2  equ     1034
   608                           	global	_PSA
   609  040B                     _PSA  equ     1035
   610                           	global	_PSSAC0
   611  04E2                     _PSSAC0  equ     1250
   612                           	global	_PSSAC1
   613  04E3                     _PSSAC1  equ     1251
   614                           	global	_PSSBD0
   615  04E0                     _PSSBD0  equ     1248
   616                           	global	_PSSBD1
   617  04E1                     _PSSBD1  equ     1249
   618                           	global	_RABPU
   619  040F                     _RABPU  equ     1039
   620                           	global	_RBPU
   621  040F                     _RBPU  equ     1039
   622                           	global	_RCEN
   623  048B                     _RCEN  equ     1163
   624                           	global	_RCIE
   625  0465                     _RCIE  equ     1125
   626                           	global	_RSEN
   627  0489                     _RSEN  equ     1161
   628                           	global	_RW
   629  04A2                     _RW  equ     1186
   630                           	global	_SBOREN
   631  0474                     _SBOREN  equ     1140
   632                           	global	_SCS
   633  0478                     _SCS  equ     1144
   634                           	global	_SEN
   635  0488                     _SEN  equ     1160
   636                           	global	_SENDB
   637  04C3                     _SENDB  equ     1219
   638                           	global	_SMP
   639  04A7                     _SMP  equ     1191
   640                           	global	_SSPIE
   641  0463                     _SSPIE  equ     1123
   642                           	global	_START
   643  04A3                     _START  equ     1187
   644                           	global	_STOP
   645  04A4                     _STOP  equ     1188
   646                           	global	_STRA
   647  04E8                     _STRA  equ     1256
   648                           	global	_STRB
   649  04E9                     _STRB  equ     1257
   650                           	global	_STRC
   651  04EA                     _STRC  equ     1258
   652                           	global	_STRD
   653  04EB                     _STRD  equ     1259
   654                           	global	_STRSYNC
   655  04EC                     _STRSYNC  equ     1260
   656                           	global	_SYNC
   657  04C4                     _SYNC  equ     1220
   658                           	global	_T0CS
   659  040D                     _T0CS  equ     1037
   660                           	global	_T0SE
   661  040C                     _T0SE  equ     1036
   662                           	global	_TMR1IE
   663  0460                     _TMR1IE  equ     1120
   664                           	global	_TMR2IE
   665  0461                     _TMR2IE  equ     1121
   666                           	global	_TRISA0
   667  0428                     _TRISA0  equ     1064
   668                           	global	_TRISA1
   669  0429                     _TRISA1  equ     1065
   670                           	global	_TRISA2
   671  042A                     _TRISA2  equ     1066
   672                           	global	_TRISA3
   673  042B                     _TRISA3  equ     1067
   674                           	global	_TRISA4
   675  042C                     _TRISA4  equ     1068
   676                           	global	_TRISA5
   677  042D                     _TRISA5  equ     1069
   678                           	global	_TRISA6
   679  042E                     _TRISA6  equ     1070
   680                           	global	_TRISA7
   681  042F                     _TRISA7  equ     1071
   682                           	global	_TRISB0
   683  0430                     _TRISB0  equ     1072
   684                           	global	_TRISB1
   685  0431                     _TRISB1  equ     1073
   686                           	global	_TRISB2
   687  0432                     _TRISB2  equ     1074
   688                           	global	_TRISB3
   689  0433                     _TRISB3  equ     1075
   690                           	global	_TRISB4
   691  0434                     _TRISB4  equ     1076
   692                           	global	_TRISB5
   693  0435                     _TRISB5  equ     1077
   694                           	global	_TRISB6
   695  0436                     _TRISB6  equ     1078
   696                           	global	_TRISB7
   697  0437                     _TRISB7  equ     1079
   698                           	global	_TRISC0
   699  0438                     _TRISC0  equ     1080
   700                           	global	_TRISC1
   701  0439                     _TRISC1  equ     1081
   702                           	global	_TRISC2
   703  043A                     _TRISC2  equ     1082
   704                           	global	_TRISC3
   705  043B                     _TRISC3  equ     1083
   706                           	global	_TRISC4
   707  043C                     _TRISC4  equ     1084
   708                           	global	_TRISC5
   709  043D                     _TRISC5  equ     1085
   710                           	global	_TRISC6
   711  043E                     _TRISC6  equ     1086
   712                           	global	_TRISC7
   713  043F                     _TRISC7  equ     1087
   714                           	global	_TRISD0
   715  0440                     _TRISD0  equ     1088
   716                           	global	_TRISD1
   717  0441                     _TRISD1  equ     1089
   718                           	global	_TRISD2
   719  0442                     _TRISD2  equ     1090
   720                           	global	_TRISD3
   721  0443                     _TRISD3  equ     1091
   722                           	global	_TRISD4
   723  0444                     _TRISD4  equ     1092
   724                           	global	_TRISD5
   725  0445                     _TRISD5  equ     1093
   726                           	global	_TRISD6
   727  0446                     _TRISD6  equ     1094
   728                           	global	_TRISD7
   729  0447                     _TRISD7  equ     1095
   730                           	global	_TRISE0
   731  0448                     _TRISE0  equ     1096
   732                           	global	_TRISE1
   733  0449                     _TRISE1  equ     1097
   734                           	global	_TRISE2
   735  044A                     _TRISE2  equ     1098
   736                           	global	_TRISE3
   737  044B                     _TRISE3  equ     1099
   738                           	global	_TRMT
   739  04C1                     _TRMT  equ     1217
   740                           	global	_TUN0
   741  0480                     _TUN0  equ     1152
   742                           	global	_TUN1
   743  0481                     _TUN1  equ     1153
   744                           	global	_TUN2
   745  0482                     _TUN2  equ     1154
   746                           	global	_TUN3
   747  0483                     _TUN3  equ     1155
   748                           	global	_TUN4
   749  0484                     _TUN4  equ     1156
   750                           	global	_TX9
   751  04C6                     _TX9  equ     1222
   752                           	global	_TX9D
   753  04C0                     _TX9D  equ     1216
   754                           	global	_TXEN
   755  04C5                     _TXEN  equ     1221
   756                           	global	_TXIE
   757  0464                     _TXIE  equ     1124
   758                           	global	_UA
   759  04A1                     _UA  equ     1185
   760                           	global	_ULPWUE
   761  0475                     _ULPWUE  equ     1141
   762                           	global	_ULPWUIE
   763  046A                     _ULPWUIE  equ     1130
   764                           	global	_VCFG0
   765  04FC                     _VCFG0  equ     1276
   766                           	global	_VCFG1
   767  04FD                     _VCFG1  equ     1277
   768                           	global	_VR0
   769  04B8                     _VR0  equ     1208
   770                           	global	_VR1
   771  04B9                     _VR1  equ     1209
   772                           	global	_VR2
   773  04BA                     _VR2  equ     1210
   774                           	global	_VR3
   775  04BB                     _VR3  equ     1211
   776                           	global	_VREN
   777  04BF                     _VREN  equ     1215
   778                           	global	_VROE
   779  04BE                     _VROE  equ     1214
   780                           	global	_VRR
   781  04BD                     _VRR  equ     1213
   782                           	global	_VRSS
   783  04BC                     _VRSS  equ     1212
   784                           	global	_WPUB0
   785  04A8                     _WPUB0  equ     1192
   786                           	global	_WPUB1
   787  04A9                     _WPUB1  equ     1193
   788                           	global	_WPUB2
   789  04AA                     _WPUB2  equ     1194
   790                           	global	_WPUB3
   791  04AB                     _WPUB3  equ     1195
   792                           	global	_WPUB4
   793  04AC                     _WPUB4  equ     1196
   794                           	global	_WPUB5
   795  04AD                     _WPUB5  equ     1197
   796                           	global	_WPUB6
   797  04AE                     _WPUB6  equ     1198
   798                           	global	_WPUB7
   799  04AF                     _WPUB7  equ     1199
   800                           	global	_CM1CON0
   801  0107                     _CM1CON0  equ     263
   802                           	global	_CM2CON0
   803  0108                     _CM2CON0  equ     264
   804                           	global	_CM2CON1
   805  0109                     _CM2CON1  equ     265
   806                           	global	_EEADR
   807  010D                     _EEADR  equ     269
   808                           	global	_EEADRH
   809  010F                     _EEADRH  equ     271
   810                           	global	_EEADRL
   811  010D                     _EEADRL  equ     269
   812                           	global	_EEDAT
   813  010C                     _EEDAT  equ     268
   814                           	global	_EEDATA
   815  010C                     _EEDATA  equ     268
   816                           	global	_EEDATH
   817  010E                     _EEDATH  equ     270
   818                           	global	_WDTCON
   819  0105                     _WDTCON  equ     261
   820                           	global	_C1CH0
   821  0838                     _C1CH0  equ     2104
   822                           	global	_C1CH1
   823  0839                     _C1CH1  equ     2105
   824                           	global	_C1OE
   825  083D                     _C1OE  equ     2109
   826                           	global	_C1ON
   827  083F                     _C1ON  equ     2111
   828                           	global	_C1OUT
   829  083E                     _C1OUT  equ     2110
   830                           	global	_C1POL
   831  083C                     _C1POL  equ     2108
   832                           	global	_C1R
   833  083A                     _C1R  equ     2106
   834                           	global	_C1RSEL
   835  084D                     _C1RSEL  equ     2125
   836                           	global	_C2CH0
   837  0840                     _C2CH0  equ     2112
   838                           	global	_C2CH1
   839  0841                     _C2CH1  equ     2113
   840                           	global	_C2OE
   841  0845                     _C2OE  equ     2117
   842                           	global	_C2ON
   843  0847                     _C2ON  equ     2119
   844                           	global	_C2OUT
   845  0846                     _C2OUT  equ     2118
   846                           	global	_C2POL
   847  0844                     _C2POL  equ     2116
   848                           	global	_C2R
   849  0842                     _C2R  equ     2114
   850                           	global	_C2RSEL
   851  084C                     _C2RSEL  equ     2124
   852                           	global	_C2SYNC
   853  0848                     _C2SYNC  equ     2120
   854                           	global	_MC1OUT
   855  084F                     _MC1OUT  equ     2127
   856                           	global	_MC2OUT
   857  084E                     _MC2OUT  equ     2126
   858                           	global	_SWDTEN
   859  0828                     _SWDTEN  equ     2088
   860                           	global	_T1GSS
   861  0849                     _T1GSS  equ     2121
   862                           	global	_WDTPS0
   863  0829                     _WDTPS0  equ     2089
   864                           	global	_WDTPS1
   865  082A                     _WDTPS1  equ     2090
   866                           	global	_WDTPS2
   867  082B                     _WDTPS2  equ     2091
   868                           	global	_WDTPS3
   869  082C                     _WDTPS3  equ     2092
   870                           	global	_ANSEL
   871  0188                     _ANSEL  equ     392
   872                           	global	_ANSELH
   873  0189                     _ANSELH  equ     393
   874                           	global	_BAUDCTL
   875  0187                     _BAUDCTL  equ     391
   876                           	global	_EECON1
   877  018C                     _EECON1  equ     396
   878                           	global	_EECON2
   879  018D                     _EECON2  equ     397
   880                           	global	_SRCON
   881  0185                     _SRCON  equ     389
   882                           	global	_ABDEN
   883  0C38                     _ABDEN  equ     3128
   884                           	global	_ABDOVF
   885  0C3F                     _ABDOVF  equ     3135
   886                           	global	_ANS0
   887  0C40                     _ANS0  equ     3136
   888                           	global	_ANS1
   889  0C41                     _ANS1  equ     3137
   890                           	global	_ANS10
   891  0C4A                     _ANS10  equ     3146
   892                           	global	_ANS11
   893  0C4B                     _ANS11  equ     3147
   894                           	global	_ANS12
   895  0C4C                     _ANS12  equ     3148
   896                           	global	_ANS13
   897  0C4D                     _ANS13  equ     3149
   898                           	global	_ANS2
   899  0C42                     _ANS2  equ     3138
   900                           	global	_ANS3
   901  0C43                     _ANS3  equ     3139
   902                           	global	_ANS4
   903  0C44                     _ANS4  equ     3140
   904                           	global	_ANS5
   905  0C45                     _ANS5  equ     3141
   906                           	global	_ANS6
   907  0C46                     _ANS6  equ     3142
   908                           	global	_ANS7
   909  0C47                     _ANS7  equ     3143
   910                           	global	_ANS8
   911  0C48                     _ANS8  equ     3144
   912                           	global	_ANS9
   913  0C49                     _ANS9  equ     3145
   914                           	global	_BRG16
   915  0C3B                     _BRG16  equ     3131
   916                           	global	_C1SEN
   917  0C2D                     _C1SEN  equ     3117
   918                           	global	_C2REN
   919  0C2C                     _C2REN  equ     3116
   920                           	global	_EEPGD
   921  0C67                     _EEPGD  equ     3175
   922                           	global	_FVREN
   923  0C28                     _FVREN  equ     3112
   924                           	global	_PULSR
   925  0C2A                     _PULSR  equ     3114
   926                           	global	_PULSS
   927  0C2B                     _PULSS  equ     3115
   928                           	global	_RCIDL
   929  0C3E                     _RCIDL  equ     3134
   930                           	global	_RD
   931  0C60                     _RD  equ     3168
   932                           	global	_SCKP
   933  0C3C                     _SCKP  equ     3132
   934                           	global	_SR0
   935  0C2E                     _SR0  equ     3118
   936                           	global	_SR1
   937  0C2F                     _SR1  equ     3119
   938                           	global	_WR
   939  0C61                     _WR  equ     3169
   940                           	global	_WREN
   941  0C62                     _WREN  equ     3170
   942                           	global	_WRERR
   943  0C63                     _WRERR  equ     3171
   944                           	global	_WUE
   945  0C39                     _WUE  equ     3129
   946                           psect	strings,class=CODE,delta=2,reloc=256
   947                           global __pstrings
   948  0C00                     __pstrings:
   949                           	global	stringdir,stringtab,__stringbase,stringjmp
   950  0C00                     stringtab:
   951                           ;	String table - string pointers are 1 byte each
   952  0C00  00FE               	movwf	(btemp)&07Fh
   953  0C01  1FFE               	btfss	(btemp)&07Fh,7
   954  0C02  2C08               	goto	stringcode
   955  0C03  1383               	bcf	status,7
   956  0C04  187E               	btfsc	btemp&7Fh,0
   957  0C05  1783               	bsf	status,7
   958  0C06  0800               	movf	indf,w
   959  0C07  0008               	return
   960  0C08                     stringcode:
   961  0C08  0804               	movf	fsr,w
   962  0C09                     stringdir:
   963  0C09  00FE               movwf btemp&07Fh
   964  0C0A  300C               movlw high(stringdir)
   965  0C0B  008A               movwf pclath
   966  0C0C  087E               movf btemp&07Fh,w
   967  0C0D                     stringjmp:
   968  0C0D  0782               	addwf pc
   969  0C0E                     __stringbase:
   970  0C0E  3400               	retlw	0
   971                           psect	strings
   972                           	
   973  0C0F                     STR_4:	
   974  0C0F  3447               	retlw	71	;'G'
   975  0C10  344F               	retlw	79	;'O'
   976  0C11  3449               	retlw	73	;'I'
   977  0C12  344E               	retlw	78	;'N'
   978  0C13  3447               	retlw	71	;'G'
   979  0C14  3420               	retlw	32	;' '
   980  0C15  3454               	retlw	84	;'T'
   981  0C16  344F               	retlw	79	;'O'
   982  0C17  3420               	retlw	32	;' '
   983  0C18  3434               	retlw	52	;'4'
   984  0C19  3454               	retlw	84	;'T'
   985  0C1A  3448               	retlw	72	;'H'
   986  0C1B  3400               	retlw	0
   987                           psect	strings
   988                           	
   989  0C1C                     STR_11:	
   990  0C1C  3453               	retlw	83	;'S'
   991  0C1D  3445               	retlw	69	;'E'
   992  0C1E  3443               	retlw	67	;'C'
   993  0C1F  344F               	retlw	79	;'O'
   994  0C20  344E               	retlw	78	;'N'
   995  0C21  3444               	retlw	68	;'D'
   996  0C22  3420               	retlw	32	;' '
   997  0C23  3446               	retlw	70	;'F'
   998  0C24  344C               	retlw	76	;'L'
   999  0C25  344F               	retlw	79	;'O'
  1000  0C26  344F               	retlw	79	;'O'
  1001  0C27  3452               	retlw	82	;'R'
  1002  0C28  3400               	retlw	0
  1003                           psect	strings
  1004                           	
  1005  0C29                     STR_2:	
  1006  0C29  3447               	retlw	71	;'G'
  1007  0C2A  344F               	retlw	79	;'O'
  1008  0C2B  3449               	retlw	73	;'I'
  1009  0C2C  344E               	retlw	78	;'N'
  1010  0C2D  3447               	retlw	71	;'G'
  1011  0C2E  3420               	retlw	32	;' '
  1012  0C2F  3454               	retlw	84	;'T'
  1013  0C30  344F               	retlw	79	;'O'
  1014  0C31  3420               	retlw	32	;' '
  1015  0C32  3432               	retlw	50	;'2'
  1016  0C33  344E               	retlw	78	;'N'
  1017  0C34  3444               	retlw	68	;'D'
  1018  0C35  3400               	retlw	0
  1019                           psect	strings
  1020                           	
  1021  0C36                     STR_3:	
  1022  0C36  3447               	retlw	71	;'G'
  1023  0C37  344F               	retlw	79	;'O'
  1024  0C38  3449               	retlw	73	;'I'
  1025  0C39  344E               	retlw	78	;'N'
  1026  0C3A  3447               	retlw	71	;'G'
  1027  0C3B  3420               	retlw	32	;' '
  1028  0C3C  3454               	retlw	84	;'T'
  1029  0C3D  344F               	retlw	79	;'O'
  1030  0C3E  3420               	retlw	32	;' '
  1031  0C3F  3433               	retlw	51	;'3'
  1032  0C40  3452               	retlw	82	;'R'
  1033  0C41  3444               	retlw	68	;'D'
  1034  0C42  3400               	retlw	0
  1035                           psect	strings
  1036                           	
  1037  0C43                     STR_5:	
  1038  0C43  3447               	retlw	71	;'G'
  1039  0C44  3452               	retlw	82	;'R'
  1040  0C45  344F               	retlw	79	;'O'
  1041  0C46  3455               	retlw	85	;'U'
  1042  0C47  344E               	retlw	78	;'N'
  1043  0C48  3444               	retlw	68	;'D'
  1044  0C49  3420               	retlw	32	;' '
  1045  0C4A  3446               	retlw	70	;'F'
  1046  0C4B  344C               	retlw	76	;'L'
  1047  0C4C  344F               	retlw	79	;'O'
  1048  0C4D  344F               	retlw	79	;'O'
  1049  0C4E  3452               	retlw	82	;'R'
  1050  0C4F  3400               	retlw	0
  1051                           psect	strings
  1052                           	
  1053  0C50                     STR_1:	
  1054  0C50  3447               	retlw	71	;'G'
  1055  0C51  344F               	retlw	79	;'O'
  1056  0C52  3449               	retlw	73	;'I'
  1057  0C53  344E               	retlw	78	;'N'
  1058  0C54  3447               	retlw	71	;'G'
  1059  0C55  3420               	retlw	32	;' '
  1060  0C56  3454               	retlw	84	;'T'
  1061  0C57  344F               	retlw	79	;'O'
  1062  0C58  3420               	retlw	32	;' '
  1063  0C59  3431               	retlw	49	;'1'
  1064  0C5A  3453               	retlw	83	;'S'
  1065  0C5B  3454               	retlw	84	;'T'
  1066  0C5C  3400               	retlw	0
  1067                           psect	strings
  1068                           	
  1069  0C5D                     STR_9:	
  1070  0C5D  3446               	retlw	70	;'F'
  1071  0C5E  344F               	retlw	79	;'O'
  1072  0C5F  3455               	retlw	85	;'U'
  1073  0C60  3452               	retlw	82	;'R'
  1074  0C61  3454               	retlw	84	;'T'
  1075  0C62  3448               	retlw	72	;'H'
  1076  0C63  3420               	retlw	32	;' '
  1077  0C64  3446               	retlw	70	;'F'
  1078  0C65  344C               	retlw	76	;'L'
  1079  0C66  344F               	retlw	79	;'O'
  1080  0C67  344F               	retlw	79	;'O'
  1081  0C68  3452               	retlw	82	;'R'
  1082  0C69  3400               	retlw	0
  1083                           psect	strings
  1084                           	
  1085  0C6A                     STR_10:	
  1086  0C6A  3454               	retlw	84	;'T'
  1087  0C6B  3448               	retlw	72	;'H'
  1088  0C6C  3449               	retlw	73	;'I'
  1089  0C6D  3452               	retlw	82	;'R'
  1090  0C6E  3444               	retlw	68	;'D'
  1091  0C6F  3420               	retlw	32	;' '
  1092  0C70  3446               	retlw	70	;'F'
  1093  0C71  344C               	retlw	76	;'L'
  1094  0C72  344F               	retlw	79	;'O'
  1095  0C73  344F               	retlw	79	;'O'
  1096  0C74  3452               	retlw	82	;'R'
  1097  0C75  3400               	retlw	0
  1098                           psect	strings
  1099                           	
  1100  0C76                     STR_12:	
  1101  0C76  3446               	retlw	70	;'F'
  1102  0C77  3449               	retlw	73	;'I'
  1103  0C78  3452               	retlw	82	;'R'
  1104  0C79  3453               	retlw	83	;'S'
  1105  0C7A  3454               	retlw	84	;'T'
  1106  0C7B  3420               	retlw	32	;' '
  1107  0C7C  3446               	retlw	70	;'F'
  1108  0C7D  344C               	retlw	76	;'L'
  1109  0C7E  344F               	retlw	79	;'O'
  1110  0C7F  344F               	retlw	79	;'O'
  1111  0C80  3452               	retlw	82	;'R'
  1112  0C81  3400               	retlw	0
  1113                           psect	strings
  1114  0C76                     STR_6	equ	STR_12+0
  1115  0C6A                     STR_8	equ	STR_10+0
  1116  0C1C                     STR_7	equ	STR_11+0
  1117                           	file	"LIFT.as"
  1118                           	line	#
  1119                           psect cinit,class=CODE,delta=2
  1120                           global start_initialization
  1121  0D18                     start_initialization:
  1122                           
  1123                           psect	bssCOMMON,class=COMMON,space=1
  1124                           global __pbssCOMMON
  1125  0070                     __pbssCOMMON:
  1126  0070                     _DV:
  1127  0070                            ds      2
  1128                           
  1129  0072                     _counttmr:
  1130  0072                            ds      2
  1131                           
  1132  0074                     _low:
  1133  0074                            ds      2
  1134                           
  1135                           psect	bssBANK0,class=BANK0,space=1
  1136                           global __pbssBANK0
  1137  004A                     __pbssBANK0:
  1138  004A                     _high:
  1139  004A                            ds      2
  1140                           
  1141  004C                     _input:
  1142  004C                            ds      2
  1143                           
  1144  004E                     _k1:
  1145  004E                            ds      2
  1146                           
  1147  0050                     _k2:
  1148  0050                            ds      2
  1149                           
  1150  0052                     _output:
  1151  0052                            ds      2
  1152                           
  1153                           ; Clear objects allocated to COMMON
  1154                           psect cinit,class=CODE,delta=2
  1155  0D18  01F0               	clrf	((__pbssCOMMON)+0)&07Fh
  1156  0D19  01F1               	clrf	((__pbssCOMMON)+1)&07Fh
  1157  0D1A  01F2               	clrf	((__pbssCOMMON)+2)&07Fh
  1158  0D1B  01F3               	clrf	((__pbssCOMMON)+3)&07Fh
  1159  0D1C  01F4               	clrf	((__pbssCOMMON)+4)&07Fh
  1160  0D1D  01F5               	clrf	((__pbssCOMMON)+5)&07Fh
  1161                           ; Clear objects allocated to BANK0
  1162                           psect cinit,class=CODE,delta=2
  1163  0D1E  01CA               	clrf	((__pbssBANK0)+0)&07Fh
  1164  0D1F  01CB               	clrf	((__pbssBANK0)+1)&07Fh
  1165  0D20  01CC               	clrf	((__pbssBANK0)+2)&07Fh
  1166  0D21  01CD               	clrf	((__pbssBANK0)+3)&07Fh
  1167  0D22  01CE               	clrf	((__pbssBANK0)+4)&07Fh
  1168  0D23  01CF               	clrf	((__pbssBANK0)+5)&07Fh
  1169  0D24  01D0               	clrf	((__pbssBANK0)+6)&07Fh
  1170  0D25  01D1               	clrf	((__pbssBANK0)+7)&07Fh
  1171  0D26  01D2               	clrf	((__pbssBANK0)+8)&07Fh
  1172  0D27  01D3               	clrf	((__pbssBANK0)+9)&07Fh
  1173                           psect cinit,class=CODE,delta=2
  1174                           global end_of_initialization
  1175                           
  1176                           ;End of C runtime variable initationation code
  1177                           
  1178  0D28                     end_of_initialization:
  1179  0D28  0183               clrf status
  1180  0D29  120A  158A  2C82   ljmp _main	;jump to C main() function
  1181                           psect	cstackBANK1,class=BANK1,space=1
  1182                           global __pcstackBANK1
  1183  00A0                     __pcstackBANK1:
  1184                           	global	temperature@c1
  1185  00A0                     temperature@c1:	; 2 bytes @ 0x0
  1186  00A0                     	ds	2
  1187                           	global	temperature@a1
  1188  00A2                     temperature@a1:	; 2 bytes @ 0x2
  1189  00A2                     	ds	2
  1190                           	global	temperature@h
  1191  00A4                     temperature@h:	; 2 bytes @ 0x4
  1192  00A4                     	ds	2
  1193                           	global	temperature@h1
  1194  00A6                     temperature@h1:	; 2 bytes @ 0x6
  1195  00A6                     	ds	2
  1196                           	global	temperature@g1
  1197  00A8                     temperature@g1:	; 2 bytes @ 0x8
  1198  00A8                     	ds	2
  1199                           	global	temperature@e1
  1200  00AA                     temperature@e1:	; 2 bytes @ 0xA
  1201  00AA                     	ds	2
  1202                           	global	temperature@g
  1203  00AC                     temperature@g:	; 2 bytes @ 0xC
  1204  00AC                     	ds	2
  1205                           	global	temperature@e
  1206  00AE                     temperature@e:	; 2 bytes @ 0xE
  1207  00AE                     	ds	2
  1208                           	global	temperature@c
  1209  00B0                     temperature@c:	; 2 bytes @ 0x10
  1210  00B0                     	ds	2
  1211                           	global	temperature@a
  1212  00B2                     temperature@a:	; 2 bytes @ 0x12
  1213  00B2                     	ds	2
  1214                           	global	temperature@z
  1215  00B4                     temperature@z:	; 3 bytes @ 0x14
  1216  00B4                     	ds	3
  1217                           	global	temperature@f1
  1218  00B7                     temperature@f1:	; 2 bytes @ 0x17
  1219  00B7                     	ds	2
  1220                           	global	temperature@b
  1221  00B9                     temperature@b:	; 2 bytes @ 0x19
  1222  00B9                     	ds	2
  1223                           	global	temperature@b1
  1224  00BB                     temperature@b1:	; 2 bytes @ 0x1B
  1225  00BB                     	ds	2
  1226                           	global	temperature@f
  1227  00BD                     temperature@f:	; 2 bytes @ 0x1D
  1228  00BD                     	ds	2
  1229                           	global	temperature@d1
  1230  00BF                     temperature@d1:	; 2 bytes @ 0x1F
  1231  00BF                     	ds	2
  1232                           	global	temperature@d
  1233  00C1                     temperature@d:	; 2 bytes @ 0x21
  1234  00C1                     	ds	2
  1235                           	global	temperature@w1
  1236  00C3                     temperature@w1:	; 3 bytes @ 0x23
  1237  00C3                     	ds	3
  1238                           	global	temperature@w
  1239  00C6                     temperature@w:	; 2 bytes @ 0x26
  1240  00C6                     	ds	2
  1241                           psect	cstackCOMMON,class=COMMON,space=1
  1242                           global __pcstackCOMMON
  1243  0076                     __pcstackCOMMON:
  1244                           	global	??___ftneg
  1245  0076                     ??___ftneg: ;@ 0x0
  1246                           	global	??_pulse
  1247  0076                     ??_pulse: ;@ 0x0
  1248                           	global	??_command
  1249  0076                     ??_command: ;@ 0x0
  1250                           	global	??_data
  1251  0076                     ??_data: ;@ 0x0
  1252                           	global	??___ftpack
  1253  0076                     ??___ftpack: ;@ 0x0
  1254                           	global	??___awmod
  1255  0076                     ??___awmod: ;@ 0x0
  1256                           	global	?_pulse
  1257  0076                     ?_pulse: ;@ 0x0
  1258                           	global	??_delay
  1259  0076                     ??_delay: ;@ 0x0
  1260                           	global	data@data
  1261  0076                     data@data:	; 1 bytes @ 0x0
  1262                           	global	?___ftneg
  1263  0076                     ?___ftneg: ;@ 0x0
  1264                           	global	command@data
  1265  0076                     command@data:	; 1 bytes @ 0x0
  1266                           	global	___ftneg@f1
  1267  0076                     ___ftneg@f1:	; 3 bytes @ 0x0
  1268  0076                     	ds	1
  1269                           	global	??___awdiv
  1270  0077                     ??___awdiv: ;@ 0x1
  1271                           	global	??_string
  1272  0077                     ??_string: ;@ 0x1
  1273                           	global	?_command
  1274  0077                     ?_command: ;@ 0x1
  1275                           	global	??_tmr
  1276  0077                     ??_tmr: ;@ 0x1
  1277                           	global	?_data
  1278  0077                     ?_data: ;@ 0x1
  1279  0077                     	ds	1
  1280                           	global	??_count
  1281  0078                     ??_count: ;@ 0x2
  1282                           	global	?_string
  1283  0078                     ?_string: ;@ 0x2
  1284                           	global	?_tmr
  1285  0078                     ?_tmr: ;@ 0x2
  1286                           	global	??_lift
  1287  0078                     ??_lift: ;@ 0x2
  1288                           	global	?_adc
  1289  0078                     ?_adc: ;@ 0x2
  1290  0078                     	ds	1
  1291                           	global	?_lift
  1292  0079                     ?_lift: ;@ 0x3
  1293                           	global	??___awtoft
  1294  0079                     ??___awtoft: ;@ 0x3
  1295  0079                     	ds	2
  1296                           psect	cstackBANK0,class=BANK0,space=1
  1297                           global __pcstackBANK0
  1298  0020                     __pcstackBANK0:
  1299                           	global	?_delay
  1300  0020                     ?_delay: ;@ 0x0
  1301                           	global	?___ftpack
  1302  0020                     ?___ftpack: ;@ 0x0
  1303                           	global	___awmod@sign
  1304  0020                     ___awmod@sign:	; 1 bytes @ 0x0
  1305                           	global	delay@x
  1306  0020                     delay@x:	; 2 bytes @ 0x0
  1307                           	global	___ftpack@arg
  1308  0020                     ___ftpack@arg:	; 3 bytes @ 0x0
  1309  0020                     	ds	1
  1310                           	global	___awmod@counter
  1311  0021                     ___awmod@counter:	; 1 bytes @ 0x1
  1312  0021                     	ds	1
  1313                           	global	?___awmod
  1314  0022                     ?___awmod: ;@ 0x2
  1315                           	global	string@ptr
  1316  0022                     string@ptr:	; 1 bytes @ 0x2
  1317                           	global	___awmod@dividend
  1318  0022                     ___awmod@dividend:	; 2 bytes @ 0x2
  1319  0022                     	ds	1
  1320                           	global	___ftpack@exp
  1321  0023                     ___ftpack@exp:	; 1 bytes @ 0x3
  1322  0023                     	ds	1
  1323                           	global	___ftpack@sign
  1324  0024                     ___ftpack@sign:	; 1 bytes @ 0x4
  1325                           	global	___awmod@divisor
  1326  0024                     ___awmod@divisor:	; 2 bytes @ 0x4
  1327  0024                     	ds	1
  1328                           	global	??___ftadd
  1329  0025                     ??___ftadd: ;@ 0x5
  1330                           	global	___awtoft@sign
  1331  0025                     ___awtoft@sign:	; 1 bytes @ 0x5
  1332  0025                     	ds	1
  1333                           	global	___awdiv@counter
  1334  0026                     ___awdiv@counter:	; 1 bytes @ 0x6
  1335                           	global	?___awtoft
  1336  0026                     ?___awtoft: ;@ 0x6
  1337                           	global	___awtoft@c
  1338  0026                     ___awtoft@c:	; 2 bytes @ 0x6
  1339  0026                     	ds	1
  1340                           	global	___awdiv@sign
  1341  0027                     ___awdiv@sign:	; 1 bytes @ 0x7
  1342  0027                     	ds	1
  1343                           	global	___ftadd@sign
  1344  0028                     ___ftadd@sign:	; 1 bytes @ 0x8
  1345                           	global	___awdiv@quotient
  1346  0028                     ___awdiv@quotient:	; 2 bytes @ 0x8
  1347  0028                     	ds	1
  1348                           	global	??___ftmul
  1349  0029                     ??___ftmul: ;@ 0x9
  1350                           	global	??_main
  1351  0029                     ??_main: ;@ 0x9
  1352                           	global	___ftadd@exp2
  1353  0029                     ___ftadd@exp2:	; 1 bytes @ 0x9
  1354  0029                     	ds	1
  1355                           	global	?___awdiv
  1356  002A                     ?___awdiv: ;@ 0xA
  1357                           	global	___ftadd@exp1
  1358  002A                     ___ftadd@exp1:	; 1 bytes @ 0xA
  1359                           	global	___awdiv@dividend
  1360  002A                     ___awdiv@dividend:	; 2 bytes @ 0xA
  1361  002A                     	ds	1
  1362                           	global	?___ftadd
  1363  002B                     ?___ftadd: ;@ 0xB
  1364                           	global	___ftadd@f1
  1365  002B                     ___ftadd@f1:	; 3 bytes @ 0xB
  1366  002B                     	ds	1
  1367                           	global	___awdiv@divisor
  1368  002C                     ___awdiv@divisor:	; 2 bytes @ 0xC
  1369  002C                     	ds	1
  1370                           	global	___ftmul@exp
  1371  002D                     ___ftmul@exp:	; 1 bytes @ 0xD
  1372  002D                     	ds	1
  1373                           	global	___ftmul@f3_as_product
  1374  002E                     ___ftmul@f3_as_product:	; 3 bytes @ 0xE
  1375                           	global	___ftadd@f2
  1376  002E                     ___ftadd@f2:	; 3 bytes @ 0xE
  1377  002E                     	ds	3
  1378                           	global	___ftmul@cntr
  1379  0031                     ___ftmul@cntr:	; 1 bytes @ 0x11
  1380  0031                     	ds	1
  1381                           	global	___ftmul@sign
  1382  0032                     ___ftmul@sign:	; 1 bytes @ 0x12
  1383  0032                     	ds	1
  1384                           	global	?___ftmul
  1385  0033                     ?___ftmul: ;@ 0x13
  1386                           	global	___ftmul@f1
  1387  0033                     ___ftmul@f1:	; 3 bytes @ 0x13
  1388  0033                     	ds	3
  1389                           	global	?_count
  1390  0036                     ?_count: ;@ 0x16
  1391                           	global	count@i
  1392  0036                     count@i:	; 2 bytes @ 0x16
  1393                           	global	___ftmul@f2
  1394  0036                     ___ftmul@f2:	; 3 bytes @ 0x16
  1395  0036                     	ds	2
  1396                           	global	??_adc
  1397  0038                     ??_adc: ;@ 0x18
  1398  0038                     	ds	1
  1399                           	global	??___ftdiv
  1400  0039                     ??___ftdiv: ;@ 0x19
  1401                           	global	??___fttol
  1402  0039                     ??___fttol: ;@ 0x19
  1403  0039                     	ds	3
  1404                           	global	___fttol@sign1
  1405  003C                     ___fttol@sign1:	; 1 bytes @ 0x1C
  1406  003C                     	ds	1
  1407                           	global	___ftdiv@cntr
  1408  003D                     ___ftdiv@cntr:	; 1 bytes @ 0x1D
  1409                           	global	___fttol@lval
  1410  003D                     ___fttol@lval:	; 4 bytes @ 0x1D
  1411  003D                     	ds	1
  1412                           	global	___ftdiv@f3
  1413  003E                     ___ftdiv@f3:	; 3 bytes @ 0x1E
  1414  003E                     	ds	3
  1415                           	global	___ftdiv@exp
  1416  0041                     ___ftdiv@exp:	; 1 bytes @ 0x21
  1417                           	global	___fttol@exp1
  1418  0041                     ___fttol@exp1:	; 1 bytes @ 0x21
  1419  0041                     	ds	1
  1420                           	global	___ftdiv@sign
  1421  0042                     ___ftdiv@sign:	; 1 bytes @ 0x22
  1422                           	global	___fttol@f1
  1423  0042                     ___fttol@f1:	; 3 bytes @ 0x22
  1424                           	global	?___fttol
  1425  0042                     ?___fttol: ;@ 0x22
  1426  0042                     	ds	1
  1427                           	global	?___ftdiv
  1428  0043                     ?___ftdiv: ;@ 0x23
  1429                           	global	___ftdiv@f1
  1430  0043                     ___ftdiv@f1:	; 3 bytes @ 0x23
  1431  0043                     	ds	3
  1432                           	global	___ftdiv@f2
  1433  0046                     ___ftdiv@f2:	; 3 bytes @ 0x26
  1434  0046                     	ds	3
  1435                           	global	??_temperature
  1436  0049                     ??_temperature: ;@ 0x29
  1437  0049                     	ds	1
  1438                           	global	?_main
  1439  004A                     ?_main: ;@ 0x2A
  1440                           	global	?_temperature
  1441  004A                     ?_temperature: ;@ 0x2A
  1442                           ;Data sizes: Strings 115, constant 0, data 0, bss 16, persistent 0 stack 0
  1443                           ;Auto spaces:   Size  Autos    Used
  1444                           ; COMMON          14      5      11
  1445                           ; BANK0           80     42      52
  1446                           ; BANK1           80     40      40
  1447                           ; BANK3           96      0       0
  1448                           ; BANK2           96      0       0
  1449                           
  1450                           
  1451                           ;Pointer list with targets:
  1452                           
  1453                           ;string@ptr	PTR unsigned char  size(1); Largest target is 13
  1454                           ;		 -> STR_8(CODE[12]), STR_1(CODE[13]), STR_3(CODE[13]), STR_2(CODE[13]), 
  1455                           ;		 -> STR_4(CODE[13]), STR_7(CODE[13]), STR_5(CODE[13]), STR_6(CODE[12]), 
  1456                           ;		 -> STR_12(CODE[12]), STR_9(CODE[13]), STR_10(CODE[12]), STR_11(CODE[13]), 
  1457                           ;?___fttol	long  size(1); Largest target is 0
  1458                           ;?___ftadd	float  size(1); Largest target is 0
  1459                           ;?___ftneg	float  size(1); Largest target is 0
  1460                           ;?___awtoft	float  size(1); Largest target is 0
  1461                           ;?___ftmul	float  size(1); Largest target is 0
  1462                           ;?___ftdiv	float  size(1); Largest target is 0
  1463                           ;?___awdiv	int  size(1); Largest target is 0
  1464                           ;?___awmod	int  size(1); Largest target is 0
  1465                           ;?___ftpack	float  size(1); Largest target is 0
  1466                           
  1467                           
  1468                           ;Main: autosize = 0, tempsize = 0, incstack = 0, save=0
  1469                           
  1470                           
  1471                           ;Call graph:                      Base Space Used Autos Args Refs Density
  1472                           ;_main                                                0    0 10161   0.00
  1473                           ;            _command
  1474                           ;               _lift
  1475                           ;                _adc
  1476                           ;        _temperature
  1477                           ;                _tmr
  1478                           ;  _lift                                              1    0  147   0.00
  1479                           ;                                    2 COMMO    1
  1480                           ;            _command
  1481                           ;             _string
  1482                           ;  _temperature                                      61    0 8805   0.00
  1483                           ;                                   41 BANK0    1
  1484                           ;                                    0 BANK1   40
  1485                           ;           ___awtoft
  1486                           ;            ___ftmul
  1487                           ;            ___ftdiv
  1488                           ;            ___ftadd
  1489                           ;            ___fttol
  1490                           ;            ___awdiv
  1491                           ;            ___awmod
  1492                           ;            _command
  1493                           ;               _data
  1494                           ;            ___ftneg
  1495                           ;  _adc                                               2    0 1014   0.00
  1496                           ;                                   24 BANK0    2
  1497                           ;              _count
  1498                           ;  _tmr                                               0    0  147   0.00
  1499                           ;            _command
  1500                           ;             _string
  1501                           ;    ___ftmul                                        10    6  993   0.00
  1502                           ;                                    9 BANK0   16
  1503                           ;           ___awtoft (ARG)
  1504                           ;           ___ftpack
  1505                           ;    ___ftadd                                         6    6 1248   0.00
  1506                           ;                                    5 BANK0   12
  1507                           ;            ___ftneg (ARG)
  1508                           ;           ___ftpack
  1509                           ;    ___awtoft                                        3    3  354   0.00
  1510                           ;                                    3 COMMO    2
  1511                           ;                                    5 BANK0    4
  1512                           ;           ___ftpack
  1513                           ;    ___ftdiv                                        10    6 1932   0.00
  1514                           ;                                   25 BANK0   16
  1515                           ;            ___ftmul (ARG)
  1516                           ;           ___awtoft (ARG)
  1517                           ;           ___ftpack
  1518                           ;    ___ftneg                                         0    3   33   0.00
  1519                           ;                                    0 COMMO    3
  1520                           ;    _command                                         1    0   48   0.00
  1521                           ;                                    0 COMMO    1
  1522                           ;              _pulse
  1523                           ;    _string                                          2    0   99   0.00
  1524                           ;                                    1 COMMO    1
  1525                           ;                                    2 BANK0    1
  1526                           ;               _data
  1527                           ;    _count                                           8    2 1014   0.00
  1528                           ;                                   14 BANK0   10
  1529                           ;            ___awdiv
  1530                           ;            ___awmod
  1531                           ;    ___fttol                                         9    4 2460   0.00
  1532                           ;                                   25 BANK0   13
  1533                           ;            ___ftadd (ARG)
  1534                           ;            ___ftneg (ARG)
  1535                           ;            ___ftmul (ARG)
  1536                           ;      ___awdiv                                       5    4  564   0.00
  1537                           ;                                    1 COMMO    1
  1538                           ;                                    6 BANK0    8
  1539                           ;            ___awmod (ARG)
  1540                           ;      _data                                          1    0   48   0.00
  1541                           ;                                    0 COMMO    1
  1542                           ;              _pulse
  1543                           ;      ___ftpack                                      3    5  249   0.00
  1544                           ;                                    0 COMMO    3
  1545                           ;                                    0 BANK0    5
  1546                           ;      ___awmod                                       3    4  342   0.00
  1547                           ;                                    0 COMMO    1
  1548                           ;                                    0 BANK0    6
  1549                           ;        _pulse                                       0    0   24   0.00
  1550                           ;              _delay
  1551                           ;          _delay                                     0    2   24   0.00
  1552                           ;                                    0 BANK0    2
  1553                           ; Estimated maximum call depth 5
  1554                           ; Address spaces:
  1555                           
  1556                           ;Name               Size   Autos  Total    Cost      Usage
  1557                           ;BITCOMMON            E      0       0       0        0.0%
  1558                           ;CODE                 0      0       0       0        0.0%
  1559                           ;NULL                 0      0       0       0        0.0%
  1560                           ;COMMON               E      5       B       1       78.6%
  1561                           ;SFR0                 0      0       0       1        0.0%
  1562                           ;BITSFR0              0      0       0       1        0.0%
  1563                           ;BITSFR1              0      0       0       2        0.0%
  1564                           ;SFR1                 0      0       0       2        0.0%
  1565                           ;ABS                  0      0      67       2        0.0%
  1566                           ;STACK                0      0       0       3        0.0%
  1567                           ;BITBANK0            50      0       0       4        0.0%
  1568                           ;SFR3                 0      0       0       4        0.0%
  1569                           ;BITSFR3              0      0       0       4        0.0%
  1570                           ;BANK0               50     2A      34       5       65.0%
  1571                           ;BITSFR2              0      0       0       5        0.0%
  1572                           ;SFR2                 0      0       0       5        0.0%
  1573                           ;BITBANK1            50      0       0       6        0.0%
  1574                           ;BANK1               50     28      28       7       50.0%
  1575                           ;BITBANK3            60      0       0       8        0.0%
  1576                           ;BANK3               60      0       0       9        0.0%
  1577                           ;BITBANK2            60      0       0      10        0.0%
  1578                           ;BANK2               60      0       0      11        0.0%
  1579                           ;DATA                 0      0      67      12        0.0%
  1580                           ;EEDATA             100      0       0    1000        0.0%
  1581                           
  1582                           	global	_main
  1583                           psect	maintext,local,class=CODE,delta=2
  1584                           global __pmaintext
  1585  0C82                     __pmaintext:
  1586                           
  1587                           ; *************** function _main *****************
  1588                           ; Defined at:
  1589                           ;		line 607 in file "C:\Users\gowth\Documents\PIC Programs\LIFT\LIFT.c"
  1590                           ; Parameters:    Size  Location     Type
  1591                           ;		None
  1592                           ; Auto vars:     Size  Location     Type
  1593                           ;		None
  1594                           ; Return value:  Size  Location     Type
  1595                           ;		None               void
  1596                           ; Registers used:
  1597                           ;		wreg, status,2, status,0, pclath, cstack
  1598                           ; Tracked objects:
  1599                           ;		On entry : 17F/0
  1600                           ;		On exit  : 0/0
  1601                           ;		Unchanged: 0/0
  1602                           ; Data sizes:     COMMON   BANK0   BANK1   BANK3   BANK2
  1603                           ;      Locals:         0       0       0       0       0
  1604                           ;      Temp:     0
  1605                           ;      Total:    0
  1606                           ; This function calls:
  1607                           ;		_command
  1608                           ;		_lift
  1609                           ;		_adc
  1610                           ;		_temperature
  1611                           ;		_tmr
  1612                           ; This function is called by:
  1613                           ;		Startup code after reset
  1614                           ; This function uses a non-reentrant model
  1615                           ; 
  1616                           psect	maintext
  1617                           	file	"C:\Users\gowth\Documents\PIC Programs\LIFT\LIFT.c"
  1618                           	line	607
  1619                           	global	__size_of_main
  1620  007D                     	__size_of_main	equ	__end_of_main-_main
  1621                           ;LIFT.c: 606: void main()
  1622                           ;LIFT.c: 607: {
  1623                           	
  1624  0C82                     _main:	
  1625                           	opt stack 7
  1626                           ; Regs used in _main: [wreg+status,2+status,0+pclath+cstack]
  1627                           	line	608
  1628                           	
  1629  0C82                     l30001599:	
  1630                           ;LIFT.c: 608: TRISA=0XFF; PORTA=0X00;
  1631  0C82  30FF               	movlw	(0FFh)
  1632  0C83  1683               	bsf	status, 5	;RP0=1, select bank1
  1633  0C84  1303               	bcf	status, 6	;RP1=0, select bank1
  1634  0C85  0085               	movwf	(133)^080h	;volatile
  1635                           	
  1636  0C86                     l30001600:	
  1637  0C86  1003               	clrc
  1638  0C87  3000               	movlw	0
  1639  0C88  1803               	btfsc	status,0
  1640  0C89  3001               	movlw	1
  1641  0C8A  1283               	bcf	status, 5	;RP0=0, select bank0
  1642  0C8B  1303               	bcf	status, 6	;RP1=0, select bank0
  1643  0C8C  0085               	movwf	(5)	;volatile
  1644                           	
  1645  0C8D                     l30001601:	
  1646                           	line	609
  1647                           ;LIFT.c: 609: TRISB=0XF3; PORTB=0X00;
  1648  0C8D  30F3               	movlw	(0F3h)
  1649  0C8E  1683               	bsf	status, 5	;RP0=1, select bank1
  1650  0C8F  1303               	bcf	status, 6	;RP1=0, select bank1
  1651  0C90  0086               	movwf	(134)^080h	;volatile
  1652  0C91  1003               	clrc
  1653  0C92  3000               	movlw	0
  1654  0C93  1803               	btfsc	status,0
  1655  0C94  3001               	movlw	1
  1656  0C95  1283               	bcf	status, 5	;RP0=0, select bank0
  1657  0C96  1303               	bcf	status, 6	;RP1=0, select bank0
  1658  0C97  0086               	movwf	(6)	;volatile
  1659                           	line	610
  1660                           ;LIFT.c: 610: TRISC=0X00; PORTC=0X00;
  1661  0C98  1003               	clrc
  1662  0C99  3000               	movlw	0
  1663  0C9A  1803               	btfsc	status,0
  1664  0C9B  3001               	movlw	1
  1665  0C9C  1683               	bsf	status, 5	;RP0=1, select bank1
  1666  0C9D  1303               	bcf	status, 6	;RP1=0, select bank1
  1667  0C9E  0087               	movwf	(135)^080h	;volatile
  1668  0C9F  1003               	clrc
  1669  0CA0  3000               	movlw	0
  1670  0CA1  1803               	btfsc	status,0
  1671  0CA2  3001               	movlw	1
  1672  0CA3  1283               	bcf	status, 5	;RP0=0, select bank0
  1673  0CA4  1303               	bcf	status, 6	;RP1=0, select bank0
  1674  0CA5  0087               	movwf	(7)	;volatile
  1675                           	line	611
  1676                           ;LIFT.c: 611: TRISD=0X00; PORTD=0X00;
  1677  0CA6  1003               	clrc
  1678  0CA7  3000               	movlw	0
  1679  0CA8  1803               	btfsc	status,0
  1680  0CA9  3001               	movlw	1
  1681  0CAA  1683               	bsf	status, 5	;RP0=1, select bank1
  1682  0CAB  1303               	bcf	status, 6	;RP1=0, select bank1
  1683  0CAC  0088               	movwf	(136)^080h	;volatile
  1684  0CAD  1003               	clrc
  1685  0CAE  3000               	movlw	0
  1686  0CAF  1803               	btfsc	status,0
  1687  0CB0  3001               	movlw	1
  1688  0CB1  1283               	bcf	status, 5	;RP0=0, select bank0
  1689  0CB2  1303               	bcf	status, 6	;RP1=0, select bank0
  1690  0CB3  0088               	movwf	(8)	;volatile
  1691                           	line	612
  1692                           ;LIFT.c: 612: TRISE=0X00; PORTE=0X00;
  1693  0CB4  1003               	clrc
  1694  0CB5  3000               	movlw	0
  1695  0CB6  1803               	btfsc	status,0
  1696  0CB7  3001               	movlw	1
  1697  0CB8  1683               	bsf	status, 5	;RP0=1, select bank1
  1698  0CB9  1303               	bcf	status, 6	;RP1=0, select bank1
  1699  0CBA  0089               	movwf	(137)^080h	;volatile
  1700  0CBB  1003               	clrc
  1701  0CBC  3000               	movlw	0
  1702  0CBD  1803               	btfsc	status,0
  1703  0CBE  3001               	movlw	1
  1704  0CBF  1283               	bcf	status, 5	;RP0=0, select bank0
  1705  0CC0  1303               	bcf	status, 6	;RP1=0, select bank0
  1706  0CC1  0089               	movwf	(9)	;volatile
  1707                           	
  1708  0CC2                     l30001602:	
  1709                           	line	614
  1710                           ;LIFT.c: 614: ANSEL=0X03; ANSELH=0X00;
  1711  0CC2  3003               	movlw	(03h)
  1712  0CC3  1683               	bsf	status, 5	;RP0=1, select bank3
  1713  0CC4  1703               	bsf	status, 6	;RP1=1, select bank3
  1714  0CC5  0088               	movwf	(392)^0180h
  1715                           	
  1716  0CC6                     l30001603:	
  1717  0CC6  1003               	clrc
  1718  0CC7  3000               	movlw	0
  1719  0CC8  1803               	btfsc	status,0
  1720  0CC9  3001               	movlw	1
  1721  0CCA  0089               	movwf	(393)^0180h
  1722                           	
  1723  0CCB                     l30001604:	
  1724                           	line	616
  1725                           ;LIFT.c: 616: command(0X0C);
  1726  0CCB  300C               	movlw	(0Ch)
  1727  0CCC  120A  158A  223B   	fcall	_command
              120A  158A         
  1728                           	
  1729  0CD1                     l30001605:	
  1730                           	line	617
  1731                           ;LIFT.c: 617: command(0X38);
  1732  0CD1  3038               	movlw	(038h)
  1733  0CD2  120A  158A  223B   	fcall	_command
              120A  158A         
  1734                           	line	619
  1735                           ;LIFT.c: 619: OPTION=0X85;
  1736  0CD7  3085               	movlw	(085h)
  1737  0CD8  1683               	bsf	status, 5	;RP0=1, select bank1
  1738  0CD9  1303               	bcf	status, 6	;RP1=0, select bank1
  1739  0CDA  0081               	movwf	(129)^080h
  1740                           	
  1741  0CDB                     l30001606:	
  1742                           	line	625
  1743                           ;LIFT.c: 623: {
  1744                           ;LIFT.c: 625: if(RB0==1)
  1745  0CDB  1283               	bcf	status, 5	;RP0=0, select bank0
  1746  0CDC  1303               	bcf	status, 6	;RP1=0, select bank0
  1747  0CDD  1C06               	btfss	(48/8),(48)&7
  1748  0CDE  2CE0               	goto	u2981
  1749  0CDF  2CE1               	goto	u2980
  1750  0CE0                     u2981:
  1751  0CE0  2CF0               	goto	l30001608
  1752  0CE1                     u2980:
  1753                           	
  1754  0CE1                     l30001607:	
  1755                           	line	627
  1756                           ;LIFT.c: 626: {
  1757                           ;LIFT.c: 627: lift();
  1758  0CE1  120A  158A  25CF   	fcall	_lift
              120A  158A         
  1759                           	line	628
  1760                           ;LIFT.c: 628: adc();
  1761  0CE6  120A  158A  273F   	fcall	_adc
              120A  158A         
  1762                           	line	630
  1763                           ;LIFT.c: 630: temperature();
  1764  0CEB  120A  118A  23F0   	fcall	_temperature
              120A  158A         
  1765                           	
  1766  0CF0                     l30001608:	
  1767                           	line	636
  1768                           ;LIFT.c: 633: }
  1769                           ;LIFT.c: 636: if(RB1==1)
  1770  0CF0  1283               	bcf	status, 5	;RP0=0, select bank0
  1771  0CF1  1303               	bcf	status, 6	;RP1=0, select bank0
  1772  0CF2  1C86               	btfss	(49/8),(49)&7
  1773  0CF3  2CF5               	goto	u2991
  1774  0CF4  2CF6               	goto	u2990
  1775  0CF5                     u2991:
  1776  0CF5  2CDB               	goto	l30001606
  1777  0CF6                     u2990:
  1778                           	
  1779  0CF6                     l30001609:	
  1780                           	line	640
  1781                           ;LIFT.c: 637: {
  1782                           ;LIFT.c: 640: tmr();
  1783  0CF6  120A  118A  227B   	fcall	_tmr
              120A  158A         
  1784  0CFB  2CDB               	goto	l30001606
  1785                           	global	start
  1786  0CFC  120A  118A  2800   	ljmp	start
  1787                           	opt stack 0
  1788                           GLOBAL	__end_of_main
  1789  0CFF                     	__end_of_main:
  1790                           ; =============== function _main ends ============
  1791                           
  1792                           psect	maintext
  1793                           	line	645
  1794                           	signat	_main,88
  1795                           	global	_lift
  1796                           psect	text149,local,class=CODE,delta=2
  1797                           global __ptext149
  1798  0DCF                     __ptext149:
  1799                           
  1800                           ; *************** function _lift *****************
  1801                           ; Defined at:
  1802                           ;		line 70 in file "C:\Users\gowth\Documents\PIC Programs\LIFT\LIFT.c"
  1803                           ; Parameters:    Size  Location     Type
  1804                           ;		None
  1805                           ; Auto vars:     Size  Location     Type
  1806                           ;		None
  1807                           ; Return value:  Size  Location     Type
  1808                           ;		None               void
  1809                           ; Registers used:
  1810                           ;		wreg, status,2, status,0, pclath, cstack
  1811                           ; Tracked objects:
  1812                           ;		On entry : 0/0
  1813                           ;		On exit  : 0/0
  1814                           ;		Unchanged: 0/0
  1815                           ; Data sizes:     COMMON   BANK0   BANK1   BANK3   BANK2
  1816                           ;      Locals:         1       0       0       0       0
  1817                           ;      Temp:     1
  1818                           ;      Total:    1
  1819                           ; This function calls:
  1820                           ;		_command
  1821                           ;		_string
  1822                           ; This function is called by:
  1823                           ;		_main
  1824                           ; This function uses a non-reentrant model
  1825                           ; 
  1826                           psect	text149
  1827                           	file	"C:\Users\gowth\Documents\PIC Programs\LIFT\LIFT.c"
  1828                           	line	70
  1829                           	global	__size_of_lift
  1830  00B5                     	__size_of_lift	equ	__end_of_lift-_lift
  1831                           ;LIFT.c: 69: void lift()
  1832                           ;LIFT.c: 70: {
  1833                           	
  1834  0DCF                     _lift:	
  1835                           	opt stack 6
  1836                           ; Regs used in _lift: [wreg+status,2+status,0+pclath+cstack]
  1837                           	line	71
  1838                           	
  1839  0DCF                     l30001638:	
  1840                           ;LIFT.c: 71: if(RA4==1)
  1841  0DCF  1283               	bcf	status, 5	;RP0=0, select bank0
  1842  0DD0  1303               	bcf	status, 6	;RP1=0, select bank0
  1843  0DD1  1E05               	btfss	(44/8),(44)&7
  1844  0DD2  2DD4               	goto	u3091
  1845  0DD3  2DD5               	goto	u3090
  1846  0DD4                     u3091:
  1847  0DD4  2DE5               	goto	l30001642
  1848  0DD5                     u3090:
  1849                           	
  1850  0DD5                     l30001639:	
  1851                           	line	73
  1852                           ;LIFT.c: 72: {
  1853                           ;LIFT.c: 73: input=1;
  1854  0DD5  3001               	movlw	low(01h)
  1855  0DD6  00CC               	movwf	(_input)
  1856  0DD7  3000               	movlw	high(01h)
  1857  0DD8  00CD               	movwf	((_input))+1
  1858                           	
  1859  0DD9                     l30001640:	
  1860                           	line	75
  1861                           ;LIFT.c: 75: command(0X80);
  1862  0DD9  3080               	movlw	(080h)
  1863  0DDA  120A  158A  223B   	fcall	_command
              120A  158A         
  1864                           	
  1865  0DDF                     l30001641:	
  1866                           	line	76
  1867                           ;LIFT.c: 76: string("GOING TO 1ST");
  1868  0DDF  3042               	movlw	((STR_1-__stringbase))&0ffh
  1869  0DE0  120A  118A  2003   	fcall	_string
              120A  158A         
  1870                           	
  1871  0DE5                     l30001642:	
  1872                           	line	79
  1873                           ;LIFT.c: 77: }
  1874                           ;LIFT.c: 79: if(RA5==1)
  1875  0DE5  1283               	bcf	status, 5	;RP0=0, select bank0
  1876  0DE6  1303               	bcf	status, 6	;RP1=0, select bank0
  1877  0DE7  1E85               	btfss	(45/8),(45)&7
  1878  0DE8  2DEA               	goto	u3101
  1879  0DE9  2DEB               	goto	u3100
  1880  0DEA                     u3101:
  1881  0DEA  2DFB               	goto	l30001646
  1882  0DEB                     u3100:
  1883                           	
  1884  0DEB                     l30001643:	
  1885                           	line	81
  1886                           ;LIFT.c: 80: {
  1887                           ;LIFT.c: 81: input=2;
  1888  0DEB  3002               	movlw	low(02h)
  1889  0DEC  00CC               	movwf	(_input)
  1890  0DED  3000               	movlw	high(02h)
  1891  0DEE  00CD               	movwf	((_input))+1
  1892                           	
  1893  0DEF                     l30001644:	
  1894                           	line	83
  1895                           ;LIFT.c: 83: command(0X80);
  1896  0DEF  3080               	movlw	(080h)
  1897  0DF0  120A  158A  223B   	fcall	_command
              120A  158A         
  1898                           	
  1899  0DF5                     l30001645:	
  1900                           	line	84
  1901                           ;LIFT.c: 84: string("GOING TO 2ND");
  1902  0DF5  301B               	movlw	((STR_2-__stringbase))&0ffh
  1903  0DF6  120A  118A  2003   	fcall	_string
              120A  158A         
  1904                           	
  1905  0DFB                     l30001646:	
  1906                           	line	88
  1907                           ;LIFT.c: 86: }
  1908                           ;LIFT.c: 88: if(RA6==1)
  1909  0DFB  1283               	bcf	status, 5	;RP0=0, select bank0
  1910  0DFC  1303               	bcf	status, 6	;RP1=0, select bank0
  1911  0DFD  1F05               	btfss	(46/8),(46)&7
  1912  0DFE  2E00               	goto	u3111
  1913  0DFF  2E01               	goto	u3110
  1914  0E00                     u3111:
  1915  0E00  2E11               	goto	l30001650
  1916  0E01                     u3110:
  1917                           	
  1918  0E01                     l30001647:	
  1919                           	line	90
  1920                           ;LIFT.c: 89: {
  1921                           ;LIFT.c: 90: input=3;
  1922  0E01  3003               	movlw	low(03h)
  1923  0E02  00CC               	movwf	(_input)
  1924  0E03  3000               	movlw	high(03h)
  1925  0E04  00CD               	movwf	((_input))+1
  1926                           	
  1927  0E05                     l30001648:	
  1928                           	line	92
  1929                           ;LIFT.c: 92: command(0X80);
  1930  0E05  3080               	movlw	(080h)
  1931  0E06  120A  158A  223B   	fcall	_command
              120A  158A         
  1932                           	
  1933  0E0B                     l30001649:	
  1934                           	line	93
  1935                           ;LIFT.c: 93: string("GOING TO 3RD");
  1936  0E0B  3028               	movlw	((STR_3-__stringbase))&0ffh
  1937  0E0C  120A  118A  2003   	fcall	_string
              120A  158A         
  1938                           	
  1939  0E11                     l30001650:	
  1940                           	line	97
  1941                           ;LIFT.c: 95: }
  1942                           ;LIFT.c: 97: if(RA7==1)
  1943  0E11  1283               	bcf	status, 5	;RP0=0, select bank0
  1944  0E12  1303               	bcf	status, 6	;RP1=0, select bank0
  1945  0E13  1F85               	btfss	(47/8),(47)&7
  1946  0E14  2E16               	goto	u3121
  1947  0E15  2E17               	goto	u3120
  1948  0E16                     u3121:
  1949  0E16  2E27               	goto	l30001654
  1950  0E17                     u3120:
  1951                           	
  1952  0E17                     l30001651:	
  1953                           	line	99
  1954                           ;LIFT.c: 98: {
  1955                           ;LIFT.c: 99: input=4;
  1956  0E17  3004               	movlw	low(04h)
  1957  0E18  00CC               	movwf	(_input)
  1958  0E19  3000               	movlw	high(04h)
  1959  0E1A  00CD               	movwf	((_input))+1
  1960                           	
  1961  0E1B                     l30001652:	
  1962                           	line	101
  1963                           ;LIFT.c: 101: command(0X80);
  1964  0E1B  3080               	movlw	(080h)
  1965  0E1C  120A  158A  223B   	fcall	_command
              120A  158A         
  1966                           	
  1967  0E21                     l30001653:	
  1968                           	line	102
  1969                           ;LIFT.c: 102: string("GOING TO 4TH");
  1970  0E21  3001               	movlw	((STR_4-__stringbase))&0ffh
  1971  0E22  120A  118A  2003   	fcall	_string
              120A  158A         
  1972                           	
  1973  0E27                     l30001654:	
  1974                           	line	108
  1975                           ;LIFT.c: 104: }
  1976                           ;LIFT.c: 108: if(RB4==1)
  1977  0E27  1283               	bcf	status, 5	;RP0=0, select bank0
  1978  0E28  1303               	bcf	status, 6	;RP1=0, select bank0
  1979  0E29  1E06               	btfss	(52/8),(52)&7
  1980  0E2A  2E2C               	goto	u3131
  1981  0E2B  2E2D               	goto	u3130
  1982  0E2C                     u3131:
  1983  0E2C  2E31               	goto	l30001656
  1984  0E2D                     u3130:
  1985                           	
  1986  0E2D                     l30001655:	
  1987                           	line	110
  1988                           ;LIFT.c: 109: {
  1989                           ;LIFT.c: 110: output=1;
  1990  0E2D  3001               	movlw	low(01h)
  1991  0E2E  00D2               	movwf	(_output)
  1992  0E2F  3000               	movlw	high(01h)
  1993  0E30  00D3               	movwf	((_output))+1
  1994                           	
  1995  0E31                     l30001656:	
  1996                           	line	115
  1997                           ;LIFT.c: 113: }
  1998                           ;LIFT.c: 115: if(RB5==1)
  1999  0E31  1E86               	btfss	(53/8),(53)&7
  2000  0E32  2E34               	goto	u3141
  2001  0E33  2E35               	goto	u3140
  2002  0E34                     u3141:
  2003  0E34  2E39               	goto	l30001658
  2004  0E35                     u3140:
  2005                           	
  2006  0E35                     l30001657:	
  2007                           	line	117
  2008                           ;LIFT.c: 116: {
  2009                           ;LIFT.c: 117: output=2;
  2010  0E35  3002               	movlw	low(02h)
  2011  0E36  00D2               	movwf	(_output)
  2012  0E37  3000               	movlw	high(02h)
  2013  0E38  00D3               	movwf	((_output))+1
  2014                           	
  2015  0E39                     l30001658:	
  2016                           	line	122
  2017                           ;LIFT.c: 120: }
  2018                           ;LIFT.c: 122: if(RB6==1)
  2019  0E39  1F06               	btfss	(54/8),(54)&7
  2020  0E3A  2E3C               	goto	u3151
  2021  0E3B  2E3D               	goto	u3150
  2022  0E3C                     u3151:
  2023  0E3C  2E41               	goto	l30001660
  2024  0E3D                     u3150:
  2025                           	
  2026  0E3D                     l30001659:	
  2027                           	line	124
  2028                           ;LIFT.c: 123: {
  2029                           ;LIFT.c: 124: output=3;
  2030  0E3D  3003               	movlw	low(03h)
  2031  0E3E  00D2               	movwf	(_output)
  2032  0E3F  3000               	movlw	high(03h)
  2033  0E40  00D3               	movwf	((_output))+1
  2034                           	
  2035  0E41                     l30001660:	
  2036                           	line	129
  2037                           ;LIFT.c: 127: }
  2038                           ;LIFT.c: 129: if(RB7==1)
  2039  0E41  1F86               	btfss	(55/8),(55)&7
  2040  0E42  2E44               	goto	u3161
  2041  0E43  2E45               	goto	u3160
  2042  0E44                     u3161:
  2043  0E44  2E49               	goto	l20
  2044  0E45                     u3160:
  2045                           	
  2046  0E45                     l30001661:	
  2047                           	line	131
  2048                           ;LIFT.c: 130: {
  2049                           ;LIFT.c: 131: output=4;
  2050  0E45  3004               	movlw	low(04h)
  2051  0E46  00D2               	movwf	(_output)
  2052  0E47  3000               	movlw	high(04h)
  2053  0E48  00D3               	movwf	((_output))+1
  2054                           	
  2055  0E49                     l20:	
  2056                           	line	137
  2057                           ;LIFT.c: 134: }
  2058                           ;LIFT.c: 137: if(input>output)
  2059  0E49  0853               	movf	(_output+1),w
  2060  0E4A  3A80               	xorlw	80h
  2061  0E4B  00F8               	movwf	(??_lift+0+0)
  2062  0E4C  084D               	movf	(_input+1),w
  2063  0E4D  3A80               	xorlw	80h
  2064  0E4E  0278               	subwf	(??_lift+0+0),w
  2065  0E4F  1D03               	skipz
  2066  0E50  2E53               	goto	u3175
  2067  0E51  084C               	movf	(_input),w
  2068  0E52  0252               	subwf	(_output),w
  2069  0E53                     u3175:
  2070                           
  2071  0E53  1803               	skipnc
  2072  0E54  2E56               	goto	u3171
  2073  0E55  2E57               	goto	u3170
  2074  0E56                     u3171:
  2075  0E56  2E5D               	goto	l30001663
  2076  0E57                     u3170:
  2077                           	
  2078  0E57                     l30001662:	
  2079                           	line	139
  2080                           ;LIFT.c: 138: {
  2081                           ;LIFT.c: 139: RC0=1;
  2082  0E57  1283               	bcf	status, 5	;RP0=0, select bank0
  2083  0E58  1303               	bcf	status, 6	;RP1=0, select bank0
  2084  0E59  1407               	bsf	(56/8),(56)&7
  2085                           	line	140
  2086                           ;LIFT.c: 140: RC1=0;
  2087  0E5A  1087               	bcf	(57/8),(57)&7
  2088                           	line	141
  2089                           ;LIFT.c: 141: RB2=1;
  2090  0E5B  1506               	bsf	(50/8),(50)&7
  2091                           	line	142
  2092                           ;LIFT.c: 142: RB3=0;
  2093  0E5C  1186               	bcf	(51/8),(51)&7
  2094                           	
  2095  0E5D                     l30001663:	
  2096                           	line	145
  2097                           ;LIFT.c: 143: }
  2098                           ;LIFT.c: 145: if(input<output)
  2099  0E5D  1283               	bcf	status, 5	;RP0=0, select bank0
  2100  0E5E  1303               	bcf	status, 6	;RP1=0, select bank0
  2101  0E5F  084D               	movf	(_input+1),w
  2102  0E60  3A80               	xorlw	80h
  2103  0E61  00F8               	movwf	(??_lift+0+0)
  2104  0E62  0853               	movf	(_output+1),w
  2105  0E63  3A80               	xorlw	80h
  2106  0E64  0278               	subwf	(??_lift+0+0),w
  2107  0E65  1D03               	skipz
  2108  0E66  2E69               	goto	u3185
  2109  0E67  0852               	movf	(_output),w
  2110  0E68  024C               	subwf	(_input),w
  2111  0E69                     u3185:
  2112                           
  2113  0E69  1803               	skipnc
  2114  0E6A  2E6C               	goto	u3181
  2115  0E6B  2E6D               	goto	u3180
  2116  0E6C                     u3181:
  2117  0E6C  2E73               	goto	l30001665
  2118  0E6D                     u3180:
  2119                           	
  2120  0E6D                     l30001664:	
  2121                           	line	147
  2122                           ;LIFT.c: 146: {
  2123                           ;LIFT.c: 147: RC0=0;
  2124  0E6D  1283               	bcf	status, 5	;RP0=0, select bank0
  2125  0E6E  1303               	bcf	status, 6	;RP1=0, select bank0
  2126  0E6F  1007               	bcf	(56/8),(56)&7
  2127                           	line	148
  2128                           ;LIFT.c: 148: RC1=1;
  2129  0E70  1487               	bsf	(57/8),(57)&7
  2130                           	line	149
  2131                           ;LIFT.c: 149: RB2=1;
  2132  0E71  1506               	bsf	(50/8),(50)&7
  2133                           	line	150
  2134                           ;LIFT.c: 150: RB3=0;
  2135  0E72  1186               	bcf	(51/8),(51)&7
  2136                           	
  2137  0E73                     l30001665:	
  2138                           	line	153
  2139                           ;LIFT.c: 151: }
  2140                           ;LIFT.c: 153: if(input==output)
  2141  0E73  1283               	bcf	status, 5	;RP0=0, select bank0
  2142  0E74  1303               	bcf	status, 6	;RP1=0, select bank0
  2143  0E75  0853               	movf	(_output+1),w
  2144  0E76  064D               	xorwf	(_input+1),w
  2145  0E77  1D03               	skipz
  2146  0E78  2E7B               	goto	u3195
  2147  0E79  0852               	movf	(_output),w
  2148  0E7A  064C               	xorwf	(_input),w
  2149  0E7B                     u3195:
  2150                           
  2151  0E7B  1D03               	skipz
  2152  0E7C  2E7E               	goto	u3191
  2153  0E7D  2E7F               	goto	u3190
  2154  0E7E                     u3191:
  2155  0E7E  2E83               	goto	l12
  2156  0E7F                     u3190:
  2157                           	
  2158  0E7F                     l30001666:	
  2159                           	line	155
  2160                           ;LIFT.c: 154: {
  2161                           ;LIFT.c: 155: RC0=0;
  2162  0E7F  1007               	bcf	(56/8),(56)&7
  2163                           	line	156
  2164                           ;LIFT.c: 156: RC1=0;
  2165  0E80  1087               	bcf	(57/8),(57)&7
  2166                           	line	157
  2167                           ;LIFT.c: 157: RB2=0;
  2168  0E81  1106               	bcf	(50/8),(50)&7
  2169                           	line	158
  2170                           ;LIFT.c: 158: RB3=1;
  2171  0E82  1586               	bsf	(51/8),(51)&7
  2172                           	
  2173  0E83                     l12:	
  2174  0E83  0008               	return
  2175                           	opt stack 0
  2176                           GLOBAL	__end_of_lift
  2177  0E84                     	__end_of_lift:
  2178                           ; =============== function _lift ends ============
  2179                           
  2180                           psect	text150,local,class=CODE,delta=2
  2181                           global __ptext150
  2182  03F0                     __ptext150:
  2183                           	line	160
  2184                           	signat	_lift,88
  2185                           	global	_temperature
  2186                           
  2187                           ; *************** function _temperature *****************
  2188                           ; Defined at:
  2189                           ;		line 245 in file "C:\Users\gowth\Documents\PIC Programs\LIFT\LIFT.c"
  2190                           ; Parameters:    Size  Location     Type
  2191                           ;		None
  2192                           ; Auto vars:     Size  Location     Type
  2193                           ;  buffer         20    0        unsigned char [20]
  2194                           ;  w1              3   35[BANK1 ] float 
  2195                           ;  z               3   20[BANK1 ] float 
  2196                           ;  w               2   38[BANK1 ] int 
  2197                           ;  f1              2   23[BANK1 ] int 
  2198                           ;  f               2   29[BANK1 ] int 
  2199                           ;  d1              2   31[BANK1 ] int 
  2200                           ;  d               2   33[BANK1 ] int 
  2201                           ;  b1              2   27[BANK1 ] int 
  2202                           ;  b               2   25[BANK1 ] int 
  2203                           ;  h1              2    6[BANK1 ] int 
  2204                           ;  h               2    4[BANK1 ] int 
  2205                           ;  g1              2    8[BANK1 ] int 
  2206                           ;  g               2   12[BANK1 ] int 
  2207                           ;  e1              2   10[BANK1 ] int 
  2208                           ;  e               2   14[BANK1 ] int 
  2209                           ;  c1              2    0[BANK1 ] int 
  2210                           ;  c               2   16[BANK1 ] int 
  2211                           ;  a1              2    2[BANK1 ] int 
  2212                           ;  a               2   18[BANK1 ] int 
  2213                           ; Return value:  Size  Location     Type
  2214                           ;		None               void
  2215                           ; Registers used:
  2216                           ;		wreg, status,2, status,0, pclath, cstack
  2217                           ; Tracked objects:
  2218                           ;		On entry : 0/0
  2219                           ;		On exit  : 0/0
  2220                           ;		Unchanged: 0/0
  2221                           ; Data sizes:     COMMON   BANK0   BANK1   BANK3   BANK2
  2222                           ;      Locals:         0       1      40       0       0
  2223                           ;      Temp:     1
  2224                           ;      Total:   41
  2225                           ; This function calls:
  2226                           ;		___awtoft
  2227                           ;		___ftmul
  2228                           ;		___ftdiv
  2229                           ;		___ftadd
  2230                           ;		___fttol
  2231                           ;		___awdiv
  2232                           ;		___awmod
  2233                           ;		_command
  2234                           ;		_data
  2235                           ;		___ftneg
  2236                           ; This function is called by:
  2237                           ;		_main
  2238                           ; This function uses a non-reentrant model
  2239                           ; 
  2240                           psect	text150
  2241                           	file	"C:\Users\gowth\Documents\PIC Programs\LIFT\LIFT.c"
  2242                           	line	245
  2243                           	global	__size_of_temperature
  2244  0410                     	__size_of_temperature	equ	__end_of_temperature-_temperature
  2245                           ;LIFT.c: 244: void temperature()
  2246                           ;LIFT.c: 245: {
  2247                           	
  2248  03F0                     _temperature:	
  2249                           	opt stack 6
  2250                           ; Regs used in _temperature: [wreg+status,2+status,0+pclath+cstack]
  2251                           	line	250
  2252                           	
  2253  03F0                     l30001594:	
  2254                           ;LIFT.c: 246: int a,b,c,d,e,f,g,h,w;
  2255                           ;LIFT.c: 247: int a1,b1,c1,d1,e1,f1,g1,h1;
  2256                           ;LIFT.c: 248: float z,w1;
  2257                           ;LIFT.c: 249: char buffer[20];
  2258                           ;LIFT.c: 250: z=(DV*205.0)/1023.0;
  2259  03F0  0871               	movf	(_DV+1),w
  2260  03F1  1283               	bcf	status, 5	;RP0=0, select bank0
  2261  03F2  1303               	bcf	status, 6	;RP1=0, select bank0
  2262  03F3  01A7               	clrf	(?___awtoft+1)
  2263  03F4  07A7               	addwf	(?___awtoft+1)
  2264  03F5  0870               	movf	(_DV),w
  2265  03F6  01A6               	clrf	(?___awtoft)
  2266  03F7  07A6               	addwf	(?___awtoft)
  2267                           
  2268  03F8  120A  118A  2024   	fcall	___awtoft
              120A  118A         
  2269  03FD  1383               	bcf	status, 7	;select IRP bank0
  2270  03FE  1283               	bcf	status, 5	;RP0=0, select bank0
  2271  03FF  1303               	bcf	status, 6	;RP1=0, select bank0
  2272  0400  0826               	movf	(0+(?___awtoft)),w
  2273  0401  00B3               	movwf	(?___ftmul)
  2274  0402  0827               	movf	(1+(?___awtoft)),w
  2275  0403  00B4               	movwf	(?___ftmul+1)
  2276  0404  0828               	movf	(2+(?___awtoft)),w
  2277  0405  00B5               	movwf	(?___ftmul+2)
  2278  0406  3000               	movlw	0x0
  2279  0407  00B6               	movwf	0+(?___ftmul)+03h
  2280  0408  304D               	movlw	0x4d
  2281  0409  00B7               	movwf	1+(?___ftmul)+03h
  2282  040A  3043               	movlw	0x43
  2283  040B  00B8               	movwf	2+(?___ftmul)+03h
  2284  040C  120A  118A  2053   	fcall	___ftmul
              120A  118A         
  2285  0411  1383               	bcf	status, 7	;select IRP bank0
  2286  0412  1283               	bcf	status, 5	;RP0=0, select bank0
  2287  0413  1303               	bcf	status, 6	;RP1=0, select bank0
  2288  0414  0833               	movf	(0+(?___ftmul)),w
  2289  0415  00C3               	movwf	(?___ftdiv)
  2290  0416  0834               	movf	(1+(?___ftmul)),w
  2291  0417  00C4               	movwf	(?___ftdiv+1)
  2292  0418  0835               	movf	(2+(?___ftmul)),w
  2293  0419  00C5               	movwf	(?___ftdiv+2)
  2294  041A  30C0               	movlw	0xc0
  2295  041B  00C6               	movwf	0+(?___ftdiv)+03h
  2296  041C  307F               	movlw	0x7f
  2297  041D  00C7               	movwf	1+(?___ftdiv)+03h
  2298  041E  3044               	movlw	0x44
  2299  041F  00C8               	movwf	2+(?___ftdiv)+03h
  2300  0420  120A  158A  2684   	fcall	___ftdiv
              120A  118A         
  2301  0425  1383               	bcf	status, 7	;select IRP bank0
  2302  0426  1283               	bcf	status, 5	;RP0=0, select bank0
  2303  0427  1303               	bcf	status, 6	;RP1=0, select bank0
  2304  0428  0843               	movf	(0+(?___ftdiv)),w
  2305  0429  1683               	bsf	status, 5	;RP0=1, select bank1
  2306  042A  1303               	bcf	status, 6	;RP1=0, select bank1
  2307  042B  00B4               	movwf	(temperature@z)^080h
  2308  042C  1283               	bcf	status, 5	;RP0=0, select bank0
  2309  042D  1303               	bcf	status, 6	;RP1=0, select bank0
  2310  042E  0844               	movf	(1+(?___ftdiv)),w
  2311  042F  1683               	bsf	status, 5	;RP0=1, select bank1
  2312  0430  1303               	bcf	status, 6	;RP1=0, select bank1
  2313  0431  00B5               	movwf	(temperature@z+1)^080h
  2314  0432  1283               	bcf	status, 5	;RP0=0, select bank0
  2315  0433  1303               	bcf	status, 6	;RP1=0, select bank0
  2316  0434  0845               	movf	(2+(?___ftdiv)),w
  2317  0435  1683               	bsf	status, 5	;RP0=1, select bank1
  2318  0436  1303               	bcf	status, 6	;RP1=0, select bank1
  2319  0437  00B6               	movwf	(temperature@z+2)^080h
  2320                           	
  2321  0438                     l30001595:	
  2322                           	line	253
  2323                           ;LIFT.c: 253: if(DV>275)
  2324  0438  0871               	movf	(_DV+1),w
  2325  0439  3A80               	xorlw	80h
  2326  043A  1283               	bcf	status, 5	;RP0=0, select bank0
  2327  043B  1303               	bcf	status, 6	;RP1=0, select bank0
  2328  043C  00C9               	movwf	(??_temperature+0+0)
  2329  043D  3081               	movlw	(high(0114h))^80h
  2330  043E  0249               	subwf	(??_temperature+0+0),w
  2331  043F  1D03               	skipz
  2332  0440  2C43               	goto	u2965
  2333  0441  3014               	movlw	low(0114h)
  2334  0442  0270               	subwf	(_DV),w
  2335  0443                     u2965:
  2336                           
  2337  0443  1C03               	skipc
  2338  0444  2C46               	goto	u2961
  2339  0445  2C47               	goto	u2960
  2340  0446                     u2961:
  2341  0446  2E1A               	goto	l30001597
  2342  0447                     u2960:
  2343                           	
  2344  0447                     l30001596:	
  2345                           	line	256
  2346                           ;LIFT.c: 254: {
  2347                           ;LIFT.c: 256: w1=z*100;
  2348  0447  1683               	bsf	status, 5	;RP0=1, select bank1
  2349  0448  1303               	bcf	status, 6	;RP1=0, select bank1
  2350  0449  0834               	movf	(temperature@z)^080h,w
  2351  044A  1283               	bcf	status, 5	;RP0=0, select bank0
  2352  044B  1303               	bcf	status, 6	;RP1=0, select bank0
  2353  044C  00B3               	movwf	(?___ftmul)
  2354  044D  1683               	bsf	status, 5	;RP0=1, select bank1
  2355  044E  1303               	bcf	status, 6	;RP1=0, select bank1
  2356  044F  0835               	movf	(temperature@z+1)^080h,w
  2357  0450  1283               	bcf	status, 5	;RP0=0, select bank0
  2358  0451  1303               	bcf	status, 6	;RP1=0, select bank0
  2359  0452  00B4               	movwf	(?___ftmul+1)
  2360  0453  1683               	bsf	status, 5	;RP0=1, select bank1
  2361  0454  1303               	bcf	status, 6	;RP1=0, select bank1
  2362  0455  0836               	movf	(temperature@z+2)^080h,w
  2363  0456  1283               	bcf	status, 5	;RP0=0, select bank0
  2364  0457  1303               	bcf	status, 6	;RP1=0, select bank0
  2365  0458  00B5               	movwf	(?___ftmul+2)
  2366  0459  3000               	movlw	0x0
  2367  045A  00B6               	movwf	0+(?___ftmul)+03h
  2368  045B  30C8               	movlw	0xc8
  2369  045C  00B7               	movwf	1+(?___ftmul)+03h
  2370  045D  3042               	movlw	0x42
  2371  045E  00B8               	movwf	2+(?___ftmul)+03h
  2372  045F  120A  118A  2053   	fcall	___ftmul
              120A  118A         
  2373  0464  1383               	bcf	status, 7	;select IRP bank0
  2374  0465  1283               	bcf	status, 5	;RP0=0, select bank0
  2375  0466  1303               	bcf	status, 6	;RP1=0, select bank0
  2376  0467  0833               	movf	(0+(?___ftmul)),w
  2377  0468  1683               	bsf	status, 5	;RP0=1, select bank1
  2378  0469  1303               	bcf	status, 6	;RP1=0, select bank1
  2379  046A  00C3               	movwf	(temperature@w1)^080h
  2380  046B  1283               	bcf	status, 5	;RP0=0, select bank0
  2381  046C  1303               	bcf	status, 6	;RP1=0, select bank0
  2382  046D  0834               	movf	(1+(?___ftmul)),w
  2383  046E  1683               	bsf	status, 5	;RP0=1, select bank1
  2384  046F  1303               	bcf	status, 6	;RP1=0, select bank1
  2385  0470  00C4               	movwf	(temperature@w1+1)^080h
  2386  0471  1283               	bcf	status, 5	;RP0=0, select bank0
  2387  0472  1303               	bcf	status, 6	;RP1=0, select bank0
  2388  0473  0835               	movf	(2+(?___ftmul)),w
  2389  0474  1683               	bsf	status, 5	;RP0=1, select bank1
  2390  0475  1303               	bcf	status, 6	;RP1=0, select bank1
  2391  0476  00C5               	movwf	(temperature@w1+2)^080h
  2392                           	line	257
  2393                           ;LIFT.c: 257: w=w1-5500;
  2394  0477  0843               	movf	(temperature@w1)^080h,w
  2395  0478  1283               	bcf	status, 5	;RP0=0, select bank0
  2396  0479  1303               	bcf	status, 6	;RP1=0, select bank0
  2397  047A  00AB               	movwf	(?___ftadd)
  2398  047B  1683               	bsf	status, 5	;RP0=1, select bank1
  2399  047C  1303               	bcf	status, 6	;RP1=0, select bank1
  2400  047D  0844               	movf	(temperature@w1+1)^080h,w
  2401  047E  1283               	bcf	status, 5	;RP0=0, select bank0
  2402  047F  1303               	bcf	status, 6	;RP1=0, select bank0
  2403  0480  00AC               	movwf	(?___ftadd+1)
  2404  0481  1683               	bsf	status, 5	;RP0=1, select bank1
  2405  0482  1303               	bcf	status, 6	;RP1=0, select bank1
  2406  0483  0845               	movf	(temperature@w1+2)^080h,w
  2407  0484  1283               	bcf	status, 5	;RP0=0, select bank0
  2408  0485  1303               	bcf	status, 6	;RP1=0, select bank0
  2409  0486  00AD               	movwf	(?___ftadd+2)
  2410  0487  30E0               	movlw	0xe0
  2411  0488  00AE               	movwf	0+(?___ftadd)+03h
  2412  0489  30AB               	movlw	0xab
  2413  048A  00AF               	movwf	1+(?___ftadd)+03h
  2414  048B  30C5               	movlw	0xc5
  2415  048C  00B0               	movwf	2+(?___ftadd)+03h
  2416  048D  120A  118A  212F   	fcall	___ftadd
              120A  118A         
  2417  0492  1383               	bcf	status, 7	;select IRP bank0
  2418  0493  1283               	bcf	status, 5	;RP0=0, select bank0
  2419  0494  1303               	bcf	status, 6	;RP1=0, select bank0
  2420  0495  082B               	movf	(0+(?___ftadd)),w
  2421  0496  00C2               	movwf	(?___fttol)
  2422  0497  082C               	movf	(1+(?___ftadd)),w
  2423  0498  00C3               	movwf	(?___fttol+1)
  2424  0499  082D               	movf	(2+(?___ftadd)),w
  2425  049A  00C4               	movwf	(?___fttol+2)
  2426  049B  120A  158A  2548   	fcall	___fttol
              120A  118A         
  2427  04A0  1383               	bcf	status, 7	;select IRP bank0
  2428  04A1  1283               	bcf	status, 5	;RP0=0, select bank0
  2429  04A2  1303               	bcf	status, 6	;RP1=0, select bank0
  2430  04A3  0843               	movf	(1+(?___fttol)),w
  2431  04A4  1683               	bsf	status, 5	;RP0=1, select bank1
  2432  04A5  1303               	bcf	status, 6	;RP1=0, select bank1
  2433  04A6  01C7               	clrf	(temperature@w+1)^080h
  2434  04A7  07C7               	addwf	(temperature@w+1)^080h
  2435  04A8  1283               	bcf	status, 5	;RP0=0, select bank0
  2436  04A9  1303               	bcf	status, 6	;RP1=0, select bank0
  2437  04AA  0842               	movf	(0+(?___fttol)),w
  2438  04AB  1683               	bsf	status, 5	;RP0=1, select bank1
  2439  04AC  1303               	bcf	status, 6	;RP1=0, select bank1
  2440  04AD  01C6               	clrf	(temperature@w)^080h
  2441  04AE  07C6               	addwf	(temperature@w)^080h
  2442                           
  2443                           	line	259
  2444                           ;LIFT.c: 259: a=w/10000;
  2445  04AF  0847               	movf	(temperature@w+1)^080h,w
  2446  04B0  1283               	bcf	status, 5	;RP0=0, select bank0
  2447  04B1  1303               	bcf	status, 6	;RP1=0, select bank0
  2448  04B2  01AB               	clrf	(?___awdiv+1)
  2449  04B3  07AB               	addwf	(?___awdiv+1)
  2450  04B4  1683               	bsf	status, 5	;RP0=1, select bank1
  2451  04B5  1303               	bcf	status, 6	;RP1=0, select bank1
  2452  04B6  0846               	movf	(temperature@w)^080h,w
  2453  04B7  1283               	bcf	status, 5	;RP0=0, select bank0
  2454  04B8  1303               	bcf	status, 6	;RP1=0, select bank0
  2455  04B9  01AA               	clrf	(?___awdiv)
  2456  04BA  07AA               	addwf	(?___awdiv)
  2457                           
  2458  04BB  3010               	movlw	low(02710h)
  2459  04BC  00AC               	movwf	0+(?___awdiv)+02h
  2460  04BD  3027               	movlw	high(02710h)
  2461  04BE  00AD               	movwf	(0+(?___awdiv)+02h)+1
  2462  04BF  120A  158A  2312   	fcall	___awdiv
              120A  118A         
  2463  04C4  1383               	bcf	status, 7	;select IRP bank0
  2464  04C5  1283               	bcf	status, 5	;RP0=0, select bank0
  2465  04C6  1303               	bcf	status, 6	;RP1=0, select bank0
  2466  04C7  082B               	movf	(1+(?___awdiv)),w
  2467  04C8  1683               	bsf	status, 5	;RP0=1, select bank1
  2468  04C9  1303               	bcf	status, 6	;RP1=0, select bank1
  2469  04CA  01B3               	clrf	(temperature@a+1)^080h
  2470  04CB  07B3               	addwf	(temperature@a+1)^080h
  2471  04CC  1283               	bcf	status, 5	;RP0=0, select bank0
  2472  04CD  1303               	bcf	status, 6	;RP1=0, select bank0
  2473  04CE  082A               	movf	(0+(?___awdiv)),w
  2474  04CF  1683               	bsf	status, 5	;RP0=1, select bank1
  2475  04D0  1303               	bcf	status, 6	;RP1=0, select bank1
  2476  04D1  01B2               	clrf	(temperature@a)^080h
  2477  04D2  07B2               	addwf	(temperature@a)^080h
  2478                           
  2479                           	line	260
  2480                           ;LIFT.c: 260: b=w%10000;
  2481  04D3  0847               	movf	(temperature@w+1)^080h,w
  2482  04D4  1283               	bcf	status, 5	;RP0=0, select bank0
  2483  04D5  1303               	bcf	status, 6	;RP1=0, select bank0
  2484  04D6  01A3               	clrf	(?___awmod+1)
  2485  04D7  07A3               	addwf	(?___awmod+1)
  2486  04D8  1683               	bsf	status, 5	;RP0=1, select bank1
  2487  04D9  1303               	bcf	status, 6	;RP1=0, select bank1
  2488  04DA  0846               	movf	(temperature@w)^080h,w
  2489  04DB  1283               	bcf	status, 5	;RP0=0, select bank0
  2490  04DC  1303               	bcf	status, 6	;RP1=0, select bank0
  2491  04DD  01A2               	clrf	(?___awmod)
  2492  04DE  07A2               	addwf	(?___awmod)
  2493                           
  2494  04DF  3010               	movlw	low(02710h)
  2495  04E0  00A4               	movwf	0+(?___awmod)+02h
  2496  04E1  3027               	movlw	high(02710h)
  2497  04E2  00A5               	movwf	(0+(?___awmod)+02h)+1
  2498  04E3  120A  158A  2247   	fcall	___awmod
              120A  118A         
  2499  04E8  1383               	bcf	status, 7	;select IRP bank0
  2500  04E9  1283               	bcf	status, 5	;RP0=0, select bank0
  2501  04EA  1303               	bcf	status, 6	;RP1=0, select bank0
  2502  04EB  0823               	movf	(1+(?___awmod)),w
  2503  04EC  1683               	bsf	status, 5	;RP0=1, select bank1
  2504  04ED  1303               	bcf	status, 6	;RP1=0, select bank1
  2505  04EE  01BA               	clrf	(temperature@b+1)^080h
  2506  04EF  07BA               	addwf	(temperature@b+1)^080h
  2507  04F0  1283               	bcf	status, 5	;RP0=0, select bank0
  2508  04F1  1303               	bcf	status, 6	;RP1=0, select bank0
  2509  04F2  0822               	movf	(0+(?___awmod)),w
  2510  04F3  1683               	bsf	status, 5	;RP0=1, select bank1
  2511  04F4  1303               	bcf	status, 6	;RP1=0, select bank1
  2512  04F5  01B9               	clrf	(temperature@b)^080h
  2513  04F6  07B9               	addwf	(temperature@b)^080h
  2514                           
  2515                           	line	261
  2516                           ;LIFT.c: 261: c=b/1000;
  2517  04F7  083A               	movf	(temperature@b+1)^080h,w
  2518  04F8  1283               	bcf	status, 5	;RP0=0, select bank0
  2519  04F9  1303               	bcf	status, 6	;RP1=0, select bank0
  2520  04FA  01AB               	clrf	(?___awdiv+1)
  2521  04FB  07AB               	addwf	(?___awdiv+1)
  2522  04FC  1683               	bsf	status, 5	;RP0=1, select bank1
  2523  04FD  1303               	bcf	status, 6	;RP1=0, select bank1
  2524  04FE  0839               	movf	(temperature@b)^080h,w
  2525  04FF  1283               	bcf	status, 5	;RP0=0, select bank0
  2526  0500  1303               	bcf	status, 6	;RP1=0, select bank0
  2527  0501  01AA               	clrf	(?___awdiv)
  2528  0502  07AA               	addwf	(?___awdiv)
  2529                           
  2530  0503  30E8               	movlw	low(03E8h)
  2531  0504  00AC               	movwf	0+(?___awdiv)+02h
  2532  0505  3003               	movlw	high(03E8h)
  2533  0506  00AD               	movwf	(0+(?___awdiv)+02h)+1
  2534  0507  120A  158A  2312   	fcall	___awdiv
              120A  118A         
  2535  050C  1383               	bcf	status, 7	;select IRP bank0
  2536  050D  1283               	bcf	status, 5	;RP0=0, select bank0
  2537  050E  1303               	bcf	status, 6	;RP1=0, select bank0
  2538  050F  082B               	movf	(1+(?___awdiv)),w
  2539  0510  1683               	bsf	status, 5	;RP0=1, select bank1
  2540  0511  1303               	bcf	status, 6	;RP1=0, select bank1
  2541  0512  01B1               	clrf	(temperature@c+1)^080h
  2542  0513  07B1               	addwf	(temperature@c+1)^080h
  2543  0514  1283               	bcf	status, 5	;RP0=0, select bank0
  2544  0515  1303               	bcf	status, 6	;RP1=0, select bank0
  2545  0516  082A               	movf	(0+(?___awdiv)),w
  2546  0517  1683               	bsf	status, 5	;RP0=1, select bank1
  2547  0518  1303               	bcf	status, 6	;RP1=0, select bank1
  2548  0519  01B0               	clrf	(temperature@c)^080h
  2549  051A  07B0               	addwf	(temperature@c)^080h
  2550                           
  2551                           	line	262
  2552                           ;LIFT.c: 262: d=b%1000;
  2553  051B  083A               	movf	(temperature@b+1)^080h,w
  2554  051C  1283               	bcf	status, 5	;RP0=0, select bank0
  2555  051D  1303               	bcf	status, 6	;RP1=0, select bank0
  2556  051E  01A3               	clrf	(?___awmod+1)
  2557  051F  07A3               	addwf	(?___awmod+1)
  2558  0520  1683               	bsf	status, 5	;RP0=1, select bank1
  2559  0521  1303               	bcf	status, 6	;RP1=0, select bank1
  2560  0522  0839               	movf	(temperature@b)^080h,w
  2561  0523  1283               	bcf	status, 5	;RP0=0, select bank0
  2562  0524  1303               	bcf	status, 6	;RP1=0, select bank0
  2563  0525  01A2               	clrf	(?___awmod)
  2564  0526  07A2               	addwf	(?___awmod)
  2565                           
  2566  0527  30E8               	movlw	low(03E8h)
  2567  0528  00A4               	movwf	0+(?___awmod)+02h
  2568  0529  3003               	movlw	high(03E8h)
  2569  052A  00A5               	movwf	(0+(?___awmod)+02h)+1
  2570  052B  120A  158A  2247   	fcall	___awmod
              120A  118A         
  2571  0530  1383               	bcf	status, 7	;select IRP bank0
  2572  0531  1283               	bcf	status, 5	;RP0=0, select bank0
  2573  0532  1303               	bcf	status, 6	;RP1=0, select bank0
  2574  0533  0823               	movf	(1+(?___awmod)),w
  2575  0534  1683               	bsf	status, 5	;RP0=1, select bank1
  2576  0535  1303               	bcf	status, 6	;RP1=0, select bank1
  2577  0536  01C2               	clrf	(temperature@d+1)^080h
  2578  0537  07C2               	addwf	(temperature@d+1)^080h
  2579  0538  1283               	bcf	status, 5	;RP0=0, select bank0
  2580  0539  1303               	bcf	status, 6	;RP1=0, select bank0
  2581  053A  0822               	movf	(0+(?___awmod)),w
  2582  053B  1683               	bsf	status, 5	;RP0=1, select bank1
  2583  053C  1303               	bcf	status, 6	;RP1=0, select bank1
  2584  053D  01C1               	clrf	(temperature@d)^080h
  2585  053E  07C1               	addwf	(temperature@d)^080h
  2586                           
  2587                           	line	263
  2588                           ;LIFT.c: 263: e=d/100;
  2589  053F  0842               	movf	(temperature@d+1)^080h,w
  2590  0540  1283               	bcf	status, 5	;RP0=0, select bank0
  2591  0541  1303               	bcf	status, 6	;RP1=0, select bank0
  2592  0542  01AB               	clrf	(?___awdiv+1)
  2593  0543  07AB               	addwf	(?___awdiv+1)
  2594  0544  1683               	bsf	status, 5	;RP0=1, select bank1
  2595  0545  1303               	bcf	status, 6	;RP1=0, select bank1
  2596  0546  0841               	movf	(temperature@d)^080h,w
  2597  0547  1283               	bcf	status, 5	;RP0=0, select bank0
  2598  0548  1303               	bcf	status, 6	;RP1=0, select bank0
  2599  0549  01AA               	clrf	(?___awdiv)
  2600  054A  07AA               	addwf	(?___awdiv)
  2601                           
  2602  054B  3064               	movlw	low(064h)
  2603  054C  00AC               	movwf	0+(?___awdiv)+02h
  2604  054D  3000               	movlw	high(064h)
  2605  054E  00AD               	movwf	(0+(?___awdiv)+02h)+1
  2606  054F  120A  158A  2312   	fcall	___awdiv
              120A  118A         
  2607  0554  1383               	bcf	status, 7	;select IRP bank0
  2608  0555  1283               	bcf	status, 5	;RP0=0, select bank0
  2609  0556  1303               	bcf	status, 6	;RP1=0, select bank0
  2610  0557  082B               	movf	(1+(?___awdiv)),w
  2611  0558  1683               	bsf	status, 5	;RP0=1, select bank1
  2612  0559  1303               	bcf	status, 6	;RP1=0, select bank1
  2613  055A  01AF               	clrf	(temperature@e+1)^080h
  2614  055B  07AF               	addwf	(temperature@e+1)^080h
  2615  055C  1283               	bcf	status, 5	;RP0=0, select bank0
  2616  055D  1303               	bcf	status, 6	;RP1=0, select bank0
  2617  055E  082A               	movf	(0+(?___awdiv)),w
  2618  055F  1683               	bsf	status, 5	;RP0=1, select bank1
  2619  0560  1303               	bcf	status, 6	;RP1=0, select bank1
  2620  0561  01AE               	clrf	(temperature@e)^080h
  2621  0562  07AE               	addwf	(temperature@e)^080h
  2622                           
  2623                           	line	264
  2624                           ;LIFT.c: 264: f=d%100;
  2625  0563  0842               	movf	(temperature@d+1)^080h,w
  2626  0564  1283               	bcf	status, 5	;RP0=0, select bank0
  2627  0565  1303               	bcf	status, 6	;RP1=0, select bank0
  2628  0566  01A3               	clrf	(?___awmod+1)
  2629  0567  07A3               	addwf	(?___awmod+1)
  2630  0568  1683               	bsf	status, 5	;RP0=1, select bank1
  2631  0569  1303               	bcf	status, 6	;RP1=0, select bank1
  2632  056A  0841               	movf	(temperature@d)^080h,w
  2633  056B  1283               	bcf	status, 5	;RP0=0, select bank0
  2634  056C  1303               	bcf	status, 6	;RP1=0, select bank0
  2635  056D  01A2               	clrf	(?___awmod)
  2636  056E  07A2               	addwf	(?___awmod)
  2637                           
  2638  056F  3064               	movlw	low(064h)
  2639  0570  00A4               	movwf	0+(?___awmod)+02h
  2640  0571  3000               	movlw	high(064h)
  2641  0572  00A5               	movwf	(0+(?___awmod)+02h)+1
  2642  0573  120A  158A  2247   	fcall	___awmod
              120A  118A         
  2643  0578  1383               	bcf	status, 7	;select IRP bank0
  2644  0579  1283               	bcf	status, 5	;RP0=0, select bank0
  2645  057A  1303               	bcf	status, 6	;RP1=0, select bank0
  2646  057B  0823               	movf	(1+(?___awmod)),w
  2647  057C  1683               	bsf	status, 5	;RP0=1, select bank1
  2648  057D  1303               	bcf	status, 6	;RP1=0, select bank1
  2649  057E  01BE               	clrf	(temperature@f+1)^080h
  2650  057F  07BE               	addwf	(temperature@f+1)^080h
  2651  0580  1283               	bcf	status, 5	;RP0=0, select bank0
  2652  0581  1303               	bcf	status, 6	;RP1=0, select bank0
  2653  0582  0822               	movf	(0+(?___awmod)),w
  2654  0583  1683               	bsf	status, 5	;RP0=1, select bank1
  2655  0584  1303               	bcf	status, 6	;RP1=0, select bank1
  2656  0585  01BD               	clrf	(temperature@f)^080h
  2657  0586  07BD               	addwf	(temperature@f)^080h
  2658                           
  2659                           	line	265
  2660                           ;LIFT.c: 265: g=f/10;
  2661  0587  083E               	movf	(temperature@f+1)^080h,w
  2662  0588  1283               	bcf	status, 5	;RP0=0, select bank0
  2663  0589  1303               	bcf	status, 6	;RP1=0, select bank0
  2664  058A  01AB               	clrf	(?___awdiv+1)
  2665  058B  07AB               	addwf	(?___awdiv+1)
  2666  058C  1683               	bsf	status, 5	;RP0=1, select bank1
  2667  058D  1303               	bcf	status, 6	;RP1=0, select bank1
  2668  058E  083D               	movf	(temperature@f)^080h,w
  2669  058F  1283               	bcf	status, 5	;RP0=0, select bank0
  2670  0590  1303               	bcf	status, 6	;RP1=0, select bank0
  2671  0591  01AA               	clrf	(?___awdiv)
  2672  0592  07AA               	addwf	(?___awdiv)
  2673                           
  2674  0593  300A               	movlw	low(0Ah)
  2675  0594  00AC               	movwf	0+(?___awdiv)+02h
  2676  0595  3000               	movlw	high(0Ah)
  2677  0596  00AD               	movwf	(0+(?___awdiv)+02h)+1
  2678  0597  120A  158A  2312   	fcall	___awdiv
              120A  118A         
  2679  059C  1383               	bcf	status, 7	;select IRP bank0
  2680  059D  1283               	bcf	status, 5	;RP0=0, select bank0
  2681  059E  1303               	bcf	status, 6	;RP1=0, select bank0
  2682  059F  082B               	movf	(1+(?___awdiv)),w
  2683  05A0  1683               	bsf	status, 5	;RP0=1, select bank1
  2684  05A1  1303               	bcf	status, 6	;RP1=0, select bank1
  2685  05A2  01AD               	clrf	(temperature@g+1)^080h
  2686  05A3  07AD               	addwf	(temperature@g+1)^080h
  2687  05A4  1283               	bcf	status, 5	;RP0=0, select bank0
  2688  05A5  1303               	bcf	status, 6	;RP1=0, select bank0
  2689  05A6  082A               	movf	(0+(?___awdiv)),w
  2690  05A7  1683               	bsf	status, 5	;RP0=1, select bank1
  2691  05A8  1303               	bcf	status, 6	;RP1=0, select bank1
  2692  05A9  01AC               	clrf	(temperature@g)^080h
  2693  05AA  07AC               	addwf	(temperature@g)^080h
  2694                           
  2695                           	line	266
  2696                           ;LIFT.c: 266: h=f%10;
  2697  05AB  083E               	movf	(temperature@f+1)^080h,w
  2698  05AC  1283               	bcf	status, 5	;RP0=0, select bank0
  2699  05AD  1303               	bcf	status, 6	;RP1=0, select bank0
  2700  05AE  01A3               	clrf	(?___awmod+1)
  2701  05AF  07A3               	addwf	(?___awmod+1)
  2702  05B0  1683               	bsf	status, 5	;RP0=1, select bank1
  2703  05B1  1303               	bcf	status, 6	;RP1=0, select bank1
  2704  05B2  083D               	movf	(temperature@f)^080h,w
  2705  05B3  1283               	bcf	status, 5	;RP0=0, select bank0
  2706  05B4  1303               	bcf	status, 6	;RP1=0, select bank0
  2707  05B5  01A2               	clrf	(?___awmod)
  2708  05B6  07A2               	addwf	(?___awmod)
  2709                           
  2710  05B7  300A               	movlw	low(0Ah)
  2711  05B8  00A4               	movwf	0+(?___awmod)+02h
  2712  05B9  3000               	movlw	high(0Ah)
  2713  05BA  00A5               	movwf	(0+(?___awmod)+02h)+1
  2714  05BB  120A  158A  2247   	fcall	___awmod
              120A  118A         
  2715  05C0  1383               	bcf	status, 7	;select IRP bank0
  2716  05C1  1283               	bcf	status, 5	;RP0=0, select bank0
  2717  05C2  1303               	bcf	status, 6	;RP1=0, select bank0
  2718  05C3  0823               	movf	(1+(?___awmod)),w
  2719  05C4  1683               	bsf	status, 5	;RP0=1, select bank1
  2720  05C5  1303               	bcf	status, 6	;RP1=0, select bank1
  2721  05C6  01A5               	clrf	(temperature@h+1)^080h
  2722  05C7  07A5               	addwf	(temperature@h+1)^080h
  2723  05C8  1283               	bcf	status, 5	;RP0=0, select bank0
  2724  05C9  1303               	bcf	status, 6	;RP1=0, select bank0
  2725  05CA  0822               	movf	(0+(?___awmod)),w
  2726  05CB  1683               	bsf	status, 5	;RP0=1, select bank1
  2727  05CC  1303               	bcf	status, 6	;RP1=0, select bank1
  2728  05CD  01A4               	clrf	(temperature@h)^080h
  2729  05CE  07A4               	addwf	(temperature@h)^080h
  2730                           
  2731                           	line	268
  2732                           ;LIFT.c: 268: command(0XC0);
  2733  05CF  30C0               	movlw	(0C0h)
  2734  05D0  120A  158A  223B   	fcall	_command
              120A  118A         
  2735                           	line	270
  2736                           ;LIFT.c: 270: data(0X2B);
  2737  05D5  302B               	movlw	(02Bh)
  2738  05D6  120A  158A  222F   	fcall	_data
              120A  118A         
  2739                           	line	271
  2740                           ;LIFT.c: 271: data(a+48);
  2741  05DB  1683               	bsf	status, 5	;RP0=1, select bank1
  2742  05DC  1303               	bcf	status, 6	;RP1=0, select bank1
  2743  05DD  0832               	movf	(temperature@a)^080h,w
  2744  05DE  3E30               	addlw	030h
  2745  05DF  120A  158A  222F   	fcall	_data
              120A  118A         
  2746                           	line	272
  2747                           ;LIFT.c: 272: data(c+48);
  2748  05E4  1683               	bsf	status, 5	;RP0=1, select bank1
  2749  05E5  1303               	bcf	status, 6	;RP1=0, select bank1
  2750  05E6  0830               	movf	(temperature@c)^080h,w
  2751  05E7  3E30               	addlw	030h
  2752  05E8  120A  158A  222F   	fcall	_data
              120A  118A         
  2753                           	line	273
  2754                           ;LIFT.c: 273: data(e+48);
  2755  05ED  1683               	bsf	status, 5	;RP0=1, select bank1
  2756  05EE  1303               	bcf	status, 6	;RP1=0, select bank1
  2757  05EF  082E               	movf	(temperature@e)^080h,w
  2758  05F0  3E30               	addlw	030h
  2759  05F1  120A  158A  222F   	fcall	_data
              120A  118A         
  2760                           	line	274
  2761                           ;LIFT.c: 274: data(0X2E);
  2762  05F6  302E               	movlw	(02Eh)
  2763  05F7  120A  158A  222F   	fcall	_data
              120A  118A         
  2764                           	line	275
  2765                           ;LIFT.c: 275: data(g+48);
  2766  05FC  1683               	bsf	status, 5	;RP0=1, select bank1
  2767  05FD  1303               	bcf	status, 6	;RP1=0, select bank1
  2768  05FE  082C               	movf	(temperature@g)^080h,w
  2769  05FF  3E30               	addlw	030h
  2770  0600  120A  158A  222F   	fcall	_data
              120A  118A         
  2771                           	line	276
  2772                           ;LIFT.c: 276: data(h+48);
  2773  0605  1683               	bsf	status, 5	;RP0=1, select bank1
  2774  0606  1303               	bcf	status, 6	;RP1=0, select bank1
  2775  0607  0824               	movf	(temperature@h)^080h,w
  2776  0608  3E30               	addlw	030h
  2777  0609  120A  158A  222F   	fcall	_data
              120A  118A         
  2778                           	line	277
  2779                           ;LIFT.c: 277: data(0XDF);
  2780  060E  30DF               	movlw	(0DFh)
  2781  060F  120A  158A  222F   	fcall	_data
              120A  118A         
  2782                           	line	278
  2783                           ;LIFT.c: 278: data(0X43);
  2784  0614  3043               	movlw	(043h)
  2785  0615  120A  158A  222F   	fcall	_data
              120A  118A         
  2786                           	
  2787  061A                     l30001597:	
  2788                           	line	282
  2789                           ;LIFT.c: 279: }
  2790                           ;LIFT.c: 282: if(DV<275)
  2791  061A  0871               	movf	(_DV+1),w
  2792  061B  3A80               	xorlw	80h
  2793  061C  1283               	bcf	status, 5	;RP0=0, select bank0
  2794  061D  1303               	bcf	status, 6	;RP1=0, select bank0
  2795  061E  00C9               	movwf	(??_temperature+0+0)
  2796  061F  3081               	movlw	(high(0113h))^80h
  2797  0620  0249               	subwf	(??_temperature+0+0),w
  2798  0621  1D03               	skipz
  2799  0622  2E25               	goto	u2975
  2800  0623  3013               	movlw	low(0113h)
  2801  0624  0270               	subwf	(_DV),w
  2802  0625                     u2975:
  2803                           
  2804  0625  1803               	skipnc
  2805  0626  2E28               	goto	u2971
  2806  0627  2E29               	goto	u2970
  2807  0628                     u2971:
  2808  0628  2FFF               	goto	l36
  2809  0629                     u2970:
  2810                           	
  2811  0629                     l30001598:	
  2812                           	line	285
  2813                           ;LIFT.c: 283: {
  2814                           ;LIFT.c: 285: w1=z*100;
  2815  0629  1683               	bsf	status, 5	;RP0=1, select bank1
  2816  062A  1303               	bcf	status, 6	;RP1=0, select bank1
  2817  062B  0834               	movf	(temperature@z)^080h,w
  2818  062C  1283               	bcf	status, 5	;RP0=0, select bank0
  2819  062D  1303               	bcf	status, 6	;RP1=0, select bank0
  2820  062E  00B3               	movwf	(?___ftmul)
  2821  062F  1683               	bsf	status, 5	;RP0=1, select bank1
  2822  0630  1303               	bcf	status, 6	;RP1=0, select bank1
  2823  0631  0835               	movf	(temperature@z+1)^080h,w
  2824  0632  1283               	bcf	status, 5	;RP0=0, select bank0
  2825  0633  1303               	bcf	status, 6	;RP1=0, select bank0
  2826  0634  00B4               	movwf	(?___ftmul+1)
  2827  0635  1683               	bsf	status, 5	;RP0=1, select bank1
  2828  0636  1303               	bcf	status, 6	;RP1=0, select bank1
  2829  0637  0836               	movf	(temperature@z+2)^080h,w
  2830  0638  1283               	bcf	status, 5	;RP0=0, select bank0
  2831  0639  1303               	bcf	status, 6	;RP1=0, select bank0
  2832  063A  00B5               	movwf	(?___ftmul+2)
  2833  063B  3000               	movlw	0x0
  2834  063C  00B6               	movwf	0+(?___ftmul)+03h
  2835  063D  30C8               	movlw	0xc8
  2836  063E  00B7               	movwf	1+(?___ftmul)+03h
  2837  063F  3042               	movlw	0x42
  2838  0640  00B8               	movwf	2+(?___ftmul)+03h
  2839  0641  120A  118A  2053   	fcall	___ftmul
              120A  118A         
  2840  0646  1383               	bcf	status, 7	;select IRP bank0
  2841  0647  1283               	bcf	status, 5	;RP0=0, select bank0
  2842  0648  1303               	bcf	status, 6	;RP1=0, select bank0
  2843  0649  0833               	movf	(0+(?___ftmul)),w
  2844  064A  1683               	bsf	status, 5	;RP0=1, select bank1
  2845  064B  1303               	bcf	status, 6	;RP1=0, select bank1
  2846  064C  00C3               	movwf	(temperature@w1)^080h
  2847  064D  1283               	bcf	status, 5	;RP0=0, select bank0
  2848  064E  1303               	bcf	status, 6	;RP1=0, select bank0
  2849  064F  0834               	movf	(1+(?___ftmul)),w
  2850  0650  1683               	bsf	status, 5	;RP0=1, select bank1
  2851  0651  1303               	bcf	status, 6	;RP1=0, select bank1
  2852  0652  00C4               	movwf	(temperature@w1+1)^080h
  2853  0653  1283               	bcf	status, 5	;RP0=0, select bank0
  2854  0654  1303               	bcf	status, 6	;RP1=0, select bank0
  2855  0655  0835               	movf	(2+(?___ftmul)),w
  2856  0656  1683               	bsf	status, 5	;RP0=1, select bank1
  2857  0657  1303               	bcf	status, 6	;RP1=0, select bank1
  2858  0658  00C5               	movwf	(temperature@w1+2)^080h
  2859                           	line	286
  2860                           ;LIFT.c: 286: w=5500-w1;
  2861  0659  0843               	movf	(temperature@w1)^080h,w
  2862  065A  00F6               	movwf	(?___ftneg)
  2863  065B  0844               	movf	(temperature@w1+1)^080h,w
  2864  065C  00F7               	movwf	(?___ftneg+1)
  2865  065D  0845               	movf	(temperature@w1+2)^080h,w
  2866  065E  00F8               	movwf	(?___ftneg+2)
  2867  065F  120A  158A  2225   	fcall	___ftneg
              120A  118A         
  2868  0664  0876               	movf	(0+(?___ftneg)),w
  2869  0665  1283               	bcf	status, 5	;RP0=0, select bank0
  2870  0666  1303               	bcf	status, 6	;RP1=0, select bank0
  2871  0667  00AB               	movwf	(?___ftadd)
  2872  0668  0877               	movf	(1+(?___ftneg)),w
  2873  0669  00AC               	movwf	(?___ftadd+1)
  2874  066A  0878               	movf	(2+(?___ftneg)),w
  2875  066B  00AD               	movwf	(?___ftadd+2)
  2876  066C  30E0               	movlw	0xe0
  2877  066D  00AE               	movwf	0+(?___ftadd)+03h
  2878  066E  30AB               	movlw	0xab
  2879  066F  00AF               	movwf	1+(?___ftadd)+03h
  2880  0670  3045               	movlw	0x45
  2881  0671  00B0               	movwf	2+(?___ftadd)+03h
  2882  0672  120A  118A  212F   	fcall	___ftadd
              120A  118A         
  2883  0677  1383               	bcf	status, 7	;select IRP bank0
  2884  0678  1283               	bcf	status, 5	;RP0=0, select bank0
  2885  0679  1303               	bcf	status, 6	;RP1=0, select bank0
  2886  067A  082B               	movf	(0+(?___ftadd)),w
  2887  067B  00C2               	movwf	(?___fttol)
  2888  067C  082C               	movf	(1+(?___ftadd)),w
  2889  067D  00C3               	movwf	(?___fttol+1)
  2890  067E  082D               	movf	(2+(?___ftadd)),w
  2891  067F  00C4               	movwf	(?___fttol+2)
  2892  0680  120A  158A  2548   	fcall	___fttol
              120A  118A         
  2893  0685  1383               	bcf	status, 7	;select IRP bank0
  2894  0686  1283               	bcf	status, 5	;RP0=0, select bank0
  2895  0687  1303               	bcf	status, 6	;RP1=0, select bank0
  2896  0688  0843               	movf	(1+(?___fttol)),w
  2897  0689  1683               	bsf	status, 5	;RP0=1, select bank1
  2898  068A  1303               	bcf	status, 6	;RP1=0, select bank1
  2899  068B  01C7               	clrf	(temperature@w+1)^080h
  2900  068C  07C7               	addwf	(temperature@w+1)^080h
  2901  068D  1283               	bcf	status, 5	;RP0=0, select bank0
  2902  068E  1303               	bcf	status, 6	;RP1=0, select bank0
  2903  068F  0842               	movf	(0+(?___fttol)),w
  2904  0690  1683               	bsf	status, 5	;RP0=1, select bank1
  2905  0691  1303               	bcf	status, 6	;RP1=0, select bank1
  2906  0692  01C6               	clrf	(temperature@w)^080h
  2907  0693  07C6               	addwf	(temperature@w)^080h
  2908                           
  2909                           	line	288
  2910                           ;LIFT.c: 288: a1=w/10000;
  2911  0694  0847               	movf	(temperature@w+1)^080h,w
  2912  0695  1283               	bcf	status, 5	;RP0=0, select bank0
  2913  0696  1303               	bcf	status, 6	;RP1=0, select bank0
  2914  0697  01AB               	clrf	(?___awdiv+1)
  2915  0698  07AB               	addwf	(?___awdiv+1)
  2916  0699  1683               	bsf	status, 5	;RP0=1, select bank1
  2917  069A  1303               	bcf	status, 6	;RP1=0, select bank1
  2918  069B  0846               	movf	(temperature@w)^080h,w
  2919  069C  1283               	bcf	status, 5	;RP0=0, select bank0
  2920  069D  1303               	bcf	status, 6	;RP1=0, select bank0
  2921  069E  01AA               	clrf	(?___awdiv)
  2922  069F  07AA               	addwf	(?___awdiv)
  2923                           
  2924  06A0  3010               	movlw	low(02710h)
  2925  06A1  00AC               	movwf	0+(?___awdiv)+02h
  2926  06A2  3027               	movlw	high(02710h)
  2927  06A3  00AD               	movwf	(0+(?___awdiv)+02h)+1
  2928  06A4  120A  158A  2312   	fcall	___awdiv
              120A  118A         
  2929  06A9  1383               	bcf	status, 7	;select IRP bank0
  2930  06AA  1283               	bcf	status, 5	;RP0=0, select bank0
  2931  06AB  1303               	bcf	status, 6	;RP1=0, select bank0
  2932  06AC  082B               	movf	(1+(?___awdiv)),w
  2933  06AD  1683               	bsf	status, 5	;RP0=1, select bank1
  2934  06AE  1303               	bcf	status, 6	;RP1=0, select bank1
  2935  06AF  01A3               	clrf	(temperature@a1+1)^080h
  2936  06B0  07A3               	addwf	(temperature@a1+1)^080h
  2937  06B1  1283               	bcf	status, 5	;RP0=0, select bank0
  2938  06B2  1303               	bcf	status, 6	;RP1=0, select bank0
  2939  06B3  082A               	movf	(0+(?___awdiv)),w
  2940  06B4  1683               	bsf	status, 5	;RP0=1, select bank1
  2941  06B5  1303               	bcf	status, 6	;RP1=0, select bank1
  2942  06B6  01A2               	clrf	(temperature@a1)^080h
  2943  06B7  07A2               	addwf	(temperature@a1)^080h
  2944                           
  2945                           	line	289
  2946                           ;LIFT.c: 289: b1=w%10000;
  2947  06B8  0847               	movf	(temperature@w+1)^080h,w
  2948  06B9  1283               	bcf	status, 5	;RP0=0, select bank0
  2949  06BA  1303               	bcf	status, 6	;RP1=0, select bank0
  2950  06BB  01A3               	clrf	(?___awmod+1)
  2951  06BC  07A3               	addwf	(?___awmod+1)
  2952  06BD  1683               	bsf	status, 5	;RP0=1, select bank1
  2953  06BE  1303               	bcf	status, 6	;RP1=0, select bank1
  2954  06BF  0846               	movf	(temperature@w)^080h,w
  2955  06C0  1283               	bcf	status, 5	;RP0=0, select bank0
  2956  06C1  1303               	bcf	status, 6	;RP1=0, select bank0
  2957  06C2  01A2               	clrf	(?___awmod)
  2958  06C3  07A2               	addwf	(?___awmod)
  2959                           
  2960  06C4  3010               	movlw	low(02710h)
  2961  06C5  00A4               	movwf	0+(?___awmod)+02h
  2962  06C6  3027               	movlw	high(02710h)
  2963  06C7  00A5               	movwf	(0+(?___awmod)+02h)+1
  2964  06C8  120A  158A  2247   	fcall	___awmod
              120A  118A         
  2965  06CD  1383               	bcf	status, 7	;select IRP bank0
  2966  06CE  1283               	bcf	status, 5	;RP0=0, select bank0
  2967  06CF  1303               	bcf	status, 6	;RP1=0, select bank0
  2968  06D0  0823               	movf	(1+(?___awmod)),w
  2969  06D1  1683               	bsf	status, 5	;RP0=1, select bank1
  2970  06D2  1303               	bcf	status, 6	;RP1=0, select bank1
  2971  06D3  01BC               	clrf	(temperature@b1+1)^080h
  2972  06D4  07BC               	addwf	(temperature@b1+1)^080h
  2973  06D5  1283               	bcf	status, 5	;RP0=0, select bank0
  2974  06D6  1303               	bcf	status, 6	;RP1=0, select bank0
  2975  06D7  0822               	movf	(0+(?___awmod)),w
  2976  06D8  1683               	bsf	status, 5	;RP0=1, select bank1
  2977  06D9  1303               	bcf	status, 6	;RP1=0, select bank1
  2978  06DA  01BB               	clrf	(temperature@b1)^080h
  2979  06DB  07BB               	addwf	(temperature@b1)^080h
  2980                           
  2981                           	line	290
  2982                           ;LIFT.c: 290: c1=b1/1000;
  2983  06DC  083C               	movf	(temperature@b1+1)^080h,w
  2984  06DD  1283               	bcf	status, 5	;RP0=0, select bank0
  2985  06DE  1303               	bcf	status, 6	;RP1=0, select bank0
  2986  06DF  01AB               	clrf	(?___awdiv+1)
  2987  06E0  07AB               	addwf	(?___awdiv+1)
  2988  06E1  1683               	bsf	status, 5	;RP0=1, select bank1
  2989  06E2  1303               	bcf	status, 6	;RP1=0, select bank1
  2990  06E3  083B               	movf	(temperature@b1)^080h,w
  2991  06E4  1283               	bcf	status, 5	;RP0=0, select bank0
  2992  06E5  1303               	bcf	status, 6	;RP1=0, select bank0
  2993  06E6  01AA               	clrf	(?___awdiv)
  2994  06E7  07AA               	addwf	(?___awdiv)
  2995                           
  2996  06E8  30E8               	movlw	low(03E8h)
  2997  06E9  00AC               	movwf	0+(?___awdiv)+02h
  2998  06EA  3003               	movlw	high(03E8h)
  2999  06EB  00AD               	movwf	(0+(?___awdiv)+02h)+1
  3000  06EC  120A  158A  2312   	fcall	___awdiv
              120A  118A         
  3001  06F1  1383               	bcf	status, 7	;select IRP bank0
  3002  06F2  1283               	bcf	status, 5	;RP0=0, select bank0
  3003  06F3  1303               	bcf	status, 6	;RP1=0, select bank0
  3004  06F4  082B               	movf	(1+(?___awdiv)),w
  3005  06F5  1683               	bsf	status, 5	;RP0=1, select bank1
  3006  06F6  1303               	bcf	status, 6	;RP1=0, select bank1
  3007  06F7  01A1               	clrf	(temperature@c1+1)^080h
  3008  06F8  07A1               	addwf	(temperature@c1+1)^080h
  3009  06F9  1283               	bcf	status, 5	;RP0=0, select bank0
  3010  06FA  1303               	bcf	status, 6	;RP1=0, select bank0
  3011  06FB  082A               	movf	(0+(?___awdiv)),w
  3012  06FC  1683               	bsf	status, 5	;RP0=1, select bank1
  3013  06FD  1303               	bcf	status, 6	;RP1=0, select bank1
  3014  06FE  01A0               	clrf	(temperature@c1)^080h
  3015  06FF  07A0               	addwf	(temperature@c1)^080h
  3016                           
  3017                           	line	291
  3018                           ;LIFT.c: 291: d1=b1%1000;
  3019  0700  083C               	movf	(temperature@b1+1)^080h,w
  3020  0701  1283               	bcf	status, 5	;RP0=0, select bank0
  3021  0702  1303               	bcf	status, 6	;RP1=0, select bank0
  3022  0703  01A3               	clrf	(?___awmod+1)
  3023  0704  07A3               	addwf	(?___awmod+1)
  3024  0705  1683               	bsf	status, 5	;RP0=1, select bank1
  3025  0706  1303               	bcf	status, 6	;RP1=0, select bank1
  3026  0707  083B               	movf	(temperature@b1)^080h,w
  3027  0708  1283               	bcf	status, 5	;RP0=0, select bank0
  3028  0709  1303               	bcf	status, 6	;RP1=0, select bank0
  3029  070A  01A2               	clrf	(?___awmod)
  3030  070B  07A2               	addwf	(?___awmod)
  3031                           
  3032  070C  30E8               	movlw	low(03E8h)
  3033  070D  00A4               	movwf	0+(?___awmod)+02h
  3034  070E  3003               	movlw	high(03E8h)
  3035  070F  00A5               	movwf	(0+(?___awmod)+02h)+1
  3036  0710  120A  158A  2247   	fcall	___awmod
              120A  118A         
  3037  0715  1383               	bcf	status, 7	;select IRP bank0
  3038  0716  1283               	bcf	status, 5	;RP0=0, select bank0
  3039  0717  1303               	bcf	status, 6	;RP1=0, select bank0
  3040  0718  0823               	movf	(1+(?___awmod)),w
  3041  0719  1683               	bsf	status, 5	;RP0=1, select bank1
  3042  071A  1303               	bcf	status, 6	;RP1=0, select bank1
  3043  071B  01C0               	clrf	(temperature@d1+1)^080h
  3044  071C  07C0               	addwf	(temperature@d1+1)^080h
  3045  071D  1283               	bcf	status, 5	;RP0=0, select bank0
  3046  071E  1303               	bcf	status, 6	;RP1=0, select bank0
  3047  071F  0822               	movf	(0+(?___awmod)),w
  3048  0720  1683               	bsf	status, 5	;RP0=1, select bank1
  3049  0721  1303               	bcf	status, 6	;RP1=0, select bank1
  3050  0722  01BF               	clrf	(temperature@d1)^080h
  3051  0723  07BF               	addwf	(temperature@d1)^080h
  3052                           
  3053                           	line	292
  3054                           ;LIFT.c: 292: e1=d1/100;
  3055  0724  0840               	movf	(temperature@d1+1)^080h,w
  3056  0725  1283               	bcf	status, 5	;RP0=0, select bank0
  3057  0726  1303               	bcf	status, 6	;RP1=0, select bank0
  3058  0727  01AB               	clrf	(?___awdiv+1)
  3059  0728  07AB               	addwf	(?___awdiv+1)
  3060  0729  1683               	bsf	status, 5	;RP0=1, select bank1
  3061  072A  1303               	bcf	status, 6	;RP1=0, select bank1
  3062  072B  083F               	movf	(temperature@d1)^080h,w
  3063  072C  1283               	bcf	status, 5	;RP0=0, select bank0
  3064  072D  1303               	bcf	status, 6	;RP1=0, select bank0
  3065  072E  01AA               	clrf	(?___awdiv)
  3066  072F  07AA               	addwf	(?___awdiv)
  3067                           
  3068  0730  3064               	movlw	low(064h)
  3069  0731  00AC               	movwf	0+(?___awdiv)+02h
  3070  0732  3000               	movlw	high(064h)
  3071  0733  00AD               	movwf	(0+(?___awdiv)+02h)+1
  3072  0734  120A  158A  2312   	fcall	___awdiv
              120A  118A         
  3073  0739  1383               	bcf	status, 7	;select IRP bank0
  3074  073A  1283               	bcf	status, 5	;RP0=0, select bank0
  3075  073B  1303               	bcf	status, 6	;RP1=0, select bank0
  3076  073C  082B               	movf	(1+(?___awdiv)),w
  3077  073D  1683               	bsf	status, 5	;RP0=1, select bank1
  3078  073E  1303               	bcf	status, 6	;RP1=0, select bank1
  3079  073F  01AB               	clrf	(temperature@e1+1)^080h
  3080  0740  07AB               	addwf	(temperature@e1+1)^080h
  3081  0741  1283               	bcf	status, 5	;RP0=0, select bank0
  3082  0742  1303               	bcf	status, 6	;RP1=0, select bank0
  3083  0743  082A               	movf	(0+(?___awdiv)),w
  3084  0744  1683               	bsf	status, 5	;RP0=1, select bank1
  3085  0745  1303               	bcf	status, 6	;RP1=0, select bank1
  3086  0746  01AA               	clrf	(temperature@e1)^080h
  3087  0747  07AA               	addwf	(temperature@e1)^080h
  3088                           
  3089                           	line	293
  3090                           ;LIFT.c: 293: f1=d1%100;
  3091  0748  0840               	movf	(temperature@d1+1)^080h,w
  3092  0749  1283               	bcf	status, 5	;RP0=0, select bank0
  3093  074A  1303               	bcf	status, 6	;RP1=0, select bank0
  3094  074B  01A3               	clrf	(?___awmod+1)
  3095  074C  07A3               	addwf	(?___awmod+1)
  3096  074D  1683               	bsf	status, 5	;RP0=1, select bank1
  3097  074E  1303               	bcf	status, 6	;RP1=0, select bank1
  3098  074F  083F               	movf	(temperature@d1)^080h,w
  3099  0750  1283               	bcf	status, 5	;RP0=0, select bank0
  3100  0751  1303               	bcf	status, 6	;RP1=0, select bank0
  3101  0752  01A2               	clrf	(?___awmod)
  3102  0753  07A2               	addwf	(?___awmod)
  3103                           
  3104  0754  3064               	movlw	low(064h)
  3105  0755  00A4               	movwf	0+(?___awmod)+02h
  3106  0756  3000               	movlw	high(064h)
  3107  0757  00A5               	movwf	(0+(?___awmod)+02h)+1
  3108  0758  120A  158A  2247   	fcall	___awmod
              120A  118A         
  3109  075D  1383               	bcf	status, 7	;select IRP bank0
  3110  075E  1283               	bcf	status, 5	;RP0=0, select bank0
  3111  075F  1303               	bcf	status, 6	;RP1=0, select bank0
  3112  0760  0823               	movf	(1+(?___awmod)),w
  3113  0761  1683               	bsf	status, 5	;RP0=1, select bank1
  3114  0762  1303               	bcf	status, 6	;RP1=0, select bank1
  3115  0763  01B8               	clrf	(temperature@f1+1)^080h
  3116  0764  07B8               	addwf	(temperature@f1+1)^080h
  3117  0765  1283               	bcf	status, 5	;RP0=0, select bank0
  3118  0766  1303               	bcf	status, 6	;RP1=0, select bank0
  3119  0767  0822               	movf	(0+(?___awmod)),w
  3120  0768  1683               	bsf	status, 5	;RP0=1, select bank1
  3121  0769  1303               	bcf	status, 6	;RP1=0, select bank1
  3122  076A  01B7               	clrf	(temperature@f1)^080h
  3123  076B  07B7               	addwf	(temperature@f1)^080h
  3124                           
  3125                           	line	294
  3126                           ;LIFT.c: 294: g1=f1/10;
  3127  076C  0838               	movf	(temperature@f1+1)^080h,w
  3128  076D  1283               	bcf	status, 5	;RP0=0, select bank0
  3129  076E  1303               	bcf	status, 6	;RP1=0, select bank0
  3130  076F  01AB               	clrf	(?___awdiv+1)
  3131  0770  07AB               	addwf	(?___awdiv+1)
  3132  0771  1683               	bsf	status, 5	;RP0=1, select bank1
  3133  0772  1303               	bcf	status, 6	;RP1=0, select bank1
  3134  0773  0837               	movf	(temperature@f1)^080h,w
  3135  0774  1283               	bcf	status, 5	;RP0=0, select bank0
  3136  0775  1303               	bcf	status, 6	;RP1=0, select bank0
  3137  0776  01AA               	clrf	(?___awdiv)
  3138  0777  07AA               	addwf	(?___awdiv)
  3139                           
  3140  0778  300A               	movlw	low(0Ah)
  3141  0779  00AC               	movwf	0+(?___awdiv)+02h
  3142  077A  3000               	movlw	high(0Ah)
  3143  077B  00AD               	movwf	(0+(?___awdiv)+02h)+1
  3144  077C  120A  158A  2312   	fcall	___awdiv
              120A  118A         
  3145  0781  1383               	bcf	status, 7	;select IRP bank0
  3146  0782  1283               	bcf	status, 5	;RP0=0, select bank0
  3147  0783  1303               	bcf	status, 6	;RP1=0, select bank0
  3148  0784  082B               	movf	(1+(?___awdiv)),w
  3149  0785  1683               	bsf	status, 5	;RP0=1, select bank1
  3150  0786  1303               	bcf	status, 6	;RP1=0, select bank1
  3151  0787  01A9               	clrf	(temperature@g1+1)^080h
  3152  0788  07A9               	addwf	(temperature@g1+1)^080h
  3153  0789  1283               	bcf	status, 5	;RP0=0, select bank0
  3154  078A  1303               	bcf	status, 6	;RP1=0, select bank0
  3155  078B  082A               	movf	(0+(?___awdiv)),w
  3156  078C  1683               	bsf	status, 5	;RP0=1, select bank1
  3157  078D  1303               	bcf	status, 6	;RP1=0, select bank1
  3158  078E  01A8               	clrf	(temperature@g1)^080h
  3159  078F  07A8               	addwf	(temperature@g1)^080h
  3160                           
  3161                           	line	295
  3162                           ;LIFT.c: 295: h1=f1%10;
  3163  0790  0838               	movf	(temperature@f1+1)^080h,w
  3164  0791  1283               	bcf	status, 5	;RP0=0, select bank0
  3165  0792  1303               	bcf	status, 6	;RP1=0, select bank0
  3166  0793  01A3               	clrf	(?___awmod+1)
  3167  0794  07A3               	addwf	(?___awmod+1)
  3168  0795  1683               	bsf	status, 5	;RP0=1, select bank1
  3169  0796  1303               	bcf	status, 6	;RP1=0, select bank1
  3170  0797  0837               	movf	(temperature@f1)^080h,w
  3171  0798  1283               	bcf	status, 5	;RP0=0, select bank0
  3172  0799  1303               	bcf	status, 6	;RP1=0, select bank0
  3173  079A  01A2               	clrf	(?___awmod)
  3174  079B  07A2               	addwf	(?___awmod)
  3175                           
  3176  079C  300A               	movlw	low(0Ah)
  3177  079D  00A4               	movwf	0+(?___awmod)+02h
  3178  079E  3000               	movlw	high(0Ah)
  3179  079F  00A5               	movwf	(0+(?___awmod)+02h)+1
  3180  07A0  120A  158A  2247   	fcall	___awmod
              120A  118A         
  3181  07A5  1383               	bcf	status, 7	;select IRP bank0
  3182  07A6  1283               	bcf	status, 5	;RP0=0, select bank0
  3183  07A7  1303               	bcf	status, 6	;RP1=0, select bank0
  3184  07A8  0823               	movf	(1+(?___awmod)),w
  3185  07A9  1683               	bsf	status, 5	;RP0=1, select bank1
  3186  07AA  1303               	bcf	status, 6	;RP1=0, select bank1
  3187  07AB  01A7               	clrf	(temperature@h1+1)^080h
  3188  07AC  07A7               	addwf	(temperature@h1+1)^080h
  3189  07AD  1283               	bcf	status, 5	;RP0=0, select bank0
  3190  07AE  1303               	bcf	status, 6	;RP1=0, select bank0
  3191  07AF  0822               	movf	(0+(?___awmod)),w
  3192  07B0  1683               	bsf	status, 5	;RP0=1, select bank1
  3193  07B1  1303               	bcf	status, 6	;RP1=0, select bank1
  3194  07B2  01A6               	clrf	(temperature@h1)^080h
  3195  07B3  07A6               	addwf	(temperature@h1)^080h
  3196                           
  3197                           	line	298
  3198                           ;LIFT.c: 298: command(0XC0);
  3199  07B4  30C0               	movlw	(0C0h)
  3200  07B5  120A  158A  223B   	fcall	_command
              120A  118A         
  3201                           	line	300
  3202                           ;LIFT.c: 300: data(0X2D);
  3203  07BA  302D               	movlw	(02Dh)
  3204  07BB  120A  158A  222F   	fcall	_data
              120A  118A         
  3205                           	line	301
  3206                           ;LIFT.c: 301: data(a1+48);
  3207  07C0  1683               	bsf	status, 5	;RP0=1, select bank1
  3208  07C1  1303               	bcf	status, 6	;RP1=0, select bank1
  3209  07C2  0822               	movf	(temperature@a1)^080h,w
  3210  07C3  3E30               	addlw	030h
  3211  07C4  120A  158A  222F   	fcall	_data
              120A  118A         
  3212                           	line	302
  3213                           ;LIFT.c: 302: data(c1+48);
  3214  07C9  1683               	bsf	status, 5	;RP0=1, select bank1
  3215  07CA  1303               	bcf	status, 6	;RP1=0, select bank1
  3216  07CB  0820               	movf	(temperature@c1)^080h,w
  3217  07CC  3E30               	addlw	030h
  3218  07CD  120A  158A  222F   	fcall	_data
              120A  118A         
  3219                           	line	303
  3220                           ;LIFT.c: 303: data(e1+48);
  3221  07D2  1683               	bsf	status, 5	;RP0=1, select bank1
  3222  07D3  1303               	bcf	status, 6	;RP1=0, select bank1
  3223  07D4  082A               	movf	(temperature@e1)^080h,w
  3224  07D5  3E30               	addlw	030h
  3225  07D6  120A  158A  222F   	fcall	_data
              120A  118A         
  3226                           	line	304
  3227                           ;LIFT.c: 304: data(0X2E);
  3228  07DB  302E               	movlw	(02Eh)
  3229  07DC  120A  158A  222F   	fcall	_data
              120A  118A         
  3230                           	line	305
  3231                           ;LIFT.c: 305: data(g1+48);
  3232  07E1  1683               	bsf	status, 5	;RP0=1, select bank1
  3233  07E2  1303               	bcf	status, 6	;RP1=0, select bank1
  3234  07E3  0828               	movf	(temperature@g1)^080h,w
  3235  07E4  3E30               	addlw	030h
  3236  07E5  120A  158A  222F   	fcall	_data
              120A  118A         
  3237                           	line	306
  3238                           ;LIFT.c: 306: data(h1+48);
  3239  07EA  1683               	bsf	status, 5	;RP0=1, select bank1
  3240  07EB  1303               	bcf	status, 6	;RP1=0, select bank1
  3241  07EC  0826               	movf	(temperature@h1)^080h,w
  3242  07ED  3E30               	addlw	030h
  3243  07EE  120A  158A  222F   	fcall	_data
              120A  118A         
  3244                           	line	307
  3245                           ;LIFT.c: 307: data(0XDF);
  3246  07F3  30DF               	movlw	(0DFh)
  3247  07F4  120A  158A  222F   	fcall	_data
              120A  118A         
  3248                           	line	308
  3249                           ;LIFT.c: 308: data(0X43);
  3250  07F9  3043               	movlw	(043h)
  3251  07FA  120A  158A  222F   	fcall	_data
              120A  118A         
  3252                           	
  3253  07FF                     l36:	
  3254  07FF  0008               	return
  3255                           	opt stack 0
  3256                           GLOBAL	__end_of_temperature
  3257  0800                     	__end_of_temperature:
  3258                           ; =============== function _temperature ends ============
  3259                           
  3260                           psect	text151,local,class=CODE,delta=2
  3261                           global __ptext151
  3262  0F3F                     __ptext151:
  3263                           	line	310
  3264                           	signat	_temperature,88
  3265                           	global	_adc
  3266                           
  3267                           ; *************** function _adc *****************
  3268                           ; Defined at:
  3269                           ;		line 179 in file "C:\Users\gowth\Documents\PIC Programs\LIFT\LIFT.c"
  3270                           ; Parameters:    Size  Location     Type
  3271                           ;		None
  3272                           ; Auto vars:     Size  Location     Type
  3273                           ;		None
  3274                           ; Return value:  Size  Location     Type
  3275                           ;		None               void
  3276                           ; Registers used:
  3277                           ;		wreg, status,2, status,0, pclath, cstack
  3278                           ; Tracked objects:
  3279                           ;		On entry : 0/0
  3280                           ;		On exit  : 0/0
  3281                           ;		Unchanged: 0/0
  3282                           ; Data sizes:     COMMON   BANK0   BANK1   BANK3   BANK2
  3283                           ;      Locals:         0       2       0       0       0
  3284                           ;      Temp:     2
  3285                           ;      Total:    2
  3286                           ; This function calls:
  3287                           ;		_count
  3288                           ; This function is called by:
  3289                           ;		_main
  3290                           ; This function uses a non-reentrant model
  3291                           ; 
  3292                           psect	text151
  3293                           	file	"C:\Users\gowth\Documents\PIC Programs\LIFT\LIFT.c"
  3294                           	line	179
  3295                           	global	__size_of_adc
  3296  00C1                     	__size_of_adc	equ	__end_of_adc-_adc
  3297                           ;LIFT.c: 178: void adc()
  3298                           ;LIFT.c: 179: {
  3299                           	
  3300  0F3F                     _adc:	
  3301                           	opt stack 6
  3302                           ; Regs used in _adc: [wreg+status,2+status,0+pclath+cstack]
  3303                           	line	180
  3304                           	
  3305  0F3F                     l30001610:	
  3306                           ;LIFT.c: 180: ADCON0=0X83; ADCON1=0XB0;
  3307  0F3F  3083               	movlw	(083h)
  3308  0F40  1283               	bcf	status, 5	;RP0=0, select bank0
  3309  0F41  1303               	bcf	status, 6	;RP1=0, select bank0
  3310  0F42  009F               	movwf	(31)	;volatile
  3311  0F43  30B0               	movlw	(0B0h)
  3312  0F44  1683               	bsf	status, 5	;RP0=1, select bank1
  3313  0F45  1303               	bcf	status, 6	;RP1=0, select bank1
  3314  0F46  009F               	movwf	(159)^080h
  3315                           	
  3316  0F47                     l26:	
  3317                           	line	181
  3318  0F47  1283               	bcf	status, 5	;RP0=0, select bank0
  3319  0F48  189F               	btfsc	(31),(1)&7	;volatile
  3320  0F49  2F4B               	goto	u3001
  3321  0F4A  2F4C               	goto	u3000
  3322  0F4B                     u3001:
  3323  0F4B  2F47               	goto	l26
  3324  0F4C                     u3000:
  3325                           	
  3326  0F4C                     l30001611:	
  3327                           	line	182
  3328                           ;LIFT.c: 182: high=ADRESH; low=ADRESL;
  3329  0F4C  081E               	movf	(30),w	;volatile
  3330  0F4D  00B8               	movwf	(??_adc+0+0)
  3331  0F4E  01B9               	clrf	(??_adc+0+0+1)
  3332+ 0F4F  0838               	movf	0+(??_adc+0+0),w
  3333+ 0F50  00CA               	movwf	(_high)
  3334+ 0F51  0839               	movf	1+(??_adc+0+0),w
  3335+ 0F52  00CB               	movwf	(_high+1)
  3336+ 0F53  1683               	bsf	status, 5	;RP0=1, select bank1
  3337+ 0F54  1303               	bcf	status, 6	;RP1=0, select bank1
  3338+ 0F55  081E               	movf	(158)^080h,w	;volatile
  3339+ 0F56  1283               	bcf	status, 5	;RP0=0, select bank0
  3340+ 0F57  1303               	bcf	status, 6	;RP1=0, select bank0
  3341+ 0F58  00B8               	movwf	(??_adc+0+0)
  3342+ 0F59  01B9               	clrf	(??_adc+0+0+1)
  3343+ 0F5A  0838               	movf	0+(??_adc+0+0),w
  3344+ 0F5B  00F4               	movwf	(_low)
  3345+ 0F5C  0839               	movf	1+(??_adc+0+0),w
  3346+ 0F5D  00F5               	movwf	(_low+1)
  3347+                          	
  3348+ 0F5E                     l30001612:	
  3349+                          	line	184
  3350+                          ;LIFT.c: 184: if(high==0)
  3351+ 0F5E  084B               	movf	((_high+1)),w
  3352+ 0F5F  044A               	iorwf	((_high)),w
  3353+ 0F60  1D03               	skipz
  3354+ 0F61  2F63               	goto	u3011
  3355+ 0F62  2F64               	goto	u3010
  3356+ 0F63                     u3011:
  3357+ 0F63  2F75               	goto	l30001615
  3358+ 0F64                     u3010:
  3359+                          	
  3360+ 0F64                     l30001613:	
  3361+                          	line	186
  3362+                          ;LIFT.c: 185: {
  3363+                          ;LIFT.c: 186: DV=low;
  3364+ 0F64  0875               	movf	(_low+1),w
  3365+ 0F65  01F1               	clrf	(_DV+1)
  3366+ 0F66  07F1               	addwf	(_DV+1)
  3367+ 0F67  0874               	movf	(_low),w
  3368+ 0F68  01F0               	clrf	(_DV)
  3369+ 0F69  07F0               	addwf	(_DV)
  3370+                          
  3371+                          	
  3372+ 0F6A                     l30001614:	
  3373+                          	line	187
  3374+                          ;LIFT.c: 187: count(DV);
  3375+ 0F6A  0871               	movf	(_DV+1),w
  3376+ 0F6B  01B7               	clrf	(?_count+1)
  3377+ 0F6C  07B7               	addwf	(?_count+1)
  3378+ 0F6D  0870               	movf	(_DV),w
  3379+ 0F6E  01B6               	clrf	(?_count)
  3380+ 0F6F  07B6               	addwf	(?_count)
  3381+                          
  3382+ 0F70  120A  158A  22A9   	fcall	_count
      +       120A  158A         
  3383+                          	
  3384+ 0F75                     l30001615:	
  3385+                          	line	190
  3386+                          ;LIFT.c: 188: }
  3387+                          ;LIFT.c: 190: if(high==1)
  3388+ 0F75  3001               	movlw	01h
  3389+ 0F76  1283               	bcf	status, 5	;RP0=0, select bank0
  3390+ 0F77  1303               	bcf	status, 6	;RP1=0, select bank0
  3391+ 0F78  064A               	xorwf	(_high),w
  3392+ 0F79  044B               	iorwf	(_high+1),w
  3393+ 0F7A  1D03               	skipz
  3394+ 0F7B  2F7D               	goto	u3021
  3395+ 0F7C  2F7E               	goto	u3020
  3396+ 0F7D                     u3021:
  3397+ 0F7D  2F91               	goto	l30001618
  3398+ 0F7E                     u3020:
  3399+                          	
  3400+ 0F7E                     l30001616:	
  3401+                          	line	192
  3402+                          ;LIFT.c: 191: {
  3403+                          ;LIFT.c: 192: DV=low+256;
  3404+ 0F7E  0874               	movf	(_low),w
  3405+ 0F7F  3E00               	addlw	low(0100h)
  3406+ 0F80  00F0               	movwf	(_DV)
  3407+ 0F81  0875               	movf	(_low+1),w
  3408+ 0F82  1803               	skipnc
  3409+ 0F83  3E01               	addlw	1
  3410+ 0F84  3E01               	addlw	high(0100h)
  3411+ 0F85  00F1               	movwf	1+(_DV)
  3412+                          	
  3413+ 0F86                     l30001617:	
  3414+                          	line	193
  3415+                          ;LIFT.c: 193: count(DV);
  3416+ 0F86  0871               	movf	(_DV+1),w
  3417+ 0F87  01B7               	clrf	(?_count+1)
  3418+ 0F88  07B7               	addwf	(?_count+1)
  3419+ 0F89  0870               	movf	(_DV),w
  3420+ 0F8A  01B6               	clrf	(?_count)
  3421+ 0F8B  07B6               	addwf	(?_count)
  3422+                          
  3423+ 0F8C  120A  158A  22A9   	fcall	_count
      +       120A  158A         
  3424+                          	
  3425+ 0F91                     l30001618:	
  3426+                          	line	196
  3427+                          ;LIFT.c: 194: }
  3428+                          ;LIFT.c: 196: if(high==2)
  3429+ 0F91  3002               	movlw	02h
  3430+ 0F92  1283               	bcf	status, 5	;RP0=0, select bank0
  3431+ 0F93  1303               	bcf	status, 6	;RP1=0, select bank0
  3432+ 0F94  064A               	xorwf	(_high),w
  3433+ 0F95  044B               	iorwf	(_high+1),w
  3434+ 0F96  1D03               	skipz
  3435+ 0F97  2F99               	goto	u3031
  3436+ 0F98  2F9A               	goto	u3030
  3437+ 0F99                     u3031:
  3438+ 0F99  2FAD               	goto	l30001621
  3439+ 0F9A                     u3030:
  3440+                          	
  3441+ 0F9A                     l30001619:	
  3442+                          	line	198
  3443+                          ;LIFT.c: 197: {
  3444+                          ;LIFT.c: 198: DV=low+512;
  3445+ 0F9A  0874               	movf	(_low),w
  3446+ 0F9B  3E00               	addlw	low(0200h)
  3447+ 0F9C  00F0               	movwf	(_DV)
  3448+ 0F9D  0875               	movf	(_low+1),w
  3449+ 0F9E  1803               	skipnc
  3450+ 0F9F  3E01               	addlw	1
  3451+ 0FA0  3E02               	addlw	high(0200h)
  3452+ 0FA1  00F1               	movwf	1+(_DV)
  3453+                          	
  3454+ 0FA2                     l30001620:	
  3455+                          	line	199
  3456+                          ;LIFT.c: 199: count(DV);
  3457+ 0FA2  0871               	movf	(_DV+1),w
  3458+ 0FA3  01B7               	clrf	(?_count+1)
  3459+ 0FA4  07B7               	addwf	(?_count+1)
  3460+ 0FA5  0870               	movf	(_DV),w
  3461+ 0FA6  01B6               	clrf	(?_count)
  3462+ 0FA7  07B6               	addwf	(?_count)
  3463+                          
  3464+ 0FA8  120A  158A  22A9   	fcall	_count
      +       120A  158A         
  3465+                          	
  3466+ 0FAD                     l30001621:	
  3467+                          	line	202
  3468+                          ;LIFT.c: 200: }
  3469+                          ;LIFT.c: 202: if(high==3)
  3470+ 0FAD  3003               	movlw	03h
  3471+ 0FAE  1283               	bcf	status, 5	;RP0=0, select bank0
  3472+ 0FAF  1303               	bcf	status, 6	;RP1=0, select bank0
  3473+ 0FB0  064A               	xorwf	(_high),w
  3474+ 0FB1  044B               	iorwf	(_high+1),w
  3475+ 0FB2  1D03               	skipz
  3476+ 0FB3  2FB5               	goto	u3041
  3477+ 0FB4  2FB6               	goto	u3040
  3478+ 0FB5                     u3041:
  3479+ 0FB5  2FC9               	goto	l30001624
  3480+ 0FB6                     u3040:
  3481+                          	
  3482+ 0FB6                     l30001622:	
  3483+                          	line	204
  3484+                          ;LIFT.c: 203: {
  3485+                          ;LIFT.c: 204: DV=low+768;
  3486+ 0FB6  0874               	movf	(_low),w
  3487+ 0FB7  3E00               	addlw	low(0300h)
  3488+ 0FB8  00F0               	movwf	(_DV)
  3489+ 0FB9  0875               	movf	(_low+1),w
  3490+ 0FBA  1803               	skipnc
  3491+ 0FBB  3E01               	addlw	1
  3492+ 0FBC  3E03               	addlw	high(0300h)
  3493+ 0FBD  00F1               	movwf	1+(_DV)
  3494+                          	
  3495+ 0FBE                     l30001623:	
  3496+                          	line	205
  3497+                          ;LIFT.c: 205: count(DV);
  3498+ 0FBE  0871               	movf	(_DV+1),w
  3499+ 0FBF  01B7               	clrf	(?_count+1)
  3500+ 0FC0  07B7               	addwf	(?_count+1)
  3501+ 0FC1  0870               	movf	(_DV),w
  3502+ 0FC2  01B6               	clrf	(?_count)
  3503+ 0FC3  07B6               	addwf	(?_count)
  3504+                          
  3505+ 0FC4  120A  158A  22A9   	fcall	_count
      +       120A  158A         
  3506+                          	
  3507+ 0FC9                     l30001624:	
  3508+                          	line	209
  3509+                          ;LIFT.c: 206: }
  3510+                          ;LIFT.c: 209: if(DV>434)
  3511+ 0FC9  0871               	movf	(_DV+1),w
  3512+ 0FCA  3A80               	xorlw	80h
  3513+ 0FCB  1283               	bcf	status, 5	;RP0=0, select bank0
  3514+ 0FCC  1303               	bcf	status, 6	;RP1=0, select bank0
  3515+ 0FCD  00B8               	movwf	(??_adc+0+0)
  3516+ 0FCE  3081               	movlw	(high(01B3h))^80h
  3517+ 0FCF  0238               	subwf	(??_adc+0+0),w
  3518+ 0FD0  1D03               	skipz
  3519+ 0FD1  2FD4               	goto	u3055
  3520+ 0FD2  30B3               	movlw	low(01B3h)
  3521+ 0FD3  0270               	subwf	(_DV),w
  3522+ 0FD4                     u3055:
  3523+                          
  3524+ 0FD4  1C03               	skipc
  3525+ 0FD5  2FD7               	goto	u3051
  3526+ 0FD6  2FD8               	goto	u3050
  3527+ 0FD7                     u3051:
  3528+ 0FD7  2FDB               	goto	l30001626
  3529+ 0FD8                     u3050:
  3530+                          	
  3531+ 0FD8                     l30001625:	
  3532+                          	line	211
  3533+                          ;LIFT.c: 210: {
  3534+                          ;LIFT.c: 211: RC2=1;
  3535+ 0FD8  1283               	bcf	status, 5	;RP0=0, select bank0
  3536+ 0FD9  1303               	bcf	status, 6	;RP1=0, select bank0
  3537+ 0FDA  1507               	bsf	(58/8),(58)&7
  3538+                          	
  3539+ 0FDB                     l30001626:	
  3540+                          	line	215
  3541+                          ;LIFT.c: 213: }
  3542+                          ;LIFT.c: 215: if(DV>434)
  3543+ 0FDB  0871               	movf	(_DV+1),w
  3544+ 0FDC  3A80               	xorlw	80h
  3545+ 0FDD  1283               	bcf	status, 5	;RP0=0, select bank0
  3546+ 0FDE  1303               	bcf	status, 6	;RP1=0, select bank0
  3547+ 0FDF  00B8               	movwf	(??_adc+0+0)
  3548+ 0FE0  3081               	movlw	(high(01B3h))^80h
  3549+ 0FE1  0238               	subwf	(??_adc+0+0),w
  3550+ 0FE2  1D03               	skipz
  3551+ 0FE3  2FE6               	goto	u3065
  3552+ 0FE4  30B3               	movlw	low(01B3h)
  3553+ 0FE5  0270               	subwf	(_DV),w
  3554+ 0FE6                     u3065:
  3555+                          
  3556+ 0FE6  1C03               	skipc
  3557+ 0FE7  2FE9               	goto	u3061
  3558+ 0FE8  2FEA               	goto	u3060
  3559+ 0FE9                     u3061:
  3560+ 0FE9  2FED               	goto	l30001628
  3561+ 0FEA                     u3060:
  3562+                          	
  3563+ 0FEA                     l30001627:	
  3564+                          	line	217
  3565+                          ;LIFT.c: 216: {
  3566+                          ;LIFT.c: 217: RC2=1;
  3567+ 0FEA  1283               	bcf	status, 5	;RP0=0, select bank0
  3568+ 0FEB  1303               	bcf	status, 6	;RP1=0, select bank0
  3569+ 0FEC  1507               	bsf	(58/8),(58)&7
  3570+                          	
  3571+ 0FED                     l30001628:	
  3572+                          	line	221
  3573+                          ;LIFT.c: 219: }
  3574+                          ;LIFT.c: 221: if(DV<413)
  3575+ 0FED  0871               	movf	(_DV+1),w
  3576+ 0FEE  3A80               	xorlw	80h
  3577+ 0FEF  1283               	bcf	status, 5	;RP0=0, select bank0
  3578+ 0FF0  1303               	bcf	status, 6	;RP1=0, select bank0
  3579+ 0FF1  00B8               	movwf	(??_adc+0+0)
  3580+ 0FF2  3081               	movlw	(high(019Dh))^80h
  3581+ 0FF3  0238               	subwf	(??_adc+0+0),w
  3582+ 0FF4  1D03               	skipz
  3583+ 0FF5  2FF8               	goto	u3075
  3584+ 0FF6  309D               	movlw	low(019Dh)
  3585+ 0FF7  0270               	subwf	(_DV),w
  3586+ 0FF8                     u3075:
  3587+                          
  3588+ 0FF8  1803               	skipnc
  3589+ 0FF9  2FFB               	goto	u3071
  3590+ 0FFA  2FFC               	goto	u3070
  3591+ 0FFB                     u3071:
  3592+ 0FFB  2FFF               	goto	l25
  3593+ 0FFC                     u3070:
  3594+                          	
  3595+ 0FFC                     l30001629:	
  3596+                          	line	223
  3597+                          ;LIFT.c: 222: {
  3598+                          ;LIFT.c: 223: RC2=0;
  3599+ 0FFC  1283               	bcf	status, 5	;RP0=0, select bank0
  3600+ 0FFD  1303               	bcf	status, 6	;RP1=0, select bank0
  3601+ 0FFE  1107               	bcf	(58/8),(58)&7
  3602+                          	
  3603+ 0FFF                     l25:	
  3604+ 0FFF  0008               	return
  3605+                          	opt stack 0
  3606+                          GLOBAL	__end_of_adc
  3607+ 1000                     	__end_of_adc:
  3608+                          ; =============== function _adc ends ============
  3609+                          
  3610+                          psect	text152,local,class=CODE,delta=2
  3611+                          global __ptext152
  3612+ 027B                     __ptext152:
  3613+                          	line	238
  3614+                          	signat	_adc,88
  3615+                          	global	_tmr
  3616+                          
  3617+                          ; *************** function _tmr *****************
  3618+                          ; Defined at:
  3619+                          ;		line 439 in file "C:\Users\gowth\Documents\PIC Programs\LIFT\LIFT.c"
  3620+                          ; Parameters:    Size  Location     Type
  3621+                          ;		None
  3622+                          ; Auto vars:     Size  Location     Type
  3623+                          ;		None
  3624+                          ; Return value:  Size  Location     Type
  3625+                          ;		None               void
  3626+                          ; Registers used:
  3627+                          ;		wreg, status,2, status,0, pclath, cstack
  3628+                          ; Tracked objects:
  3629+                          ;		On entry : 0/0
  3630+                          ;		On exit  : 0/0
  3631+                          ;		Unchanged: 0/0
  3632+                          ; Data sizes:     COMMON   BANK0   BANK1   BANK3   BANK2
  3633+                          ;      Locals:         0       0       0       0       0
  3634+                          ;      Temp:     0
  3635+                          ;      Total:    0
  3636+                          ; This function calls:
  3637+                          ;		_command
  3638+                          ;		_string
  3639+                          ; This function is called by:
  3640+                          ;		_main
  3641+                          ; This function uses a non-reentrant model
  3642+                          ; 
  3643+                          psect	text152
  3644+                          	file	"C:\Users\gowth\Documents\PIC Programs\LIFT\LIFT.c"
  3645+                          	line	439
  3646+                          	global	__size_of_tmr
  3647+ 0175                     	__size_of_tmr	equ	__end_of_tmr-_tmr
  3648+                          ;LIFT.c: 438: void tmr()
  3649+                          ;LIFT.c: 439: {
  3650+                          	
  3651+ 027B                     _tmr:	
  3652+                          	opt stack 6
  3653+                          ; Regs used in _tmr: [wreg+status,2+status,0+pclath+cstack]
  3654+                          	line	441
  3655+                          	
  3656+ 027B                     l30001667:	
  3657+                          ;LIFT.c: 441: if(T0IF==1)
  3658+ 027B  1283               	bcf	status, 5	;RP0=0, select bank0
  3659+ 027C  1303               	bcf	status, 6	;RP1=0, select bank0
  3660+ 027D  1D0B               	btfss	(90/8),(90)&7
  3661+ 027E  2A80               	goto	u3201
  3662+ 027F  2A81               	goto	u3200
  3663+ 0280                     u3201:
  3664+ 0280  2A8A               	goto	l30001670
  3665+ 0281                     u3200:
  3666+                          	
  3667+ 0281                     l30001668:	
  3668+                          	line	443
  3669+                          ;LIFT.c: 442: {
  3670+                          ;LIFT.c: 443: counttmr++;
  3671+ 0281  3001               	movlw	low(01h)
  3672+ 0282  07F2               	addwf	(_counttmr),f
  3673+ 0283  1803               	skipnc
  3674+ 0284  0AF3               	incf	(_counttmr+1),f
  3675+ 0285  3000               	movlw	high(01h)
  3676+ 0286  07F3               	addwf	(_counttmr+1),f
  3677+                          	
  3678+ 0287                     l30001669:	
  3679+                          	line	444
  3680+                          ;LIFT.c: 444: T0IF=0;
  3681+ 0287  110B               	bcf	(90/8),(90)&7
  3682+                          	line	445
  3683+                          ;LIFT.c: 445: TMR0=131;
  3684+ 0288  3083               	movlw	(083h)
  3685+ 0289  0081               	movwf	(1)	;volatile
  3686+                          	
  3687+ 028A                     l30001670:	
  3688+                          	line	448
  3689+                          ;LIFT.c: 446: }
  3690+                          ;LIFT.c: 448: if(counttmr==0)
  3691+ 028A  0873               	movf	((_counttmr+1)),w
  3692+ 028B  0472               	iorwf	((_counttmr)),w
  3693+ 028C  1D03               	skipz
  3694+ 028D  2A8F               	goto	u3211
  3695+ 028E  2A90               	goto	u3210
  3696+ 028F                     u3211:
  3697+ 028F  2A9C               	goto	l30001672
  3698+ 0290                     u3210:
  3699+                          	
  3700+ 0290                     l30001671:	
  3701+                          	line	450
  3702+                          ;LIFT.c: 449: {
  3703+                          ;LIFT.c: 450: command(0X01);
  3704+ 0290  3001               	movlw	(01h)
  3705+ 0291  120A  158A  223B   	fcall	_command
      +       120A  118A         
  3706+                          	line	451
  3707+                          ;LIFT.c: 451: string("GROUND FLOOR");
  3708+ 0296  3035               	movlw	((STR_5-__stringbase))&0ffh
  3709+ 0297  120A  118A  2003   	fcall	_string
      +       120A  118A         
  3710+                          	
  3711+ 029C                     l30001672:	
  3712+                          	line	454
  3713+                          ;LIFT.c: 452: }
  3714+                          ;LIFT.c: 454: if(counttmr==375)
  3715+ 029C  3001               	movlw	high(0177h)
  3716+ 029D  0673               	xorwf	(_counttmr+1),w
  3717+ 029E  1D03               	skipz
  3718+ 029F  2AA2               	goto	u3225
  3719+ 02A0  3077               	movlw	low(0177h)
  3720+ 02A1  0672               	xorwf	(_counttmr),w
  3721+ 02A2                     u3225:
  3722+                          
  3723+ 02A2  1D03               	skipz
  3724+ 02A3  2AA5               	goto	u3221
  3725+ 02A4  2AA6               	goto	u3220
  3726+ 02A5                     u3221:
  3727+ 02A5  2AAD               	goto	l30001674
  3728+ 02A6                     u3220:
  3729+                          	
  3730+ 02A6                     l30001673:	
  3731+                          	line	456
  3732+                          ;LIFT.c: 455: {
  3733+                          ;LIFT.c: 456: RC0=1;
  3734+ 02A6  1283               	bcf	status, 5	;RP0=0, select bank0
  3735+ 02A7  1303               	bcf	status, 6	;RP1=0, select bank0
  3736+ 02A8  1407               	bsf	(56/8),(56)&7
  3737+                          	line	457
  3738+                          ;LIFT.c: 457: RC4=0;
  3739+ 02A9  1207               	bcf	(60/8),(60)&7
  3740+                          	line	458
  3741+                          ;LIFT.c: 458: RC5=0;
  3742+ 02AA  1287               	bcf	(61/8),(61)&7
  3743+                          	line	459
  3744+                          ;LIFT.c: 459: RC6=0;
  3745+ 02AB  1307               	bcf	(62/8),(62)&7
  3746+                          	line	460
  3747+                          ;LIFT.c: 460: RC7=0;
  3748+ 02AC  1387               	bcf	(63/8),(63)&7
  3749+                          	
  3750+ 02AD                     l30001674:	
  3751+                          	line	463
  3752+                          ;LIFT.c: 461: }
  3753+                          ;LIFT.c: 463: if(counttmr==750)
  3754+ 02AD  3002               	movlw	high(02EEh)
  3755+ 02AE  0673               	xorwf	(_counttmr+1),w
  3756+ 02AF  1D03               	skipz
  3757+ 02B0  2AB3               	goto	u3235
  3758+ 02B1  30EE               	movlw	low(02EEh)
  3759+ 02B2  0672               	xorwf	(_counttmr),w
  3760+ 02B3                     u3235:
  3761+                          
  3762+ 02B3  1D03               	skipz
  3763+ 02B4  2AB6               	goto	u3231
  3764+ 02B5  2AB7               	goto	u3230
  3765+ 02B6                     u3231:
  3766+ 02B6  2ACA               	goto	l30001677
  3767+ 02B7                     u3230:
  3768+                          	
  3769+ 02B7                     l30001675:	
  3770+                          	line	465
  3771+                          ;LIFT.c: 464: {
  3772+                          ;LIFT.c: 465: RC0=0;
  3773+ 02B7  1283               	bcf	status, 5	;RP0=0, select bank0
  3774+ 02B8  1303               	bcf	status, 6	;RP1=0, select bank0
  3775+ 02B9  1007               	bcf	(56/8),(56)&7
  3776+                          	line	466
  3777+                          ;LIFT.c: 466: RC4=1;
  3778+ 02BA  1607               	bsf	(60/8),(60)&7
  3779+                          	line	467
  3780+                          ;LIFT.c: 467: RC5=0;
  3781+ 02BB  1287               	bcf	(61/8),(61)&7
  3782+                          	line	468
  3783+                          ;LIFT.c: 468: RC6=0;
  3784+ 02BC  1307               	bcf	(62/8),(62)&7
  3785+                          	line	469
  3786+                          ;LIFT.c: 469: RC7=0;
  3787+ 02BD  1387               	bcf	(63/8),(63)&7
  3788+                          	
  3789+ 02BE                     l30001676:	
  3790+                          	line	470
  3791+                          ;LIFT.c: 470: command(0X01);
  3792+ 02BE  3001               	movlw	(01h)
  3793+ 02BF  120A  158A  223B   	fcall	_command
      +       120A  118A         
  3794+                          	line	471
  3795+                          ;LIFT.c: 471: string("FIRST FLOOR");
  3796+ 02C4  3068               	movlw	((STR_6-__stringbase))&0ffh
  3797+ 02C5  120A  118A  2003   	fcall	_string
      +       120A  118A         
  3798+                          	
  3799+ 02CA                     l30001677:	
  3800+                          	line	474
  3801+                          ;LIFT.c: 472: }
  3802+                          ;LIFT.c: 474: if(counttmr==875)
  3803+ 02CA  3003               	movlw	high(036Bh)
  3804+ 02CB  0673               	xorwf	(_counttmr+1),w
  3805+ 02CC  1D03               	skipz
  3806+ 02CD  2AD0               	goto	u3245
  3807+ 02CE  306B               	movlw	low(036Bh)
  3808+ 02CF  0672               	xorwf	(_counttmr),w
  3809+ 02D0                     u3245:
  3810+                          
  3811+ 02D0  1D03               	skipz
  3812+ 02D1  2AD3               	goto	u3241
  3813+ 02D2  2AD4               	goto	u3240
  3814+ 02D3                     u3241:
  3815+ 02D3  2ADB               	goto	l30001679
  3816+ 02D4                     u3240:
  3817+                          	
  3818+ 02D4                     l30001678:	
  3819+                          	line	476
  3820+                          ;LIFT.c: 475: {
  3821+                          ;LIFT.c: 476: RC0=1;
  3822+ 02D4  1283               	bcf	status, 5	;RP0=0, select bank0
  3823+ 02D5  1303               	bcf	status, 6	;RP1=0, select bank0
  3824+ 02D6  1407               	bsf	(56/8),(56)&7
  3825+                          	line	477
  3826+                          ;LIFT.c: 477: RC4=0;
  3827+ 02D7  1207               	bcf	(60/8),(60)&7
  3828+                          	line	478
  3829+                          ;LIFT.c: 478: RC5=0;
  3830+ 02D8  1287               	bcf	(61/8),(61)&7
  3831+                          	line	479
  3832+                          ;LIFT.c: 479: RC6=0;
  3833+ 02D9  1307               	bcf	(62/8),(62)&7
  3834+                          	line	480
  3835+                          ;LIFT.c: 480: RC7=0;
  3836+ 02DA  1387               	bcf	(63/8),(63)&7
  3837+                          	
  3838+ 02DB                     l30001679:	
  3839+                          	line	484
  3840+                          ;LIFT.c: 481: }
  3841+                          ;LIFT.c: 484: if(counttmr==1250)
  3842+ 02DB  3004               	movlw	high(04E2h)
  3843+ 02DC  0673               	xorwf	(_counttmr+1),w
  3844+ 02DD  1D03               	skipz
  3845+ 02DE  2AE1               	goto	u3255
  3846+ 02DF  30E2               	movlw	low(04E2h)
  3847+ 02E0  0672               	xorwf	(_counttmr),w
  3848+ 02E1                     u3255:
  3849+                          
  3850+ 02E1  1D03               	skipz
  3851+ 02E2  2AE4               	goto	u3251
  3852+ 02E3  2AE5               	goto	u3250
  3853+ 02E4                     u3251:
  3854+ 02E4  2AF8               	goto	l30001682
  3855+ 02E5                     u3250:
  3856+                          	
  3857+ 02E5                     l30001680:	
  3858+                          	line	486
  3859+                          ;LIFT.c: 485: {
  3860+                          ;LIFT.c: 486: RC0=0;
  3861+ 02E5  1283               	bcf	status, 5	;RP0=0, select bank0
  3862+ 02E6  1303               	bcf	status, 6	;RP1=0, select bank0
  3863+ 02E7  1007               	bcf	(56/8),(56)&7
  3864+                          	line	487
  3865+                          ;LIFT.c: 487: RC4=0;
  3866+ 02E8  1207               	bcf	(60/8),(60)&7
  3867+                          	line	488
  3868+                          ;LIFT.c: 488: RC5=1;
  3869+ 02E9  1687               	bsf	(61/8),(61)&7
  3870+                          	line	489
  3871+                          ;LIFT.c: 489: RC6=0;
  3872+ 02EA  1307               	bcf	(62/8),(62)&7
  3873+                          	line	490
  3874+                          ;LIFT.c: 490: RC7=0;
  3875+ 02EB  1387               	bcf	(63/8),(63)&7
  3876+                          	
  3877+ 02EC                     l30001681:	
  3878+                          	line	491
  3879+                          ;LIFT.c: 491: command(0X01);
  3880+ 02EC  3001               	movlw	(01h)
  3881+ 02ED  120A  158A  223B   	fcall	_command
      +       120A  118A         
  3882+                          	line	492
  3883+                          ;LIFT.c: 492: string("SECOND FLOOR");
  3884+ 02F2  300E               	movlw	((STR_7-__stringbase))&0ffh
  3885+ 02F3  120A  118A  2003   	fcall	_string
      +       120A  118A         
  3886+                          	
  3887+ 02F8                     l30001682:	
  3888+                          	line	495
  3889+                          ;LIFT.c: 493: }
  3890+                          ;LIFT.c: 495: if(counttmr==1375)
  3891+ 02F8  3005               	movlw	high(055Fh)
  3892+ 02F9  0673               	xorwf	(_counttmr+1),w
  3893+ 02FA  1D03               	skipz
  3894+ 02FB  2AFE               	goto	u3265
  3895+ 02FC  305F               	movlw	low(055Fh)
  3896+ 02FD  0672               	xorwf	(_counttmr),w
  3897+ 02FE                     u3265:
  3898+                          
  3899+ 02FE  1D03               	skipz
  3900+ 02FF  2B01               	goto	u3261
  3901+ 0300  2B02               	goto	u3260
  3902+ 0301                     u3261:
  3903+ 0301  2B09               	goto	l30001684
  3904+ 0302                     u3260:
  3905+                          	
  3906+ 0302                     l30001683:	
  3907+                          	line	497
  3908+                          ;LIFT.c: 496: {
  3909+                          ;LIFT.c: 497: RC0=1;
  3910+ 0302  1283               	bcf	status, 5	;RP0=0, select bank0
  3911+ 0303  1303               	bcf	status, 6	;RP1=0, select bank0
  3912+ 0304  1407               	bsf	(56/8),(56)&7
  3913+                          	line	498
  3914+                          ;LIFT.c: 498: RC4=0;
  3915+ 0305  1207               	bcf	(60/8),(60)&7
  3916+                          	line	499
  3917+                          ;LIFT.c: 499: RC5=0;
  3918+ 0306  1287               	bcf	(61/8),(61)&7
  3919+                          	line	500
  3920+                          ;LIFT.c: 500: RC6=0;
  3921+ 0307  1307               	bcf	(62/8),(62)&7
  3922+                          	line	501
  3923+                          ;LIFT.c: 501: RC7=0;
  3924+ 0308  1387               	bcf	(63/8),(63)&7
  3925+                          	
  3926+ 0309                     l30001684:	
  3927+                          	line	505
  3928+                          ;LIFT.c: 502: }
  3929+                          ;LIFT.c: 505: if(counttmr==1750)
  3930+ 0309  3006               	movlw	high(06D6h)
  3931+ 030A  0673               	xorwf	(_counttmr+1),w
  3932+ 030B  1D03               	skipz
  3933+ 030C  2B0F               	goto	u3275
  3934+ 030D  30D6               	movlw	low(06D6h)
  3935+ 030E  0672               	xorwf	(_counttmr),w
  3936+ 030F                     u3275:
  3937+                          
  3938+ 030F  1D03               	skipz
  3939+ 0310  2B12               	goto	u3271
  3940+ 0311  2B13               	goto	u3270
  3941+ 0312                     u3271:
  3942+ 0312  2B26               	goto	l30001687
  3943+ 0313                     u3270:
  3944+                          	
  3945+ 0313                     l30001685:	
  3946+                          	line	507
  3947+                          ;LIFT.c: 506: {
  3948+                          ;LIFT.c: 507: RC0=0;
  3949+ 0313  1283               	bcf	status, 5	;RP0=0, select bank0
  3950+ 0314  1303               	bcf	status, 6	;RP1=0, select bank0
  3951+ 0315  1007               	bcf	(56/8),(56)&7
  3952+                          	line	508
  3953+                          ;LIFT.c: 508: RC4=0;
  3954+ 0316  1207               	bcf	(60/8),(60)&7
  3955+                          	line	509
  3956+                          ;LIFT.c: 509: RC5=0;
  3957+ 0317  1287               	bcf	(61/8),(61)&7
  3958+                          	line	510
  3959+                          ;LIFT.c: 510: RC6=1;
  3960+ 0318  1707               	bsf	(62/8),(62)&7
  3961+                          	line	511
  3962+                          ;LIFT.c: 511: RC7=0;
  3963+ 0319  1387               	bcf	(63/8),(63)&7
  3964+                          	
  3965+ 031A                     l30001686:	
  3966+                          	line	512
  3967+                          ;LIFT.c: 512: command(0X01);
  3968+ 031A  3001               	movlw	(01h)
  3969+ 031B  120A  158A  223B   	fcall	_command
      +       120A  118A         
  3970+                          	line	513
  3971+                          ;LIFT.c: 513: string("THIRD FLOOR");
  3972+ 0320  305C               	movlw	((STR_8-__stringbase))&0ffh
  3973+ 0321  120A  118A  2003   	fcall	_string
      +       120A  118A         
  3974+                          	
  3975+ 0326                     l30001687:	
  3976+                          	line	516
  3977+                          ;LIFT.c: 514: }
  3978+                          ;LIFT.c: 516: if(counttmr==1875)
  3979+ 0326  3007               	movlw	high(0753h)
  3980+ 0327  0673               	xorwf	(_counttmr+1),w
  3981+ 0328  1D03               	skipz
  3982+ 0329  2B2C               	goto	u3285
  3983+ 032A  3053               	movlw	low(0753h)
  3984+ 032B  0672               	xorwf	(_counttmr),w
  3985+ 032C                     u3285:
  3986+                          
  3987+ 032C  1D03               	skipz
  3988+ 032D  2B2F               	goto	u3281
  3989+ 032E  2B30               	goto	u3280
  3990+ 032F                     u3281:
  3991+ 032F  2B37               	goto	l30001689
  3992+ 0330                     u3280:
  3993+                          	
  3994+ 0330                     l30001688:	
  3995+                          	line	518
  3996+                          ;LIFT.c: 517: {
  3997+                          ;LIFT.c: 518: RC0=1;
  3998+ 0330  1283               	bcf	status, 5	;RP0=0, select bank0
  3999+ 0331  1303               	bcf	status, 6	;RP1=0, select bank0
  4000+ 0332  1407               	bsf	(56/8),(56)&7
  4001                           	line	519
  4002                           ;LIFT.c: 519: RC4=0;
  4003  0333  1207               	bcf	(60/8),(60)&7
  4004                           	line	520
  4005                           ;LIFT.c: 520: RC5=0;
  4006  0334  1287               	bcf	(61/8),(61)&7
  4007                           	line	521
  4008                           ;LIFT.c: 521: RC6=0;
  4009  0335  1307               	bcf	(62/8),(62)&7
  4010                           	line	522
  4011                           ;LIFT.c: 522: RC7=0;
  4012  0336  1387               	bcf	(63/8),(63)&7
  4013                           	
  4014  0337                     l30001689:	
  4015                           	line	525
  4016                           ;LIFT.c: 523: }
  4017                           ;LIFT.c: 525: if(counttmr==2250)
  4018  0337  3008               	movlw	high(08CAh)
  4019  0338  0673               	xorwf	(_counttmr+1),w
  4020  0339  1D03               	skipz
  4021  033A  2B3D               	goto	u3295
  4022  033B  30CA               	movlw	low(08CAh)
  4023  033C  0672               	xorwf	(_counttmr),w
  4024  033D                     u3295:
  4025                           
  4026  033D  1D03               	skipz
  4027  033E  2B40               	goto	u3291
  4028  033F  2B41               	goto	u3290
  4029  0340                     u3291:
  4030  0340  2B54               	goto	l30001692
  4031  0341                     u3290:
  4032                           	
  4033  0341                     l30001690:	
  4034                           	line	527
  4035                           ;LIFT.c: 526: {
  4036                           ;LIFT.c: 527: RC0=0;
  4037  0341  1283               	bcf	status, 5	;RP0=0, select bank0
  4038  0342  1303               	bcf	status, 6	;RP1=0, select bank0
  4039  0343  1007               	bcf	(56/8),(56)&7
  4040                           	line	528
  4041                           ;LIFT.c: 528: RC4=0;
  4042  0344  1207               	bcf	(60/8),(60)&7
  4043                           	line	529
  4044                           ;LIFT.c: 529: RC5=0;
  4045  0345  1287               	bcf	(61/8),(61)&7
  4046                           	line	530
  4047                           ;LIFT.c: 530: RC6=0;
  4048  0346  1307               	bcf	(62/8),(62)&7
  4049                           	line	531
  4050                           ;LIFT.c: 531: RC7=1;
  4051  0347  1787               	bsf	(63/8),(63)&7
  4052                           	
  4053  0348                     l30001691:	
  4054                           	line	532
  4055                           ;LIFT.c: 532: command(0X01);
  4056  0348  3001               	movlw	(01h)
  4057  0349  120A  158A  223B   	fcall	_command
              120A  118A         
  4058                           	line	533
  4059                           ;LIFT.c: 533: string("FOURTH FLOOR");
  4060  034E  304F               	movlw	((STR_9-__stringbase))&0ffh
  4061  034F  120A  118A  2003   	fcall	_string
              120A  118A         
  4062                           	
  4063  0354                     l30001692:	
  4064                           	line	536
  4065                           ;LIFT.c: 534: }
  4066                           ;LIFT.c: 536: if(counttmr==2375)
  4067  0354  3009               	movlw	high(0947h)
  4068  0355  0673               	xorwf	(_counttmr+1),w
  4069  0356  1D03               	skipz
  4070  0357  2B5A               	goto	u3305
  4071  0358  3047               	movlw	low(0947h)
  4072  0359  0672               	xorwf	(_counttmr),w
  4073  035A                     u3305:
  4074                           
  4075  035A  1D03               	skipz
  4076  035B  2B5D               	goto	u3301
  4077  035C  2B5E               	goto	u3300
  4078  035D                     u3301:
  4079  035D  2B65               	goto	l30001694
  4080  035E                     u3300:
  4081                           	
  4082  035E                     l30001693:	
  4083                           	line	538
  4084                           ;LIFT.c: 537: {
  4085                           ;LIFT.c: 538: RC1=1;
  4086  035E  1283               	bcf	status, 5	;RP0=0, select bank0
  4087  035F  1303               	bcf	status, 6	;RP1=0, select bank0
  4088  0360  1487               	bsf	(57/8),(57)&7
  4089                           	line	539
  4090                           ;LIFT.c: 539: RC4=0;
  4091  0361  1207               	bcf	(60/8),(60)&7
  4092                           	line	540
  4093                           ;LIFT.c: 540: RC5=0;
  4094  0362  1287               	bcf	(61/8),(61)&7
  4095                           	line	541
  4096                           ;LIFT.c: 541: RC6=0;
  4097  0363  1307               	bcf	(62/8),(62)&7
  4098                           	line	542
  4099                           ;LIFT.c: 542: RC7=0;
  4100  0364  1387               	bcf	(63/8),(63)&7
  4101                           	
  4102  0365                     l30001694:	
  4103                           	line	545
  4104                           ;LIFT.c: 543: }
  4105                           ;LIFT.c: 545: if(counttmr==2750)
  4106  0365  300A               	movlw	high(0ABEh)
  4107  0366  0673               	xorwf	(_counttmr+1),w
  4108  0367  1D03               	skipz
  4109  0368  2B6B               	goto	u3315
  4110  0369  30BE               	movlw	low(0ABEh)
  4111  036A  0672               	xorwf	(_counttmr),w
  4112  036B                     u3315:
  4113                           
  4114  036B  1D03               	skipz
  4115  036C  2B6E               	goto	u3311
  4116  036D  2B6F               	goto	u3310
  4117  036E                     u3311:
  4118  036E  2B82               	goto	l30001697
  4119  036F                     u3310:
  4120                           	
  4121  036F                     l30001695:	
  4122                           	line	547
  4123                           ;LIFT.c: 546: {
  4124                           ;LIFT.c: 547: RC1=0;
  4125  036F  1283               	bcf	status, 5	;RP0=0, select bank0
  4126  0370  1303               	bcf	status, 6	;RP1=0, select bank0
  4127  0371  1087               	bcf	(57/8),(57)&7
  4128                           	line	548
  4129                           ;LIFT.c: 548: RC4=0;
  4130  0372  1207               	bcf	(60/8),(60)&7
  4131                           	line	549
  4132                           ;LIFT.c: 549: RC5=0;
  4133  0373  1287               	bcf	(61/8),(61)&7
  4134                           	line	550
  4135                           ;LIFT.c: 550: RC6=1;
  4136  0374  1707               	bsf	(62/8),(62)&7
  4137                           	line	551
  4138                           ;LIFT.c: 551: RC7=0;
  4139  0375  1387               	bcf	(63/8),(63)&7
  4140                           	
  4141  0376                     l30001696:	
  4142                           	line	552
  4143                           ;LIFT.c: 552: command(0X01);
  4144  0376  3001               	movlw	(01h)
  4145  0377  120A  158A  223B   	fcall	_command
              120A  118A         
  4146                           	line	553
  4147                           ;LIFT.c: 553: string("THIRD FLOOR");
  4148  037C  305C               	movlw	((STR_10-__stringbase))&0ffh
  4149  037D  120A  118A  2003   	fcall	_string
              120A  118A         
  4150                           	
  4151  0382                     l30001697:	
  4152                           	line	556
  4153                           ;LIFT.c: 554: }
  4154                           ;LIFT.c: 556: if(counttmr==2875)
  4155  0382  300B               	movlw	high(0B3Bh)
  4156  0383  0673               	xorwf	(_counttmr+1),w
  4157  0384  1D03               	skipz
  4158  0385  2B88               	goto	u3325
  4159  0386  303B               	movlw	low(0B3Bh)
  4160  0387  0672               	xorwf	(_counttmr),w
  4161  0388                     u3325:
  4162                           
  4163  0388  1D03               	skipz
  4164  0389  2B8B               	goto	u3321
  4165  038A  2B8C               	goto	u3320
  4166  038B                     u3321:
  4167  038B  2B93               	goto	l30001699
  4168  038C                     u3320:
  4169                           	
  4170  038C                     l30001698:	
  4171                           	line	558
  4172                           ;LIFT.c: 557: {
  4173                           ;LIFT.c: 558: RC1=1;
  4174  038C  1283               	bcf	status, 5	;RP0=0, select bank0
  4175  038D  1303               	bcf	status, 6	;RP1=0, select bank0
  4176  038E  1487               	bsf	(57/8),(57)&7
  4177                           	line	559
  4178                           ;LIFT.c: 559: RC4=0;
  4179  038F  1207               	bcf	(60/8),(60)&7
  4180                           	line	560
  4181                           ;LIFT.c: 560: RC5=0;
  4182  0390  1287               	bcf	(61/8),(61)&7
  4183                           	line	561
  4184                           ;LIFT.c: 561: RC6=0;
  4185  0391  1307               	bcf	(62/8),(62)&7
  4186                           	line	562
  4187                           ;LIFT.c: 562: RC7=0;
  4188  0392  1387               	bcf	(63/8),(63)&7
  4189                           	
  4190  0393                     l30001699:	
  4191                           	line	565
  4192                           ;LIFT.c: 563: }
  4193                           ;LIFT.c: 565: if(counttmr==3250)
  4194  0393  300C               	movlw	high(0CB2h)
  4195  0394  0673               	xorwf	(_counttmr+1),w
  4196  0395  1D03               	skipz
  4197  0396  2B99               	goto	u3335
  4198  0397  30B2               	movlw	low(0CB2h)
  4199  0398  0672               	xorwf	(_counttmr),w
  4200  0399                     u3335:
  4201                           
  4202  0399  1D03               	skipz
  4203  039A  2B9C               	goto	u3331
  4204  039B  2B9D               	goto	u3330
  4205  039C                     u3331:
  4206  039C  2BB0               	goto	l30001702
  4207  039D                     u3330:
  4208                           	
  4209  039D                     l30001700:	
  4210                           	line	567
  4211                           ;LIFT.c: 566: {
  4212                           ;LIFT.c: 567: RC1=0;
  4213  039D  1283               	bcf	status, 5	;RP0=0, select bank0
  4214  039E  1303               	bcf	status, 6	;RP1=0, select bank0
  4215  039F  1087               	bcf	(57/8),(57)&7
  4216                           	line	568
  4217                           ;LIFT.c: 568: RC4=0;
  4218  03A0  1207               	bcf	(60/8),(60)&7
  4219                           	line	569
  4220                           ;LIFT.c: 569: RC5=1;
  4221  03A1  1687               	bsf	(61/8),(61)&7
  4222                           	line	570
  4223                           ;LIFT.c: 570: RC6=0;
  4224  03A2  1307               	bcf	(62/8),(62)&7
  4225                           	line	571
  4226                           ;LIFT.c: 571: RC7=0;
  4227  03A3  1387               	bcf	(63/8),(63)&7
  4228                           	
  4229  03A4                     l30001701:	
  4230                           	line	572
  4231                           ;LIFT.c: 572: command(0X01);
  4232  03A4  3001               	movlw	(01h)
  4233  03A5  120A  158A  223B   	fcall	_command
              120A  118A         
  4234                           	line	573
  4235                           ;LIFT.c: 573: string("SECOND FLOOR");
  4236  03AA  300E               	movlw	((STR_11-__stringbase))&0ffh
  4237  03AB  120A  118A  2003   	fcall	_string
              120A  118A         
  4238                           	
  4239  03B0                     l30001702:	
  4240                           	line	576
  4241                           ;LIFT.c: 574: }
  4242                           ;LIFT.c: 576: if(counttmr==3375)
  4243  03B0  300D               	movlw	high(0D2Fh)
  4244  03B1  0673               	xorwf	(_counttmr+1),w
  4245  03B2  1D03               	skipz
  4246  03B3  2BB6               	goto	u3345
  4247  03B4  302F               	movlw	low(0D2Fh)
  4248  03B5  0672               	xorwf	(_counttmr),w
  4249  03B6                     u3345:
  4250                           
  4251  03B6  1D03               	skipz
  4252  03B7  2BB9               	goto	u3341
  4253  03B8  2BBA               	goto	u3340
  4254  03B9                     u3341:
  4255  03B9  2BC1               	goto	l30001704
  4256  03BA                     u3340:
  4257                           	
  4258  03BA                     l30001703:	
  4259                           	line	578
  4260                           ;LIFT.c: 577: {
  4261                           ;LIFT.c: 578: RC1=1;
  4262  03BA  1283               	bcf	status, 5	;RP0=0, select bank0
  4263  03BB  1303               	bcf	status, 6	;RP1=0, select bank0
  4264  03BC  1487               	bsf	(57/8),(57)&7
  4265                           	line	579
  4266                           ;LIFT.c: 579: RC4=0;
  4267  03BD  1207               	bcf	(60/8),(60)&7
  4268                           	line	580
  4269                           ;LIFT.c: 580: RC5=0;
  4270  03BE  1287               	bcf	(61/8),(61)&7
  4271                           	line	581
  4272                           ;LIFT.c: 581: RC6=0;
  4273  03BF  1307               	bcf	(62/8),(62)&7
  4274                           	line	582
  4275                           ;LIFT.c: 582: RC7=0;
  4276  03C0  1387               	bcf	(63/8),(63)&7
  4277                           	
  4278  03C1                     l30001704:	
  4279                           	line	585
  4280                           ;LIFT.c: 583: }
  4281                           ;LIFT.c: 585: if(counttmr==3750)
  4282  03C1  300E               	movlw	high(0EA6h)
  4283  03C2  0673               	xorwf	(_counttmr+1),w
  4284  03C3  1D03               	skipz
  4285  03C4  2BC7               	goto	u3355
  4286  03C5  30A6               	movlw	low(0EA6h)
  4287  03C6  0672               	xorwf	(_counttmr),w
  4288  03C7                     u3355:
  4289                           
  4290  03C7  1D03               	skipz
  4291  03C8  2BCA               	goto	u3351
  4292  03C9  2BCB               	goto	u3350
  4293  03CA                     u3351:
  4294  03CA  2BDE               	goto	l30001707
  4295  03CB                     u3350:
  4296                           	
  4297  03CB                     l30001705:	
  4298                           	line	587
  4299                           ;LIFT.c: 586: {
  4300                           ;LIFT.c: 587: RC1=0;
  4301  03CB  1283               	bcf	status, 5	;RP0=0, select bank0
  4302  03CC  1303               	bcf	status, 6	;RP1=0, select bank0
  4303  03CD  1087               	bcf	(57/8),(57)&7
  4304                           	line	588
  4305                           ;LIFT.c: 588: RC4=1;
  4306  03CE  1607               	bsf	(60/8),(60)&7
  4307                           	line	589
  4308                           ;LIFT.c: 589: RC5=0;
  4309  03CF  1287               	bcf	(61/8),(61)&7
  4310                           	line	590
  4311                           ;LIFT.c: 590: RC6=0;
  4312  03D0  1307               	bcf	(62/8),(62)&7
  4313                           	line	591
  4314                           ;LIFT.c: 591: RC7=0;
  4315  03D1  1387               	bcf	(63/8),(63)&7
  4316                           	
  4317  03D2                     l30001706:	
  4318                           	line	592
  4319                           ;LIFT.c: 592: command(0X01);
  4320  03D2  3001               	movlw	(01h)
  4321  03D3  120A  158A  223B   	fcall	_command
              120A  118A         
  4322                           	line	593
  4323                           ;LIFT.c: 593: string("FIRST FLOOR");
  4324  03D8  3068               	movlw	((STR_12-__stringbase))&0ffh
  4325  03D9  120A  118A  2003   	fcall	_string
              120A  118A         
  4326                           	
  4327  03DE                     l30001707:	
  4328                           	line	596
  4329                           ;LIFT.c: 594: }
  4330                           ;LIFT.c: 596: if(counttmr==3875)
  4331  03DE  300F               	movlw	high(0F23h)
  4332  03DF  0673               	xorwf	(_counttmr+1),w
  4333  03E0  1D03               	skipz
  4334  03E1  2BE4               	goto	u3365
  4335  03E2  3023               	movlw	low(0F23h)
  4336  03E3  0672               	xorwf	(_counttmr),w
  4337  03E4                     u3365:
  4338                           
  4339  03E4  1D03               	skipz
  4340  03E5  2BE7               	goto	u3361
  4341  03E6  2BE8               	goto	u3360
  4342  03E7                     u3361:
  4343  03E7  2BEF               	goto	l54
  4344  03E8                     u3360:
  4345                           	
  4346  03E8                     l30001708:	
  4347                           	line	598
  4348                           ;LIFT.c: 597: {
  4349                           ;LIFT.c: 598: RC4=0;
  4350  03E8  1283               	bcf	status, 5	;RP0=0, select bank0
  4351  03E9  1303               	bcf	status, 6	;RP1=0, select bank0
  4352  03EA  1207               	bcf	(60/8),(60)&7
  4353                           	
  4354  03EB                     l30001709:	
  4355                           	line	599
  4356                           ;LIFT.c: 599: counttmr=0;
  4357  03EB  3000               	movlw	low(0)
  4358  03EC  00F2               	movwf	(_counttmr)
  4359  03ED  3000               	movlw	high(0)
  4360  03EE  00F3               	movwf	((_counttmr))+1
  4361                           	
  4362  03EF                     l54:	
  4363  03EF  0008               	return
  4364                           	opt stack 0
  4365                           GLOBAL	__end_of_tmr
  4366  03F0                     	__end_of_tmr:
  4367                           ; =============== function _tmr ends ============
  4368                           
  4369                           psect	text153,local,class=CODE,delta=2
  4370                           global __ptext153
  4371  0053                     __ptext153:
  4372                           	line	603
  4373                           	signat	_tmr,88
  4374                           	global	___ftmul
  4375                           
  4376                           ; *************** function ___ftmul *****************
  4377                           ; Defined at:
  4378                           ;		line 52 in file "C:\Program Files (x86)\HI-TECH Software\PICC\9.70\sources\ftmul.c"
  4379                           ; Parameters:    Size  Location     Type
  4380                           ;  f1              3   19[BANK0 ] float 
  4381                           ;  f2              3   22[BANK0 ] float 
  4382                           ; Auto vars:     Size  Location     Type
  4383                           ;  f3_as_produc    3   14[BANK0 ] unsigned um
  4384                           ;  sign            1   18[BANK0 ] unsigned char 
  4385                           ;  cntr            1   17[BANK0 ] unsigned char 
  4386                           ;  exp             1   13[BANK0 ] unsigned char 
  4387                           ; Return value:  Size  Location     Type
  4388                           ;                  3   19[BANK0 ] float 
  4389                           ; Registers used:
  4390                           ;		wreg, status,2, status,0, pclath, cstack
  4391                           ; Tracked objects:
  4392                           ;		On entry : 0/0
  4393                           ;		On exit  : 0/0
  4394                           ;		Unchanged: 0/0
  4395                           ; Data sizes:     COMMON   BANK0   BANK1   BANK3   BANK2
  4396                           ;      Locals:         0      16       0       0       0
  4397                           ;      Temp:     4
  4398                           ;      Total:   16
  4399                           ; This function calls:
  4400                           ;		___ftpack
  4401                           ; This function is called by:
  4402                           ;		_temperature
  4403                           ; This function uses a non-reentrant model
  4404                           ; 
  4405                           psect	text153
  4406                           	file	"C:\Program Files (x86)\HI-TECH Software\PICC\9.70\sources\ftmul.c"
  4407                           	line	52
  4408                           	global	__size_of___ftmul
  4409  00DC                     	__size_of___ftmul	equ	__end_of___ftmul-___ftmul
  4410                           	
  4411  0053                     ___ftmul:	
  4412                           	opt stack 5
  4413                           ; Regs used in ___ftmul: [wreg+status,2+status,0+pclath+cstack]
  4414                           	line	56
  4415                           	
  4416  0053                     l30001758:	
  4417  0053  1283               	bcf	status, 5	;RP0=0, select bank0
  4418  0054  1303               	bcf	status, 6	;RP1=0, select bank0
  4419  0055  0833               	movf	(___ftmul@f1),w
  4420  0056  00A9               	movwf	(??___ftmul+0+0)
  4421  0057  0834               	movf	(___ftmul@f1+1),w
  4422  0058  00AA               	movwf	(??___ftmul+0+0+1)
  4423  0059  0835               	movf	(___ftmul@f1+2),w
  4424  005A  00AB               	movwf	(??___ftmul+0+0+2)
  4425  005B  1003               	clrc
  4426  005C  0D2A               	rlf	(??___ftmul+0+1),w
  4427  005D  0D2B               	rlf	(??___ftmul+0+2),w
  4428  005E  00AD               	movwf	(___ftmul@exp)
  4429  005F  08AD               	movf	((___ftmul@exp))&07fh,f
  4430  0060  1D03               	skipz
  4431  0061  2863               	goto	u3591
  4432  0062  2864               	goto	u3590
  4433  0063                     u3591:
  4434  0063  286B               	goto	l30001761
  4435  0064                     u3590:
  4436                           	
  4437  0064                     l30001759:	
  4438                           	line	57
  4439  0064  3000               	movlw	0x0
  4440  0065  00B3               	movwf	(?___ftmul)
  4441  0066  3000               	movlw	0x0
  4442  0067  00B4               	movwf	(?___ftmul+1)
  4443  0068  3000               	movlw	0x0
  4444  0069  00B5               	movwf	(?___ftmul+2)
  4445  006A  292E               	goto	l156
  4446                           	
  4447  006B                     l30001761:	
  4448                           	line	58
  4449  006B  0836               	movf	(___ftmul@f2),w
  4450  006C  00A9               	movwf	(??___ftmul+0+0)
  4451  006D  0837               	movf	(___ftmul@f2+1),w
  4452  006E  00AA               	movwf	(??___ftmul+0+0+1)
  4453  006F  0838               	movf	(___ftmul@f2+2),w
  4454  0070  00AB               	movwf	(??___ftmul+0+0+2)
  4455  0071  1003               	clrc
  4456  0072  0D2A               	rlf	(??___ftmul+0+1),w
  4457  0073  0D2B               	rlf	(??___ftmul+0+2),w
  4458  0074  00B2               	movwf	(___ftmul@sign)
  4459  0075  08B2               	movf	((___ftmul@sign))&07fh,f
  4460  0076  1D03               	skipz
  4461  0077  2879               	goto	u3601
  4462  0078  287A               	goto	u3600
  4463  0079                     u3601:
  4464  0079  2881               	goto	l30001764
  4465  007A                     u3600:
  4466                           	
  4467  007A                     l30001762:	
  4468                           	line	59
  4469  007A  3000               	movlw	0x0
  4470  007B  00B3               	movwf	(?___ftmul)
  4471  007C  3000               	movlw	0x0
  4472  007D  00B4               	movwf	(?___ftmul+1)
  4473  007E  3000               	movlw	0x0
  4474  007F  00B5               	movwf	(?___ftmul+2)
  4475  0080  292E               	goto	l156
  4476                           	
  4477  0081                     l30001764:	
  4478                           	line	60
  4479  0081  0832               	movf	(___ftmul@sign),w
  4480  0082  3E7B               	addlw	07Bh
  4481  0083  00A9               	movwf	(??___ftmul+0+0)
  4482  0084  0829               	movf	(??___ftmul+0+0),w
  4483  0085  07AD               	addwf	(___ftmul@exp),f
  4484                           	line	61
  4485  0086  0833               	movf	(___ftmul@f1),w
  4486  0087  00A9               	movwf	(??___ftmul+0+0)
  4487  0088  0834               	movf	(___ftmul@f1+1),w
  4488  0089  00AA               	movwf	(??___ftmul+0+0+1)
  4489  008A  0835               	movf	(___ftmul@f1+2),w
  4490  008B  00AB               	movwf	(??___ftmul+0+0+2)
  4491  008C  3010               	movlw	010h
  4492  008D                     u3615:
  4493  008D  1003               	clrc
  4494  008E  0CAB               	rrf	(??___ftmul+0+2),f
  4495  008F  0CAA               	rrf	(??___ftmul+0+1),f
  4496  0090  0CA9               	rrf	(??___ftmul+0+0),f
  4497  0091                     u3610:
  4498  0091  3EFF               	addlw	-1
  4499  0092  1D03               	skipz
  4500  0093  288D               	goto	u3615
  4501  0094  0829               	movf	0+(??___ftmul+0+0),w
  4502  0095  00B2               	movwf	(___ftmul@sign)
  4503                           	line	62
  4504  0096  0836               	movf	(___ftmul@f2),w
  4505  0097  00A9               	movwf	(??___ftmul+0+0)
  4506  0098  0837               	movf	(___ftmul@f2+1),w
  4507  0099  00AA               	movwf	(??___ftmul+0+0+1)
  4508  009A  0838               	movf	(___ftmul@f2+2),w
  4509  009B  00AB               	movwf	(??___ftmul+0+0+2)
  4510  009C  3010               	movlw	010h
  4511  009D                     u3625:
  4512  009D  1003               	clrc
  4513  009E  0CAB               	rrf	(??___ftmul+0+2),f
  4514  009F  0CAA               	rrf	(??___ftmul+0+1),f
  4515  00A0  0CA9               	rrf	(??___ftmul+0+0),f
  4516  00A1                     u3620:
  4517  00A1  3EFF               	addlw	-1
  4518  00A2  1D03               	skipz
  4519  00A3  289D               	goto	u3625
  4520  00A4  0829               	movf	0+(??___ftmul+0+0),w
  4521  00A5  00AC               	movwf	(??___ftmul+3+0)
  4522  00A6  082C               	movf	(??___ftmul+3+0),w
  4523  00A7  06B2               	xorwf	(___ftmul@sign),f
  4524                           	line	63
  4525  00A8  3080               	movlw	(080h)
  4526  00A9  00A9               	movwf	(??___ftmul+0+0)
  4527  00AA  0829               	movf	(??___ftmul+0+0),w
  4528  00AB  05B2               	andwf	(___ftmul@sign),f
  4529                           	
  4530  00AC                     l30001765:	
  4531                           	line	64
  4532  00AC  17B4               	bsf	(___ftmul@f1)+(15/8),(15)&7
  4533                           	
  4534  00AD                     l30001766:	
  4535                           	line	66
  4536  00AD  17B7               	bsf	(___ftmul@f2)+(15/8),(15)&7
  4537                           	
  4538  00AE                     l30001767:	
  4539                           	line	67
  4540  00AE  30FF               	movlw	0FFh
  4541  00AF  05B6               	andwf	(___ftmul@f2),f
  4542  00B0  30FF               	movlw	0FFh
  4543  00B1  05B7               	andwf	(___ftmul@f2+1),f
  4544  00B2  3000               	movlw	0
  4545  00B3  05B8               	andwf	(___ftmul@f2+2),f
  4546                           	
  4547  00B4                     l30001768:	
  4548                           	line	68
  4549  00B4  3000               	movlw	0
  4550  00B5  00AE               	movwf	(___ftmul@f3_as_product)
  4551  00B6  3000               	movlw	0
  4552  00B7  00AF               	movwf	(___ftmul@f3_as_product+1)
  4553  00B8  3000               	movlw	0
  4554  00B9  00B0               	movwf	(___ftmul@f3_as_product+2)
  4555                           	
  4556  00BA                     l30001769:	
  4557                           	line	69
  4558  00BA  3007               	movlw	(07h)
  4559  00BB  00B1               	movwf	(___ftmul@cntr)
  4560                           	
  4561  00BC                     l30001770:	
  4562                           	line	71
  4563  00BC  1C33               	btfss	(___ftmul@f1),(0)&7
  4564  00BD  28BF               	goto	u3631
  4565  00BE  28C0               	goto	u3630
  4566  00BF                     u3631:
  4567  00BF  28D0               	goto	l30001772
  4568  00C0                     u3630:
  4569                           	
  4570  00C0                     l30001771:	
  4571                           	line	72
  4572  00C0  0836               	movf	(___ftmul@f2),w
  4573  00C1  07AE               	addwf	(___ftmul@f3_as_product),f
  4574  00C2  0837               	movf	(___ftmul@f2+1),w
  4575  00C3  1103               	clrz
  4576  00C4  1803               	skipnc
  4577  00C5  0A37               	incf	(___ftmul@f2+1),w
  4578  00C6  1903               	skipnz
  4579  00C7  28C9               	goto	u3641
  4580  00C8  07AF               	addwf	(___ftmul@f3_as_product+1),f
  4581  00C9                     u3641:
  4582  00C9  0838               	movf	(___ftmul@f2+2),w
  4583  00CA  1103               	clrz
  4584  00CB  1803               	skipnc
  4585  00CC  0A38               	incf	(___ftmul@f2+2),w
  4586  00CD  1903               	skipnz
  4587  00CE  28D0               	goto	u3642
  4588  00CF  07B0               	addwf	(___ftmul@f3_as_product+2),f
  4589  00D0                     u3642:
  4590                           
  4591                           	
  4592  00D0                     l30001772:	
  4593                           	line	73
  4594  00D0  3001               	movlw	01h
  4595  00D1                     u3655:
  4596  00D1  1003               	clrc
  4597  00D2  0CB5               	rrf	(___ftmul@f1+2),f
  4598  00D3  0CB4               	rrf	(___ftmul@f1+1),f
  4599  00D4  0CB3               	rrf	(___ftmul@f1),f
  4600  00D5  3EFF               	addlw	-1
  4601  00D6  1D03               	skipz
  4602  00D7  28D1               	goto	u3655
  4603                           
  4604                           	
  4605  00D8                     l30001773:	
  4606                           	line	74
  4607  00D8  3001               	movlw	01h
  4608  00D9                     u3665:
  4609  00D9  1003               	clrc
  4610  00DA  0DB6               	rlf	(___ftmul@f2),f
  4611  00DB  0DB7               	rlf	(___ftmul@f2+1),f
  4612  00DC  0DB8               	rlf	(___ftmul@f2+2),f
  4613  00DD  3EFF               	addlw	-1
  4614  00DE  1D03               	skipz
  4615  00DF  28D9               	goto	u3665
  4616                           	
  4617  00E0                     l30001774:	
  4618                           	line	75
  4619  00E0  3001               	movlw	low(01h)
  4620  00E1  02B1               	subwf	(___ftmul@cntr),f
  4621  00E2  1D03               	btfss	status,2
  4622  00E3  28E5               	goto	u3671
  4623  00E4  28E6               	goto	u3670
  4624  00E5                     u3671:
  4625  00E5  28BC               	goto	l30001770
  4626  00E6                     u3670:
  4627                           	
  4628  00E6                     l30001775:	
  4629                           	line	76
  4630  00E6  3009               	movlw	(09h)
  4631  00E7  00B1               	movwf	(___ftmul@cntr)
  4632                           	
  4633  00E8                     l30001776:	
  4634                           	line	78
  4635  00E8  1C33               	btfss	(___ftmul@f1),(0)&7
  4636  00E9  28EB               	goto	u3681
  4637  00EA  28EC               	goto	u3680
  4638  00EB                     u3681:
  4639  00EB  28FC               	goto	l30001778
  4640  00EC                     u3680:
  4641                           	
  4642  00EC                     l30001777:	
  4643                           	line	79
  4644  00EC  0836               	movf	(___ftmul@f2),w
  4645  00ED  07AE               	addwf	(___ftmul@f3_as_product),f
  4646  00EE  0837               	movf	(___ftmul@f2+1),w
  4647  00EF  1103               	clrz
  4648  00F0  1803               	skipnc
  4649  00F1  0A37               	incf	(___ftmul@f2+1),w
  4650  00F2  1903               	skipnz
  4651  00F3  28F5               	goto	u3691
  4652  00F4  07AF               	addwf	(___ftmul@f3_as_product+1),f
  4653  00F5                     u3691:
  4654  00F5  0838               	movf	(___ftmul@f2+2),w
  4655  00F6  1103               	clrz
  4656  00F7  1803               	skipnc
  4657  00F8  0A38               	incf	(___ftmul@f2+2),w
  4658  00F9  1903               	skipnz
  4659  00FA  28FC               	goto	u3692
  4660  00FB  07B0               	addwf	(___ftmul@f3_as_product+2),f
  4661  00FC                     u3692:
  4662                           
  4663                           	
  4664  00FC                     l30001778:	
  4665                           	line	80
  4666  00FC  3001               	movlw	01h
  4667  00FD                     u3705:
  4668  00FD  1003               	clrc
  4669  00FE  0CB5               	rrf	(___ftmul@f1+2),f
  4670  00FF  0CB4               	rrf	(___ftmul@f1+1),f
  4671  0100  0CB3               	rrf	(___ftmul@f1),f
  4672  0101  3EFF               	addlw	-1
  4673  0102  1D03               	skipz
  4674  0103  28FD               	goto	u3705
  4675                           
  4676                           	
  4677  0104                     l30001779:	
  4678                           	line	81
  4679  0104  3001               	movlw	01h
  4680  0105                     u3715:
  4681  0105  1003               	clrc
  4682  0106  0CB0               	rrf	(___ftmul@f3_as_product+2),f
  4683  0107  0CAF               	rrf	(___ftmul@f3_as_product+1),f
  4684  0108  0CAE               	rrf	(___ftmul@f3_as_product),f
  4685  0109  3EFF               	addlw	-1
  4686  010A  1D03               	skipz
  4687  010B  2905               	goto	u3715
  4688                           
  4689                           	
  4690  010C                     l30001780:	
  4691                           	line	82
  4692  010C  3001               	movlw	low(01h)
  4693  010D  02B1               	subwf	(___ftmul@cntr),f
  4694  010E  1D03               	btfss	status,2
  4695  010F  2911               	goto	u3721
  4696  0110  2912               	goto	u3720
  4697  0111                     u3721:
  4698  0111  28E8               	goto	l30001776
  4699  0112                     u3720:
  4700                           	
  4701  0112                     l30001781:	
  4702                           	line	83
  4703  0112  082E               	movf	(___ftmul@f3_as_product),w
  4704  0113  00A0               	movwf	(?___ftpack)
  4705  0114  082F               	movf	(___ftmul@f3_as_product+1),w
  4706  0115  00A1               	movwf	(?___ftpack+1)
  4707  0116  0830               	movf	(___ftmul@f3_as_product+2),w
  4708  0117  00A2               	movwf	(?___ftpack+2)
  4709  0118  082D               	movf	(___ftmul@exp),w
  4710  0119  00A9               	movwf	(??___ftmul+0+0)
  4711  011A  0829               	movf	(??___ftmul+0+0),w
  4712  011B  00A3               	movwf	0+(?___ftpack)+03h
  4713  011C  0832               	movf	(___ftmul@sign),w
  4714  011D  00AA               	movwf	(??___ftmul+1+0)
  4715  011E  082A               	movf	(??___ftmul+1+0),w
  4716  011F  00A4               	movwf	0+(?___ftpack)+04h
  4717  0120  120A  158A  2384   	fcall	___ftpack
              120A  118A         
  4718  0125  1383               	bcf	status, 7	;select IRP bank0
  4719  0126  1283               	bcf	status, 5	;RP0=0, select bank0
  4720  0127  1303               	bcf	status, 6	;RP1=0, select bank0
  4721  0128  0820               	movf	(0+(?___ftpack)),w
  4722  0129  00B3               	movwf	(?___ftmul)
  4723  012A  0821               	movf	(1+(?___ftpack)),w
  4724  012B  00B4               	movwf	(?___ftmul+1)
  4725  012C  0822               	movf	(2+(?___ftpack)),w
  4726  012D  00B5               	movwf	(?___ftmul+2)
  4727                           	
  4728  012E                     l156:	
  4729  012E  0008               	return
  4730                           	opt stack 0
  4731                           GLOBAL	__end_of___ftmul
  4732  012F                     	__end_of___ftmul:
  4733                           ; =============== function ___ftmul ends ============
  4734                           
  4735                           psect	text154,local,class=CODE,delta=2
  4736                           global __ptext154
  4737  012F                     __ptext154:
  4738                           	line	84
  4739                           	signat	___ftmul,8315
  4740                           	global	___ftadd
  4741                           
  4742                           ; *************** function ___ftadd *****************
  4743                           ; Defined at:
  4744                           ;		line 87 in file "C:\Program Files (x86)\HI-TECH Software\PICC\9.70\sources\ftadd.c"
  4745                           ; Parameters:    Size  Location     Type
  4746                           ;  f1              3   11[BANK0 ] float 
  4747                           ;  f2              3   14[BANK0 ] float 
  4748                           ; Auto vars:     Size  Location     Type
  4749                           ;  exp1            1   10[BANK0 ] unsigned char 
  4750                           ;  exp2            1    9[BANK0 ] unsigned char 
  4751                           ;  sign            1    8[BANK0 ] unsigned char 
  4752                           ; Return value:  Size  Location     Type
  4753                           ;                  3   11[BANK0 ] float 
  4754                           ; Registers used:
  4755                           ;		wreg, status,2, status,0, pclath, cstack
  4756                           ; Tracked objects:
  4757                           ;		On entry : 0/0
  4758                           ;		On exit  : 0/0
  4759                           ;		Unchanged: 0/0
  4760                           ; Data sizes:     COMMON   BANK0   BANK1   BANK3   BANK2
  4761                           ;      Locals:         0      12       0       0       0
  4762                           ;      Temp:     3
  4763                           ;      Total:   12
  4764                           ; This function calls:
  4765                           ;		___ftpack
  4766                           ; This function is called by:
  4767                           ;		_temperature
  4768                           ; This function uses a non-reentrant model
  4769                           ; 
  4770                           psect	text154
  4771                           	file	"C:\Program Files (x86)\HI-TECH Software\PICC\9.70\sources\ftadd.c"
  4772                           	line	87
  4773                           	global	__size_of___ftadd
  4774  014C                     	__size_of___ftadd	equ	__end_of___ftadd-___ftadd
  4775                           	
  4776  012F                     ___ftadd:	
  4777                           	opt stack 5
  4778                           ; Regs used in ___ftadd: [wreg+status,2+status,0+pclath+cstack]
  4779                           	line	90
  4780                           	
  4781  012F                     l30001556:	
  4782  012F  1283               	bcf	status, 5	;RP0=0, select bank0
  4783  0130  1303               	bcf	status, 6	;RP1=0, select bank0
  4784  0131  082B               	movf	(___ftadd@f1),w
  4785  0132  00A5               	movwf	(??___ftadd+0+0)
  4786  0133  082C               	movf	(___ftadd@f1+1),w
  4787  0134  00A6               	movwf	(??___ftadd+0+0+1)
  4788  0135  082D               	movf	(___ftadd@f1+2),w
  4789  0136  00A7               	movwf	(??___ftadd+0+0+2)
  4790  0137  1003               	clrc
  4791  0138  0D26               	rlf	(??___ftadd+0+1),w
  4792  0139  0D27               	rlf	(??___ftadd+0+2),w
  4793  013A  00AA               	movwf	(___ftadd@exp1)
  4794                           	line	91
  4795  013B  082E               	movf	(___ftadd@f2),w
  4796  013C  00A5               	movwf	(??___ftadd+0+0)
  4797  013D  082F               	movf	(___ftadd@f2+1),w
  4798  013E  00A6               	movwf	(??___ftadd+0+0+1)
  4799  013F  0830               	movf	(___ftadd@f2+2),w
  4800  0140  00A7               	movwf	(??___ftadd+0+0+2)
  4801  0141  1003               	clrc
  4802  0142  0D26               	rlf	(??___ftadd+0+1),w
  4803  0143  0D27               	rlf	(??___ftadd+0+2),w
  4804  0144  00A9               	movwf	(___ftadd@exp2)
  4805                           	
  4806  0145                     l30001557:	
  4807                           	line	92
  4808  0145  082A               	movf	(___ftadd@exp1),w
  4809  0146  1D03               	skipz
  4810  0147  2949               	goto	u2690
  4811  0148  2959               	goto	l30001560
  4812  0149                     u2690:
  4813                           	
  4814  0149                     l30001558:	
  4815  0149  0829               	movf	(___ftadd@exp2),w
  4816  014A  022A               	subwf	(___ftadd@exp1),w
  4817  014B  1803               	skipnc
  4818  014C  294E               	goto	u2701
  4819  014D  294F               	goto	u2700
  4820  014E                     u2701:
  4821  014E  2960               	goto	l30001562
  4822  014F                     u2700:
  4823                           	
  4824  014F                     l30001559:	
  4825  014F  032A               	decf	(___ftadd@exp1),w
  4826  0150  3AFF               	xorlw	0ffh
  4827  0151  0729               	addwf	(___ftadd@exp2),w
  4828  0152  00A5               	movwf	(??___ftadd+0+0)
  4829  0153  3019               	movlw	low(019h)
  4830  0154  0225               	subwf	(??___ftadd+0+0),w
  4831  0155  1C03               	skipc
  4832  0156  2958               	goto	u2711
  4833  0157  2959               	goto	u2710
  4834  0158                     u2711:
  4835  0158  2960               	goto	l30001562
  4836  0159                     u2710:
  4837                           	
  4838  0159                     l30001560:	
  4839                           	line	93
  4840  0159  082E               	movf	(___ftadd@f2),w
  4841  015A  00AB               	movwf	(?___ftadd)
  4842  015B  082F               	movf	(___ftadd@f2+1),w
  4843  015C  00AC               	movwf	(?___ftadd+1)
  4844  015D  0830               	movf	(___ftadd@f2+2),w
  4845  015E  00AD               	movwf	(?___ftadd+2)
  4846  015F  2A7A               	goto	l120
  4847                           	
  4848  0160                     l30001562:	
  4849                           	line	94
  4850  0160  0829               	movf	(___ftadd@exp2),w
  4851  0161  1D03               	skipz
  4852  0162  2964               	goto	u2720
  4853  0163  2974               	goto	l30001565
  4854  0164                     u2720:
  4855                           	
  4856  0164                     l30001563:	
  4857  0164  082A               	movf	(___ftadd@exp1),w
  4858  0165  0229               	subwf	(___ftadd@exp2),w
  4859  0166  1803               	skipnc
  4860  0167  2969               	goto	u2731
  4861  0168  296A               	goto	u2730
  4862  0169                     u2731:
  4863  0169  297B               	goto	l30001567
  4864  016A                     u2730:
  4865                           	
  4866  016A                     l30001564:	
  4867  016A  0329               	decf	(___ftadd@exp2),w
  4868  016B  3AFF               	xorlw	0ffh
  4869  016C  072A               	addwf	(___ftadd@exp1),w
  4870  016D  00A5               	movwf	(??___ftadd+0+0)
  4871  016E  3019               	movlw	low(019h)
  4872  016F  0225               	subwf	(??___ftadd+0+0),w
  4873  0170  1C03               	skipc
  4874  0171  2973               	goto	u2741
  4875  0172  2974               	goto	u2740
  4876  0173                     u2741:
  4877  0173  297B               	goto	l30001567
  4878  0174                     u2740:
  4879                           	
  4880  0174                     l30001565:	
  4881                           	line	95
  4882  0174  082B               	movf	(___ftadd@f1),w
  4883  0175  00AB               	movwf	(?___ftadd)
  4884  0176  082C               	movf	(___ftadd@f1+1),w
  4885  0177  00AC               	movwf	(?___ftadd+1)
  4886  0178  082D               	movf	(___ftadd@f1+2),w
  4887  0179  00AD               	movwf	(?___ftadd+2)
  4888  017A  2A7A               	goto	l120
  4889                           	
  4890  017B                     l30001567:	
  4891                           	line	96
  4892  017B  3006               	movlw	(06h)
  4893  017C  00A8               	movwf	(___ftadd@sign)
  4894                           	
  4895  017D                     l30001568:	
  4896                           	line	97
  4897  017D  1FAD               	btfss	(___ftadd@f1+2),(23)&7
  4898  017E  2980               	goto	u2751
  4899  017F  2981               	goto	u2750
  4900  0180                     u2751:
  4901  0180  2982               	goto	l123
  4902  0181                     u2750:
  4903                           	
  4904  0181                     l30001569:	
  4905                           	line	98
  4906  0181  17A8               	bsf	(___ftadd@sign)+(7/8),(7)&7
  4907                           	
  4908  0182                     l123:	
  4909                           	line	99
  4910  0182  1FB0               	btfss	(___ftadd@f2+2),(23)&7
  4911  0183  2985               	goto	u2761
  4912  0184  2986               	goto	u2760
  4913  0185                     u2761:
  4914  0185  2987               	goto	l124
  4915  0186                     u2760:
  4916                           	
  4917  0186                     l30001570:	
  4918                           	line	100
  4919  0186  1728               	bsf	(___ftadd@sign)+(6/8),(6)&7
  4920                           	
  4921  0187                     l124:	
  4922                           	line	101
  4923  0187  17AC               	bsf	(___ftadd@f1)+(15/8),(15)&7
  4924                           	
  4925  0188                     l30001571:	
  4926                           	line	102
  4927  0188  30FF               	movlw	0FFh
  4928  0189  05AB               	andwf	(___ftadd@f1),f
  4929  018A  30FF               	movlw	0FFh
  4930  018B  05AC               	andwf	(___ftadd@f1+1),f
  4931  018C  3000               	movlw	0
  4932  018D  05AD               	andwf	(___ftadd@f1+2),f
  4933                           	
  4934  018E                     l30001572:	
  4935                           	line	103
  4936  018E  17AF               	bsf	(___ftadd@f2)+(15/8),(15)&7
  4937                           	line	104
  4938  018F  30FF               	movlw	0FFh
  4939  0190  05AE               	andwf	(___ftadd@f2),f
  4940  0191  30FF               	movlw	0FFh
  4941  0192  05AF               	andwf	(___ftadd@f2+1),f
  4942  0193  3000               	movlw	0
  4943  0194  05B0               	andwf	(___ftadd@f2+2),f
  4944                           	line	106
  4945  0195  0829               	movf	(___ftadd@exp2),w
  4946  0196  022A               	subwf	(___ftadd@exp1),w
  4947  0197  1803               	skipnc
  4948  0198  299A               	goto	u2771
  4949  0199  299B               	goto	u2770
  4950  019A                     u2771:
  4951  019A  29C7               	goto	l30001578
  4952  019B                     u2770:
  4953                           	
  4954  019B                     l30001573:	
  4955                           	line	110
  4956  019B  3001               	movlw	01h
  4957  019C                     u2785:
  4958  019C  1003               	clrc
  4959  019D  0DAE               	rlf	(___ftadd@f2),f
  4960  019E  0DAF               	rlf	(___ftadd@f2+1),f
  4961  019F  0DB0               	rlf	(___ftadd@f2+2),f
  4962  01A0  3EFF               	addlw	-1
  4963  01A1  1D03               	skipz
  4964  01A2  299C               	goto	u2785
  4965                           	line	111
  4966  01A3  3001               	movlw	low(01h)
  4967  01A4  02A9               	subwf	(___ftadd@exp2),f
  4968                           	
  4969  01A5                     l30001574:	
  4970                           	line	112
  4971  01A5  0829               	movf	(___ftadd@exp2),w
  4972  01A6  062A               	xorwf	(___ftadd@exp1),w
  4973  01A7  1903               	skipnz
  4974  01A8  29AA               	goto	u2791
  4975  01A9  29AB               	goto	u2790
  4976  01AA                     u2791:
  4977  01AA  29C0               	goto	l30001577
  4978  01AB                     u2790:
  4979                           	
  4980  01AB                     l30001575:	
  4981  01AB  3001               	movlw	low(01h)
  4982  01AC  02A8               	subwf	(___ftadd@sign),f
  4983  01AD  0828               	movf	((___ftadd@sign))&07fh,w
  4984  01AE  3907               	andlw	07h
  4985  01AF  1D03               	btfss	status,2
  4986  01B0  29B2               	goto	u2801
  4987  01B1  29B3               	goto	u2800
  4988  01B2                     u2801:
  4989  01B2  299B               	goto	l30001573
  4990  01B3                     u2800:
  4991  01B3  29C0               	goto	l30001577
  4992                           	
  4993  01B4                     l30001576:	
  4994                           	line	114
  4995  01B4  3001               	movlw	01h
  4996  01B5                     u2815:
  4997  01B5  1003               	clrc
  4998  01B6  0CAD               	rrf	(___ftadd@f1+2),f
  4999  01B7  0CAC               	rrf	(___ftadd@f1+1),f
  5000  01B8  0CAB               	rrf	(___ftadd@f1),f
  5001  01B9  3EFF               	addlw	-1
  5002  01BA  1D03               	skipz
  5003  01BB  29B5               	goto	u2815
  5004                           
  5005                           	line	115
  5006  01BC  3001               	movlw	(01h)
  5007  01BD  00A5               	movwf	(??___ftadd+0+0)
  5008  01BE  0825               	movf	(??___ftadd+0+0),w
  5009  01BF  07AA               	addwf	(___ftadd@exp1),f
  5010                           	
  5011  01C0                     l30001577:	
  5012                           	line	113
  5013  01C0  082A               	movf	(___ftadd@exp1),w
  5014  01C1  0629               	xorwf	(___ftadd@exp2),w
  5015  01C2  1D03               	skipz
  5016  01C3  29C5               	goto	u2821
  5017  01C4  29C6               	goto	u2820
  5018  01C5                     u2821:
  5019  01C5  29B4               	goto	l30001576
  5020  01C6                     u2820:
  5021  01C6  29F8               	goto	l132
  5022                           	
  5023  01C7                     l30001578:	
  5024                           	line	117
  5025  01C7  082A               	movf	(___ftadd@exp1),w
  5026  01C8  0229               	subwf	(___ftadd@exp2),w
  5027  01C9  1803               	skipnc
  5028  01CA  29CC               	goto	u2831
  5029  01CB  29CD               	goto	u2830
  5030  01CC                     u2831:
  5031  01CC  29F8               	goto	l132
  5032  01CD                     u2830:
  5033                           	
  5034  01CD                     l30001579:	
  5035                           	line	121
  5036  01CD  3001               	movlw	01h
  5037  01CE                     u2845:
  5038  01CE  1003               	clrc
  5039  01CF  0DAB               	rlf	(___ftadd@f1),f
  5040  01D0  0DAC               	rlf	(___ftadd@f1+1),f
  5041  01D1  0DAD               	rlf	(___ftadd@f1+2),f
  5042  01D2  3EFF               	addlw	-1
  5043  01D3  1D03               	skipz
  5044  01D4  29CE               	goto	u2845
  5045                           	line	122
  5046  01D5  3001               	movlw	low(01h)
  5047  01D6  02AA               	subwf	(___ftadd@exp1),f
  5048                           	
  5049  01D7                     l30001580:	
  5050                           	line	123
  5051  01D7  0829               	movf	(___ftadd@exp2),w
  5052  01D8  062A               	xorwf	(___ftadd@exp1),w
  5053  01D9  1903               	skipnz
  5054  01DA  29DC               	goto	u2851
  5055  01DB  29DD               	goto	u2850
  5056  01DC                     u2851:
  5057  01DC  29F2               	goto	l30001583
  5058  01DD                     u2850:
  5059                           	
  5060  01DD                     l30001581:	
  5061  01DD  3001               	movlw	low(01h)
  5062  01DE  02A8               	subwf	(___ftadd@sign),f
  5063  01DF  0828               	movf	((___ftadd@sign))&07fh,w
  5064  01E0  3907               	andlw	07h
  5065  01E1  1D03               	btfss	status,2
  5066  01E2  29E4               	goto	u2861
  5067  01E3  29E5               	goto	u2860
  5068  01E4                     u2861:
  5069  01E4  29CD               	goto	l30001579
  5070  01E5                     u2860:
  5071  01E5  29F2               	goto	l30001583
  5072                           	
  5073  01E6                     l30001582:	
  5074                           	line	125
  5075  01E6  3001               	movlw	01h
  5076  01E7                     u2875:
  5077  01E7  1003               	clrc
  5078  01E8  0CB0               	rrf	(___ftadd@f2+2),f
  5079  01E9  0CAF               	rrf	(___ftadd@f2+1),f
  5080  01EA  0CAE               	rrf	(___ftadd@f2),f
  5081  01EB  3EFF               	addlw	-1
  5082  01EC  1D03               	skipz
  5083  01ED  29E7               	goto	u2875
  5084                           
  5085                           	line	126
  5086  01EE  3001               	movlw	(01h)
  5087  01EF  00A5               	movwf	(??___ftadd+0+0)
  5088  01F0  0825               	movf	(??___ftadd+0+0),w
  5089  01F1  07A9               	addwf	(___ftadd@exp2),f
  5090                           	
  5091  01F2                     l30001583:	
  5092                           	line	124
  5093  01F2  082A               	movf	(___ftadd@exp1),w
  5094  01F3  0629               	xorwf	(___ftadd@exp2),w
  5095  01F4  1D03               	skipz
  5096  01F5  29F7               	goto	u2881
  5097  01F6  29F8               	goto	u2880
  5098  01F7                     u2881:
  5099  01F7  29E6               	goto	l30001582
  5100  01F8                     u2880:
  5101                           	
  5102  01F8                     l132:	
  5103                           	line	129
  5104  01F8  1FA8               	btfss	(___ftadd@sign),(7)&7
  5105  01F9  29FB               	goto	u2891
  5106  01FA  29FC               	goto	u2890
  5107  01FB                     u2891:
  5108  01FB  2A12               	goto	l30001585
  5109  01FC                     u2890:
  5110                           	
  5111  01FC                     l30001584:	
  5112                           	line	131
  5113  01FC  30FF               	movlw	0FFh
  5114  01FD  06AB               	xorwf	(___ftadd@f1),f
  5115  01FE  30FF               	movlw	0FFh
  5116  01FF  06AC               	xorwf	(___ftadd@f1+1),f
  5117  0200  30FF               	movlw	0FFh
  5118  0201  06AD               	xorwf	(___ftadd@f1+2),f
  5119                           	line	132
  5120  0202  3001               	movlw	01h
  5121  0203  07AB               	addwf	(___ftadd@f1),f
  5122  0204  3000               	movlw	0
  5123  0205  1103               	clrz
  5124  0206  1803               	skipnc
  5125  0207  3E01               	addlw	1
  5126  0208  1903               	skipnz
  5127  0209  2A0B               	goto	u2901
  5128  020A  07AC               	addwf	(___ftadd@f1+1),f
  5129  020B                     u2901:
  5130  020B  3000               	movlw	0
  5131  020C  1103               	clrz
  5132  020D  1803               	skipnc
  5133  020E  3E01               	addlw	1
  5134  020F  1903               	skipnz
  5135  0210  2A12               	goto	u2902
  5136  0211  07AD               	addwf	(___ftadd@f1+2),f
  5137  0212                     u2902:
  5138                           
  5139                           	
  5140  0212                     l30001585:	
  5141                           	line	134
  5142  0212  1F28               	btfss	(___ftadd@sign),(6)&7
  5143  0213  2A15               	goto	u2911
  5144  0214  2A16               	goto	u2910
  5145  0215                     u2911:
  5146  0215  2A2C               	goto	l30001587
  5147  0216                     u2910:
  5148                           	
  5149  0216                     l30001586:	
  5150                           	line	136
  5151  0216  30FF               	movlw	0FFh
  5152  0217  06AE               	xorwf	(___ftadd@f2),f
  5153  0218  30FF               	movlw	0FFh
  5154  0219  06AF               	xorwf	(___ftadd@f2+1),f
  5155  021A  30FF               	movlw	0FFh
  5156  021B  06B0               	xorwf	(___ftadd@f2+2),f
  5157                           	line	137
  5158  021C  3001               	movlw	01h
  5159  021D  07AE               	addwf	(___ftadd@f2),f
  5160  021E  3000               	movlw	0
  5161  021F  1103               	clrz
  5162  0220  1803               	skipnc
  5163  0221  3E01               	addlw	1
  5164  0222  1903               	skipnz
  5165  0223  2A25               	goto	u2921
  5166  0224  07AF               	addwf	(___ftadd@f2+1),f
  5167  0225                     u2921:
  5168  0225  3000               	movlw	0
  5169  0226  1103               	clrz
  5170  0227  1803               	skipnc
  5171  0228  3E01               	addlw	1
  5172  0229  1903               	skipnz
  5173  022A  2A2C               	goto	u2922
  5174  022B  07B0               	addwf	(___ftadd@f2+2),f
  5175  022C                     u2922:
  5176                           
  5177                           	
  5178  022C                     l30001587:	
  5179                           	line	139
  5180  022C  1003               	clrc
  5181  022D  3000               	movlw	0
  5182  022E  1803               	btfsc	status,0
  5183  022F  3001               	movlw	1
  5184  0230  00A8               	movwf	(___ftadd@sign)
  5185                           	
  5186  0231                     l30001588:	
  5187                           	line	140
  5188  0231  082B               	movf	(___ftadd@f1),w
  5189  0232  07AE               	addwf	(___ftadd@f2),f
  5190  0233  082C               	movf	(___ftadd@f1+1),w
  5191  0234  1103               	clrz
  5192  0235  1803               	skipnc
  5193  0236  0A2C               	incf	(___ftadd@f1+1),w
  5194  0237  1903               	skipnz
  5195  0238  2A3A               	goto	u2931
  5196  0239  07AF               	addwf	(___ftadd@f2+1),f
  5197  023A                     u2931:
  5198  023A  082D               	movf	(___ftadd@f1+2),w
  5199  023B  1103               	clrz
  5200  023C  1803               	skipnc
  5201  023D  0A2D               	incf	(___ftadd@f1+2),w
  5202  023E  1903               	skipnz
  5203  023F  2A41               	goto	u2932
  5204  0240  07B0               	addwf	(___ftadd@f2+2),f
  5205  0241                     u2932:
  5206                           
  5207                           	
  5208  0241                     l30001589:	
  5209                           	line	141
  5210  0241  1FB0               	btfss	(___ftadd@f2+2),(23)&7
  5211  0242  2A44               	goto	u2941
  5212  0243  2A45               	goto	u2940
  5213  0244                     u2941:
  5214  0244  2A5E               	goto	l30001592
  5215  0245                     u2940:
  5216                           	
  5217  0245                     l30001590:	
  5218                           	line	142
  5219  0245  30FF               	movlw	0FFh
  5220  0246  06AE               	xorwf	(___ftadd@f2),f
  5221  0247  30FF               	movlw	0FFh
  5222  0248  06AF               	xorwf	(___ftadd@f2+1),f
  5223  0249  30FF               	movlw	0FFh
  5224  024A  06B0               	xorwf	(___ftadd@f2+2),f
  5225                           	line	143
  5226  024B  3001               	movlw	01h
  5227  024C  07AE               	addwf	(___ftadd@f2),f
  5228  024D  3000               	movlw	0
  5229  024E  1103               	clrz
  5230  024F  1803               	skipnc
  5231  0250  3E01               	addlw	1
  5232  0251  1903               	skipnz
  5233  0252  2A54               	goto	u2951
  5234  0253  07AF               	addwf	(___ftadd@f2+1),f
  5235  0254                     u2951:
  5236  0254  3000               	movlw	0
  5237  0255  1103               	clrz
  5238  0256  1803               	skipnc
  5239  0257  3E01               	addlw	1
  5240  0258  1903               	skipnz
  5241  0259  2A5B               	goto	u2952
  5242  025A  07B0               	addwf	(___ftadd@f2+2),f
  5243  025B                     u2952:
  5244                           
  5245                           	
  5246  025B                     l30001591:	
  5247                           	line	144
  5248  025B  01A8               	clrf	(___ftadd@sign)
  5249  025C  1403               	bsf	status,0
  5250  025D  0DA8               	rlf	(___ftadd@sign),f
  5251                           	
  5252  025E                     l30001592:	
  5253                           	line	146
  5254  025E  082E               	movf	(___ftadd@f2),w
  5255  025F  00A0               	movwf	(?___ftpack)
  5256  0260  082F               	movf	(___ftadd@f2+1),w
  5257  0261  00A1               	movwf	(?___ftpack+1)
  5258  0262  0830               	movf	(___ftadd@f2+2),w
  5259  0263  00A2               	movwf	(?___ftpack+2)
  5260  0264  082A               	movf	(___ftadd@exp1),w
  5261  0265  00A5               	movwf	(??___ftadd+0+0)
  5262  0266  0825               	movf	(??___ftadd+0+0),w
  5263  0267  00A3               	movwf	0+(?___ftpack)+03h
  5264  0268  0828               	movf	(___ftadd@sign),w
  5265  0269  00A6               	movwf	(??___ftadd+1+0)
  5266  026A  0826               	movf	(??___ftadd+1+0),w
  5267  026B  00A4               	movwf	0+(?___ftpack)+04h
  5268  026C  120A  158A  2384   	fcall	___ftpack
              120A  118A         
  5269  0271  1383               	bcf	status, 7	;select IRP bank0
  5270  0272  1283               	bcf	status, 5	;RP0=0, select bank0
  5271  0273  1303               	bcf	status, 6	;RP1=0, select bank0
  5272  0274  0820               	movf	(0+(?___ftpack)),w
  5273  0275  00AB               	movwf	(?___ftadd)
  5274  0276  0821               	movf	(1+(?___ftpack)),w
  5275  0277  00AC               	movwf	(?___ftadd+1)
  5276  0278  0822               	movf	(2+(?___ftpack)),w
  5277  0279  00AD               	movwf	(?___ftadd+2)
  5278                           	
  5279  027A                     l120:	
  5280  027A  0008               	return
  5281                           	opt stack 0
  5282                           GLOBAL	__end_of___ftadd
  5283  027B                     	__end_of___ftadd:
  5284                           ; =============== function ___ftadd ends ============
  5285                           
  5286                           psect	text155,local,class=CODE,delta=2
  5287                           global __ptext155
  5288  0024                     __ptext155:
  5289                           	line	148
  5290                           	signat	___ftadd,8315
  5291                           	global	___awtoft
  5292                           
  5293                           ; *************** function ___awtoft *****************
  5294                           ; Defined at:
  5295                           ;		line 33 in file "C:\Program Files (x86)\HI-TECH Software\PICC\9.70\sources\awtoft.c"
  5296                           ; Parameters:    Size  Location     Type
  5297                           ;  c               2    6[BANK0 ] int 
  5298                           ; Auto vars:     Size  Location     Type
  5299                           ;  sign            1    5[BANK0 ] unsigned char 
  5300                           ; Return value:  Size  Location     Type
  5301                           ;                  3    6[BANK0 ] float 
  5302                           ; Registers used:
  5303                           ;		wreg, status,2, status,0, pclath, cstack
  5304                           ; Tracked objects:
  5305                           ;		On entry : 0/0
  5306                           ;		On exit  : 0/0
  5307                           ;		Unchanged: 0/0
  5308                           ; Data sizes:     COMMON   BANK0   BANK1   BANK3   BANK2
  5309                           ;      Locals:         2       4       0       0       0
  5310                           ;      Temp:     2
  5311                           ;      Total:    6
  5312                           ; This function calls:
  5313                           ;		___ftpack
  5314                           ; This function is called by:
  5315                           ;		_temperature
  5316                           ; This function uses a non-reentrant model
  5317                           ; 
  5318                           psect	text155
  5319                           	file	"C:\Program Files (x86)\HI-TECH Software\PICC\9.70\sources\awtoft.c"
  5320                           	line	33
  5321                           	global	__size_of___awtoft
  5322  002F                     	__size_of___awtoft	equ	__end_of___awtoft-___awtoft
  5323                           	
  5324  0024                     ___awtoft:	
  5325                           	opt stack 5
  5326                           ; Regs used in ___awtoft: [wreg+status,2+status,0+pclath+cstack]
  5327                           	line	36
  5328                           	
  5329  0024                     l30001717:	
  5330  0024  1003               	clrc
  5331  0025  3000               	movlw	0
  5332  0026  1803               	btfsc	status,0
  5333  0027  3001               	movlw	1
  5334  0028  1283               	bcf	status, 5	;RP0=0, select bank0
  5335  0029  1303               	bcf	status, 6	;RP1=0, select bank0
  5336  002A  00A5               	movwf	(___awtoft@sign)
  5337                           	
  5338  002B                     l30001718:	
  5339                           	line	37
  5340  002B  1FA7               	btfss	(___awtoft@c+1),7
  5341  002C  282E               	goto	u3381
  5342  002D  282F               	goto	u3380
  5343  002E                     u3381:
  5344  002E  2837               	goto	l30001720
  5345  002F                     u3380:
  5346                           	
  5347  002F                     l30001719:	
  5348                           	line	38
  5349  002F  09A6               	comf	(___awtoft@c),f
  5350  0030  09A7               	comf	(___awtoft@c+1),f
  5351  0031  0AA6               	incf	(___awtoft@c),f
  5352  0032  1903               	skipnz
  5353  0033  0AA7               	incf	(___awtoft@c+1),f
  5354                           	line	39
  5355  0034  01A5               	clrf	(___awtoft@sign)
  5356  0035  1403               	bsf	status,0
  5357  0036  0DA5               	rlf	(___awtoft@sign),f
  5358                           	
  5359  0037                     l30001720:	
  5360                           	line	41
  5361  0037  0826               	movf	(___awtoft@c),w
  5362  0038  00A0               	movwf	(?___ftpack)
  5363  0039  0827               	movf	(___awtoft@c+1),w
  5364  003A  00A1               	movwf	(?___ftpack+1)
  5365  003B  01A2               	clrf	(?___ftpack+2)
  5366  003C  308E               	movlw	(08Eh)
  5367  003D  00F9               	movwf	(??___awtoft+0+0)
  5368  003E  0879               	movf	(??___awtoft+0+0),w
  5369  003F  00A3               	movwf	0+(?___ftpack)+03h
  5370  0040  0825               	movf	(___awtoft@sign),w
  5371  0041  00FA               	movwf	(??___awtoft+1+0)
  5372  0042  087A               	movf	(??___awtoft+1+0),w
  5373  0043  00A4               	movwf	0+(?___ftpack)+04h
  5374  0044  120A  158A  2384   	fcall	___ftpack
              120A  118A         
  5375  0049  1383               	bcf	status, 7	;select IRP bank0
  5376  004A  1283               	bcf	status, 5	;RP0=0, select bank0
  5377  004B  1303               	bcf	status, 6	;RP1=0, select bank0
  5378  004C  0820               	movf	(0+(?___ftpack)),w
  5379  004D  00A6               	movwf	(?___awtoft)
  5380  004E  0821               	movf	(1+(?___ftpack)),w
  5381  004F  00A7               	movwf	(?___awtoft+1)
  5382  0050  0822               	movf	(2+(?___ftpack)),w
  5383  0051  00A8               	movwf	(?___awtoft+2)
  5384                           	
  5385  0052                     l225:	
  5386  0052  0008               	return
  5387                           	opt stack 0
  5388                           GLOBAL	__end_of___awtoft
  5389  0053                     	__end_of___awtoft:
  5390                           ; =============== function ___awtoft ends ============
  5391                           
  5392                           psect	text156,local,class=CODE,delta=2
  5393                           global __ptext156
  5394  0E84                     __ptext156:
  5395                           	line	42
  5396                           	signat	___awtoft,4219
  5397                           	global	___ftdiv
  5398                           
  5399                           ; *************** function ___ftdiv *****************
  5400                           ; Defined at:
  5401                           ;		line 50 in file "C:\Program Files (x86)\HI-TECH Software\PICC\9.70\sources\ftdiv.c"
  5402                           ; Parameters:    Size  Location     Type
  5403                           ;  f1              3   35[BANK0 ] float 
  5404                           ;  f2              3   38[BANK0 ] float 
  5405                           ; Auto vars:     Size  Location     Type
  5406                           ;  f3              3   30[BANK0 ] float 
  5407                           ;  sign            1   34[BANK0 ] unsigned char 
  5408                           ;  exp             1   33[BANK0 ] unsigned char 
  5409                           ;  cntr            1   29[BANK0 ] unsigned char 
  5410                           ; Return value:  Size  Location     Type
  5411                           ;                  3   35[BANK0 ] float 
  5412                           ; Registers used:
  5413                           ;		wreg, status,2, status,0, pclath, cstack
  5414                           ; Tracked objects:
  5415                           ;		On entry : 0/0
  5416                           ;		On exit  : 0/0
  5417                           ;		Unchanged: 0/0
  5418                           ; Data sizes:     COMMON   BANK0   BANK1   BANK3   BANK2
  5419                           ;      Locals:         0      16       0       0       0
  5420                           ;      Temp:     4
  5421                           ;      Total:   16
  5422                           ; This function calls:
  5423                           ;		___ftpack
  5424                           ; This function is called by:
  5425                           ;		_temperature
  5426                           ; This function uses a non-reentrant model
  5427                           ; 
  5428                           psect	text156
  5429                           	file	"C:\Program Files (x86)\HI-TECH Software\PICC\9.70\sources\ftdiv.c"
  5430                           	line	50
  5431                           	global	__size_of___ftdiv
  5432  00BB                     	__size_of___ftdiv	equ	__end_of___ftdiv-___ftdiv
  5433                           	
  5434  0E84                     ___ftdiv:	
  5435                           	opt stack 5
  5436                           ; Regs used in ___ftdiv: [wreg+status,2+status,0+pclath+cstack]
  5437                           	line	55
  5438                           	
  5439  0E84                     l30001737:	
  5440  0E84  1283               	bcf	status, 5	;RP0=0, select bank0
  5441  0E85  1303               	bcf	status, 6	;RP1=0, select bank0
  5442  0E86  0843               	movf	(___ftdiv@f1),w
  5443  0E87  00B9               	movwf	(??___ftdiv+0+0)
  5444  0E88  0844               	movf	(___ftdiv@f1+1),w
  5445  0E89  00BA               	movwf	(??___ftdiv+0+0+1)
  5446  0E8A  0845               	movf	(___ftdiv@f1+2),w
  5447  0E8B  00BB               	movwf	(??___ftdiv+0+0+2)
  5448  0E8C  1003               	clrc
  5449  0E8D  0D3A               	rlf	(??___ftdiv+0+1),w
  5450  0E8E  0D3B               	rlf	(??___ftdiv+0+2),w
  5451  0E8F  00C1               	movwf	(___ftdiv@exp)
  5452  0E90  08C1               	movf	((___ftdiv@exp))&07fh,f
  5453  0E91  1D03               	skipz
  5454  0E92  2E94               	goto	u3511
  5455  0E93  2E95               	goto	u3510
  5456  0E94                     u3511:
  5457  0E94  2E9C               	goto	l30001740
  5458  0E95                     u3510:
  5459                           	
  5460  0E95                     l30001738:	
  5461                           	line	56
  5462  0E95  3000               	movlw	0x0
  5463  0E96  00C3               	movwf	(?___ftdiv)
  5464  0E97  3000               	movlw	0x0
  5465  0E98  00C4               	movwf	(?___ftdiv+1)
  5466  0E99  3000               	movlw	0x0
  5467  0E9A  00C5               	movwf	(?___ftdiv+2)
  5468  0E9B  2F3E               	goto	l149
  5469                           	
  5470  0E9C                     l30001740:	
  5471                           	line	57
  5472  0E9C  0846               	movf	(___ftdiv@f2),w
  5473  0E9D  00B9               	movwf	(??___ftdiv+0+0)
  5474  0E9E  0847               	movf	(___ftdiv@f2+1),w
  5475  0E9F  00BA               	movwf	(??___ftdiv+0+0+1)
  5476  0EA0  0848               	movf	(___ftdiv@f2+2),w
  5477  0EA1  00BB               	movwf	(??___ftdiv+0+0+2)
  5478  0EA2  1003               	clrc
  5479  0EA3  0D3A               	rlf	(??___ftdiv+0+1),w
  5480  0EA4  0D3B               	rlf	(??___ftdiv+0+2),w
  5481  0EA5  00C2               	movwf	(___ftdiv@sign)
  5482  0EA6  08C2               	movf	((___ftdiv@sign))&07fh,f
  5483  0EA7  1D03               	skipz
  5484  0EA8  2EAA               	goto	u3521
  5485  0EA9  2EAB               	goto	u3520
  5486  0EAA                     u3521:
  5487  0EAA  2EB2               	goto	l30001743
  5488  0EAB                     u3520:
  5489                           	
  5490  0EAB                     l30001741:	
  5491                           	line	58
  5492  0EAB  3000               	movlw	0x0
  5493  0EAC  00C3               	movwf	(?___ftdiv)
  5494  0EAD  3000               	movlw	0x0
  5495  0EAE  00C4               	movwf	(?___ftdiv+1)
  5496  0EAF  3000               	movlw	0x0
  5497  0EB0  00C5               	movwf	(?___ftdiv+2)
  5498  0EB1  2F3E               	goto	l149
  5499                           	
  5500  0EB2                     l30001743:	
  5501                           	line	59
  5502  0EB2  3000               	movlw	0
  5503  0EB3  00BE               	movwf	(___ftdiv@f3)
  5504  0EB4  3000               	movlw	0
  5505  0EB5  00BF               	movwf	(___ftdiv@f3+1)
  5506  0EB6  3000               	movlw	0
  5507  0EB7  00C0               	movwf	(___ftdiv@f3+2)
  5508                           	
  5509  0EB8                     l30001744:	
  5510                           	line	60
  5511  0EB8  0842               	movf	(___ftdiv@sign),w
  5512  0EB9  3E89               	addlw	089h
  5513  0EBA  00B9               	movwf	(??___ftdiv+0+0)
  5514  0EBB  0839               	movf	(??___ftdiv+0+0),w
  5515  0EBC  02C1               	subwf	(___ftdiv@exp),f
  5516                           	
  5517  0EBD                     l30001745:	
  5518                           	line	61
  5519  0EBD  0843               	movf	(___ftdiv@f1),w
  5520  0EBE  00B9               	movwf	(??___ftdiv+0+0)
  5521  0EBF  0844               	movf	(___ftdiv@f1+1),w
  5522  0EC0  00BA               	movwf	(??___ftdiv+0+0+1)
  5523  0EC1  0845               	movf	(___ftdiv@f1+2),w
  5524  0EC2  00BB               	movwf	(??___ftdiv+0+0+2)
  5525  0EC3  3010               	movlw	010h
  5526  0EC4                     u3535:
  5527  0EC4  1003               	clrc
  5528  0EC5  0CBB               	rrf	(??___ftdiv+0+2),f
  5529  0EC6  0CBA               	rrf	(??___ftdiv+0+1),f
  5530  0EC7  0CB9               	rrf	(??___ftdiv+0+0),f
  5531  0EC8                     u3530:
  5532  0EC8  3EFF               	addlw	-1
  5533  0EC9  1D03               	skipz
  5534  0ECA  2EC4               	goto	u3535
  5535  0ECB  0839               	movf	0+(??___ftdiv+0+0),w
  5536  0ECC  00C2               	movwf	(___ftdiv@sign)
  5537                           	
  5538  0ECD                     l30001746:	
  5539                           	line	62
  5540  0ECD  0846               	movf	(___ftdiv@f2),w
  5541  0ECE  00B9               	movwf	(??___ftdiv+0+0)
  5542  0ECF  0847               	movf	(___ftdiv@f2+1),w
  5543  0ED0  00BA               	movwf	(??___ftdiv+0+0+1)
  5544  0ED1  0848               	movf	(___ftdiv@f2+2),w
  5545  0ED2  00BB               	movwf	(??___ftdiv+0+0+2)
  5546  0ED3  3010               	movlw	010h
  5547  0ED4                     u3545:
  5548  0ED4  1003               	clrc
  5549  0ED5  0CBB               	rrf	(??___ftdiv+0+2),f
  5550  0ED6  0CBA               	rrf	(??___ftdiv+0+1),f
  5551  0ED7  0CB9               	rrf	(??___ftdiv+0+0),f
  5552  0ED8                     u3540:
  5553  0ED8  3EFF               	addlw	-1
  5554  0ED9  1D03               	skipz
  5555  0EDA  2ED4               	goto	u3545
  5556  0EDB  0839               	movf	0+(??___ftdiv+0+0),w
  5557  0EDC  00BC               	movwf	(??___ftdiv+3+0)
  5558  0EDD  083C               	movf	(??___ftdiv+3+0),w
  5559  0EDE  06C2               	xorwf	(___ftdiv@sign),f
  5560                           	
  5561  0EDF                     l30001747:	
  5562                           	line	63
  5563  0EDF  3080               	movlw	(080h)
  5564  0EE0  00B9               	movwf	(??___ftdiv+0+0)
  5565  0EE1  0839               	movf	(??___ftdiv+0+0),w
  5566  0EE2  05C2               	andwf	(___ftdiv@sign),f
  5567                           	
  5568  0EE3                     l30001748:	
  5569                           	line	64
  5570  0EE3  17C4               	bsf	(___ftdiv@f1)+(15/8),(15)&7
  5571                           	line	65
  5572  0EE4  30FF               	movlw	0FFh
  5573  0EE5  05C3               	andwf	(___ftdiv@f1),f
  5574  0EE6  30FF               	movlw	0FFh
  5575  0EE7  05C4               	andwf	(___ftdiv@f1+1),f
  5576  0EE8  3000               	movlw	0
  5577  0EE9  05C5               	andwf	(___ftdiv@f1+2),f
  5578                           	
  5579  0EEA                     l30001749:	
  5580                           	line	66
  5581  0EEA  17C7               	bsf	(___ftdiv@f2)+(15/8),(15)&7
  5582                           	line	67
  5583  0EEB  30FF               	movlw	0FFh
  5584  0EEC  05C6               	andwf	(___ftdiv@f2),f
  5585  0EED  30FF               	movlw	0FFh
  5586  0EEE  05C7               	andwf	(___ftdiv@f2+1),f
  5587  0EEF  3000               	movlw	0
  5588  0EF0  05C8               	andwf	(___ftdiv@f2+2),f
  5589                           	line	68
  5590  0EF1  3018               	movlw	(018h)
  5591  0EF2  00BD               	movwf	(___ftdiv@cntr)
  5592                           	
  5593  0EF3                     l30001750:	
  5594                           	line	70
  5595  0EF3  3001               	movlw	01h
  5596  0EF4                     u3555:
  5597  0EF4  1003               	clrc
  5598  0EF5  0DBE               	rlf	(___ftdiv@f3),f
  5599  0EF6  0DBF               	rlf	(___ftdiv@f3+1),f
  5600  0EF7  0DC0               	rlf	(___ftdiv@f3+2),f
  5601  0EF8  3EFF               	addlw	-1
  5602  0EF9  1D03               	skipz
  5603  0EFA  2EF4               	goto	u3555
  5604                           	
  5605  0EFB                     l30001751:	
  5606                           	line	71
  5607  0EFB  0848               	movf	(___ftdiv@f2+2),w
  5608  0EFC  0245               	subwf	(___ftdiv@f1+2),w
  5609  0EFD  1D03               	skipz
  5610  0EFE  2F05               	goto	u3565
  5611  0EFF  0847               	movf	(___ftdiv@f2+1),w
  5612  0F00  0244               	subwf	(___ftdiv@f1+1),w
  5613  0F01  1D03               	skipz
  5614  0F02  2F05               	goto	u3565
  5615  0F03  0846               	movf	(___ftdiv@f2),w
  5616  0F04  0243               	subwf	(___ftdiv@f1),w
  5617  0F05                     u3565:
  5618  0F05  1C03               	skipc
  5619  0F06  2F08               	goto	u3561
  5620  0F07  2F09               	goto	u3560
  5621  0F08                     u3561:
  5622  0F08  2F14               	goto	l30001754
  5623  0F09                     u3560:
  5624                           	
  5625  0F09                     l30001752:	
  5626                           	line	72
  5627  0F09  0846               	movf	(___ftdiv@f2),w
  5628  0F0A  02C3               	subwf	(___ftdiv@f1),f
  5629  0F0B  0847               	movf	(___ftdiv@f2+1),w
  5630  0F0C  1C03               	skipc
  5631  0F0D  0F47               	incfsz	(___ftdiv@f2+1),w
  5632  0F0E  02C4               	subwf	(___ftdiv@f1+1),f
  5633  0F0F  0848               	movf	(___ftdiv@f2+2),w
  5634  0F10  1C03               	skipc
  5635  0F11  0A48               	incf	(___ftdiv@f2+2),w
  5636  0F12  02C5               	subwf	(___ftdiv@f1+2),f
  5637                           	
  5638  0F13                     l30001753:	
  5639                           	line	73
  5640  0F13  143E               	bsf	(___ftdiv@f3)+(0/8),(0)&7
  5641                           	
  5642  0F14                     l30001754:	
  5643                           	line	75
  5644  0F14  3001               	movlw	01h
  5645  0F15                     u3575:
  5646  0F15  1003               	clrc
  5647  0F16  0DC3               	rlf	(___ftdiv@f1),f
  5648  0F17  0DC4               	rlf	(___ftdiv@f1+1),f
  5649  0F18  0DC5               	rlf	(___ftdiv@f1+2),f
  5650  0F19  3EFF               	addlw	-1
  5651  0F1A  1D03               	skipz
  5652  0F1B  2F15               	goto	u3575
  5653                           	
  5654  0F1C                     l30001755:	
  5655                           	line	76
  5656  0F1C  3001               	movlw	low(01h)
  5657  0F1D  02BD               	subwf	(___ftdiv@cntr),f
  5658  0F1E  1D03               	btfss	status,2
  5659  0F1F  2F21               	goto	u3581
  5660  0F20  2F22               	goto	u3580
  5661  0F21                     u3581:
  5662  0F21  2EF3               	goto	l30001750
  5663  0F22                     u3580:
  5664                           	
  5665  0F22                     l30001756:	
  5666                           	line	77
  5667  0F22  083E               	movf	(___ftdiv@f3),w
  5668  0F23  00A0               	movwf	(?___ftpack)
  5669  0F24  083F               	movf	(___ftdiv@f3+1),w
  5670  0F25  00A1               	movwf	(?___ftpack+1)
  5671  0F26  0840               	movf	(___ftdiv@f3+2),w
  5672  0F27  00A2               	movwf	(?___ftpack+2)
  5673  0F28  0841               	movf	(___ftdiv@exp),w
  5674  0F29  00B9               	movwf	(??___ftdiv+0+0)
  5675  0F2A  0839               	movf	(??___ftdiv+0+0),w
  5676  0F2B  00A3               	movwf	0+(?___ftpack)+03h
  5677  0F2C  0842               	movf	(___ftdiv@sign),w
  5678  0F2D  00BA               	movwf	(??___ftdiv+1+0)
  5679  0F2E  083A               	movf	(??___ftdiv+1+0),w
  5680  0F2F  00A4               	movwf	0+(?___ftpack)+04h
  5681  0F30  120A  158A  2384   	fcall	___ftpack
              120A  158A         
  5682  0F35  1383               	bcf	status, 7	;select IRP bank0
  5683  0F36  1283               	bcf	status, 5	;RP0=0, select bank0
  5684  0F37  1303               	bcf	status, 6	;RP1=0, select bank0
  5685  0F38  0820               	movf	(0+(?___ftpack)),w
  5686  0F39  00C3               	movwf	(?___ftdiv)
  5687  0F3A  0821               	movf	(1+(?___ftpack)),w
  5688  0F3B  00C4               	movwf	(?___ftdiv+1)
  5689  0F3C  0822               	movf	(2+(?___ftpack)),w
  5690  0F3D  00C5               	movwf	(?___ftdiv+2)
  5691                           	
  5692  0F3E                     l149:	
  5693  0F3E  0008               	return
  5694                           	opt stack 0
  5695                           GLOBAL	__end_of___ftdiv
  5696  0F3F                     	__end_of___ftdiv:
  5697                           ; =============== function ___ftdiv ends ============
  5698                           
  5699                           psect	text157,local,class=CODE,delta=2
  5700                           global __ptext157
  5701  0A25                     __ptext157:
  5702                           	line	78
  5703                           	signat	___ftdiv,8315
  5704                           	global	___ftneg
  5705                           
  5706                           ; *************** function ___ftneg *****************
  5707                           ; Defined at:
  5708                           ;		line 16 in file "C:\Program Files (x86)\HI-TECH Software\PICC\9.70\sources\ftneg.c"
  5709                           ; Parameters:    Size  Location     Type
  5710                           ;  f1              3    0[COMMON] float 
  5711                           ; Auto vars:     Size  Location     Type
  5712                           ;		None
  5713                           ; Return value:  Size  Location     Type
  5714                           ;                  3    0[COMMON] float 
  5715                           ; Registers used:
  5716                           ;		wreg
  5717                           ; Tracked objects:
  5718                           ;		On entry : 0/0
  5719                           ;		On exit  : 0/0
  5720                           ;		Unchanged: 0/0
  5721                           ; Data sizes:     COMMON   BANK0   BANK1   BANK3   BANK2
  5722                           ;      Locals:         3       0       0       0       0
  5723                           ;      Temp:     0
  5724                           ;      Total:    3
  5725                           ; This function calls:
  5726                           ;		Nothing
  5727                           ; This function is called by:
  5728                           ;		_temperature
  5729                           ; This function uses a non-reentrant model
  5730                           ; 
  5731                           psect	text157
  5732                           	file	"C:\Program Files (x86)\HI-TECH Software\PICC\9.70\sources\ftneg.c"
  5733                           	line	16
  5734                           	global	__size_of___ftneg
  5735  000A                     	__size_of___ftneg	equ	__end_of___ftneg-___ftneg
  5736                           	
  5737  0A25                     ___ftneg:	
  5738                           	opt stack 5
  5739                           ; Regs used in ___ftneg: [wreg]
  5740                           	line	17
  5741                           	
  5742  0A25                     l30001508:	
  5743  0A25  0878               	movf	(___ftneg@f1+2),w
  5744  0A26  0477               	iorwf	(___ftneg@f1+1),w
  5745  0A27  0476               	iorwf	(___ftneg@f1),w
  5746  0A28  1903               	skipnz
  5747  0A29  2A2B               	goto	u2661
  5748  0A2A  2A2C               	goto	u2660
  5749  0A2B                     u2661:
  5750  0A2B  2A2E               	goto	l30001510
  5751  0A2C                     u2660:
  5752                           	
  5753  0A2C                     l30001509:	
  5754                           	line	18
  5755  0A2C  3080               	movlw	080h
  5756  0A2D  06F8               	xorwf	(___ftneg@f1+2),f
  5757                           	
  5758  0A2E                     l30001510:	
  5759                           	line	19
  5760                           	
  5761  0A2E                     l248:	
  5762  0A2E  0008               	return
  5763                           	opt stack 0
  5764                           GLOBAL	__end_of___ftneg
  5765  0A2F                     	__end_of___ftneg:
  5766                           ; =============== function ___ftneg ends ============
  5767                           
  5768                           psect	text158,local,class=CODE,delta=2
  5769                           global __ptext158
  5770  0A3B                     __ptext158:
  5771                           	line	20
  5772                           	signat	___ftneg,4219
  5773                           	global	_command
  5774                           
  5775                           ; *************** function _command *****************
  5776                           ; Defined at:
  5777                           ;		line 45 in file "C:\Users\gowth\Documents\PIC Programs\LIFT\LIFT.c"
  5778                           ; Parameters:    Size  Location     Type
  5779                           ;  data            1    wreg     unsigned char 
  5780                           ; Auto vars:     Size  Location     Type
  5781                           ;  data            1    0[COMMON] unsigned char 
  5782                           ; Return value:  Size  Location     Type
  5783                           ;		None               void
  5784                           ; Registers used:
  5785                           ;		wreg, status,2, status,0, pclath, cstack
  5786                           ; Tracked objects:
  5787                           ;		On entry : 0/0
  5788                           ;		On exit  : 0/0
  5789                           ;		Unchanged: 0/0
  5790                           ; Data sizes:     COMMON   BANK0   BANK1   BANK3   BANK2
  5791                           ;      Locals:         1       0       0       0       0
  5792                           ;      Temp:     0
  5793                           ;      Total:    1
  5794                           ; This function calls:
  5795                           ;		_pulse
  5796                           ; This function is called by:
  5797                           ;		_lift
  5798                           ;		_temperature
  5799                           ;		_tmr
  5800                           ;		_main
  5801                           ; This function uses a non-reentrant model
  5802                           ; 
  5803                           psect	text158
  5804                           	file	"C:\Users\gowth\Documents\PIC Programs\LIFT\LIFT.c"
  5805                           	line	45
  5806                           	global	__size_of_command
  5807  000C                     	__size_of_command	equ	__end_of_command-_command
  5808                           ;LIFT.c: 44: void command(char data)
  5809                           ;LIFT.c: 45: {
  5810                           	
  5811  0A3B                     _command:	
  5812                           	opt stack 5
  5813                           ; Regs used in _command: [wreg+status,2+status,0+pclath+cstack]
  5814                           ;command@data stored from wreg
  5815  0A3B  00F6               	movwf	(command@data)
  5816                           	
  5817  0A3C                     l30001635:	
  5818                           	line	46
  5819                           ;LIFT.c: 46: RE0=0;
  5820  0A3C  1283               	bcf	status, 5	;RP0=0, select bank0
  5821  0A3D  1303               	bcf	status, 6	;RP1=0, select bank0
  5822  0A3E  1009               	bcf	(72/8),(72)&7
  5823                           	
  5824  0A3F                     l30001636:	
  5825                           	line	47
  5826                           ;LIFT.c: 47: PORTD=data;
  5827  0A3F  0876               	movf	(command@data),w
  5828  0A40  0088               	movwf	(8)	;volatile
  5829                           	
  5830  0A41                     l30001637:	
  5831                           	line	48
  5832                           ;LIFT.c: 48: pulse();
  5833  0A41  120A  158A  24FF   	fcall	_pulse
              120A  158A         
  5834                           	
  5835  0A46                     l6:	
  5836  0A46  0008               	return
  5837                           	opt stack 0
  5838                           GLOBAL	__end_of_command
  5839  0A47                     	__end_of_command:
  5840                           ; =============== function _command ends ============
  5841                           
  5842                           psect	text159,local,class=CODE,delta=2
  5843                           global __ptext159
  5844  0003                     __ptext159:
  5845                           	line	49
  5846                           	signat	_command,4216
  5847                           	global	_string
  5848                           
  5849                           ; *************** function _string *****************
  5850                           ; Defined at:
  5851                           ;		line 59 in file "C:\Users\gowth\Documents\PIC Programs\LIFT\LIFT.c"
  5852                           ; Parameters:    Size  Location     Type
  5853                           ;  ptr             1    wreg     PTR unsigned char 
  5854                           ;		 -> STR_8(12), STR_1(13), STR_3(13), STR_2(13), 
  5855                           ;		 -> STR_4(13), STR_7(13), STR_5(13), STR_6(12), 
  5856                           ;		 -> STR_12(12), STR_9(13), STR_10(12), STR_11(13), 
  5857                           ; Auto vars:     Size  Location     Type
  5858                           ;  ptr             1    2[BANK0 ] PTR unsigned char 
  5859                           ;		 -> STR_8(12), STR_1(13), STR_3(13), STR_2(13), 
  5860                           ;		 -> STR_4(13), STR_7(13), STR_5(13), STR_6(12), 
  5861                           ;		 -> STR_12(12), STR_9(13), STR_10(12), STR_11(13), 
  5862                           ; Return value:  Size  Location     Type
  5863                           ;		None               void
  5864                           ; Registers used:
  5865                           ;		wreg, status,2, status,0, pclath, cstack
  5866                           ; Tracked objects:
  5867                           ;		On entry : 0/0
  5868                           ;		On exit  : 0/0
  5869                           ;		Unchanged: 0/0
  5870                           ; Data sizes:     COMMON   BANK0   BANK1   BANK3   BANK2
  5871                           ;      Locals:         1       1       0       0       0
  5872                           ;      Temp:     1
  5873                           ;      Total:    2
  5874                           ; This function calls:
  5875                           ;		_data
  5876                           ; This function is called by:
  5877                           ;		_lift
  5878                           ;		_tmr
  5879                           ; This function uses a non-reentrant model
  5880                           ; 
  5881                           psect	text159
  5882                           	file	"C:\Users\gowth\Documents\PIC Programs\LIFT\LIFT.c"
  5883                           	line	59
  5884                           	global	__size_of_string
  5885  0021                     	__size_of_string	equ	__end_of_string-_string
  5886                           ;LIFT.c: 58: void string(char *ptr)
  5887                           ;LIFT.c: 59: {
  5888                           	
  5889  0003                     _string:	
  5890                           	opt stack 5
  5891                           ; Regs used in _string: [wreg+status,2+status,0+pclath+cstack]
  5892                           ;string@ptr stored from wreg
  5893  0003  1283               	bcf	status, 5	;RP0=0, select bank0
  5894  0004  1303               	bcf	status, 6	;RP1=0, select bank0
  5895  0005  00A2               	movwf	(string@ptr)
  5896                           	
  5897  0006                     l30001713:	
  5898  0006  2818               	goto	l30001716
  5899                           	
  5900  0007                     l30001714:	
  5901                           	line	62
  5902                           ;LIFT.c: 61: {
  5903                           ;LIFT.c: 62: data(*ptr);
  5904  0007  0822               	movf	(string@ptr),w
  5905                           	FNCALL _string,stringtab
  5906  0008  120A  158A  2409   	fcall	stringdir
              120A  118A         
  5907  000D  120A  158A  222F   	fcall	_data
              120A  118A         
  5908                           	
  5909  0012                     l30001715:	
  5910                           	line	63
  5911                           ;LIFT.c: 63: *ptr++;
  5912  0012  3001               	movlw	(01h)
  5913  0013  00F7               	movwf	(??_string+0+0)
  5914  0014  0877               	movf	(??_string+0+0),w
  5915  0015  1283               	bcf	status, 5	;RP0=0, select bank0
  5916  0016  1303               	bcf	status, 6	;RP1=0, select bank0
  5917  0017  07A2               	addwf	(string@ptr),f
  5918                           	
  5919  0018                     l30001716:	
  5920                           	line	60
  5921  0018  0822               	movf	(string@ptr),w
  5922                           	FNCALL _string,stringtab
  5923  0019  120A  158A  2409   	fcall	stringdir
              120A  118A         
  5924  001E  3800               	iorlw	0
  5925  001F  1D03               	skipz
  5926  0020  2822               	goto	u3371
  5927  0021  2823               	goto	u3370
  5928  0022                     u3371:
  5929  0022  2807               	goto	l30001714
  5930  0023                     u3370:
  5931                           	
  5932  0023                     l8:	
  5933  0023  0008               	return
  5934                           	opt stack 0
  5935                           GLOBAL	__end_of_string
  5936  0024                     	__end_of_string:
  5937                           ; =============== function _string ends ============
  5938                           
  5939                           psect	text160,local,class=CODE,delta=2
  5940                           global __ptext160
  5941  0AA9                     __ptext160:
  5942                           	line	65
  5943                           	signat	_string,4216
  5944                           	global	_count
  5945                           
  5946                           ; *************** function _count *****************
  5947                           ; Defined at:
  5948                           ;		line 163 in file "C:\Users\gowth\Documents\PIC Programs\LIFT\LIFT.c"
  5949                           ; Parameters:    Size  Location     Type
  5950                           ;  i               2   22[BANK0 ] int 
  5951                           ; Auto vars:     Size  Location     Type
  5952                           ;  f               2    0        int 
  5953                           ;  e               2    0        int 
  5954                           ;  c               2    0        int 
  5955                           ;  a               2    0        int 
  5956                           ; Return value:  Size  Location     Type
  5957                           ;		None               void
  5958                           ; Registers used:
  5959                           ;		wreg, status,2, status,0, pclath, cstack
  5960                           ; Tracked objects:
  5961                           ;		On entry : 0/0
  5962                           ;		On exit  : 0/0
  5963                           ;		Unchanged: 0/0
  5964                           ; Data sizes:     COMMON   BANK0   BANK1   BANK3   BANK2
  5965                           ;      Locals:         0      10       0       0       0
  5966                           ;      Temp:     0
  5967                           ;      Total:   10
  5968                           ; This function calls:
  5969                           ;		___awdiv
  5970                           ;		___awmod
  5971                           ; This function is called by:
  5972                           ;		_adc
  5973                           ; This function uses a non-reentrant model
  5974                           ; 
  5975                           psect	text160
  5976                           	file	"C:\Users\gowth\Documents\PIC Programs\LIFT\LIFT.c"
  5977                           	line	163
  5978                           	global	__size_of_count
  5979  0069                     	__size_of_count	equ	__end_of_count-_count
  5980                           ;LIFT.c: 162: void count(int i)
  5981                           ;LIFT.c: 163: {
  5982                           	
  5983  0AA9                     _count:	
  5984                           	opt stack 5
  5985                           ; Regs used in _count: [wreg+status,2+status,0+pclath+cstack]
  5986                           	line	166
  5987                           	
  5988  0AA9                     l30001801:	
  5989  0AA9  1283               	bcf	status, 5	;RP0=0, select bank0
  5990  0AAA  1303               	bcf	status, 6	;RP1=0, select bank0
  5991  0AAB  0837               	movf	(count@i+1),w
  5992  0AAC  01AB               	clrf	(?___awdiv+1)
  5993  0AAD  07AB               	addwf	(?___awdiv+1)
  5994  0AAE  0836               	movf	(count@i),w
  5995  0AAF  01AA               	clrf	(?___awdiv)
  5996  0AB0  07AA               	addwf	(?___awdiv)
  5997                           
  5998  0AB1  30E8               	movlw	low(03E8h)
  5999  0AB2  00AC               	movwf	0+(?___awdiv)+02h
  6000  0AB3  3003               	movlw	high(03E8h)
  6001  0AB4  00AD               	movwf	(0+(?___awdiv)+02h)+1
  6002  0AB5  120A  158A  2312   	fcall	___awdiv
              120A  158A         
  6003                           	line	167
  6004  0ABA  1283               	bcf	status, 5	;RP0=0, select bank0
  6005  0ABB  1303               	bcf	status, 6	;RP1=0, select bank0
  6006  0ABC  0837               	movf	(count@i+1),w
  6007  0ABD  01A3               	clrf	(?___awmod+1)
  6008  0ABE  07A3               	addwf	(?___awmod+1)
  6009  0ABF  0836               	movf	(count@i),w
  6010  0AC0  01A2               	clrf	(?___awmod)
  6011  0AC1  07A2               	addwf	(?___awmod)
  6012                           
  6013  0AC2  30E8               	movlw	low(03E8h)
  6014  0AC3  00A4               	movwf	0+(?___awmod)+02h
  6015  0AC4  3003               	movlw	high(03E8h)
  6016  0AC5  00A5               	movwf	(0+(?___awmod)+02h)+1
  6017  0AC6  120A  158A  2247   	fcall	___awmod
              120A  158A         
  6018  0ACB  1383               	bcf	status, 7	;select IRP bank0
  6019  0ACC  1283               	bcf	status, 5	;RP0=0, select bank0
  6020  0ACD  1303               	bcf	status, 6	;RP1=0, select bank0
  6021  0ACE  0823               	movf	(1+(?___awmod)),w
  6022  0ACF  01AB               	clrf	(?___awdiv+1)
  6023  0AD0  07AB               	addwf	(?___awdiv+1)
  6024  0AD1  0822               	movf	(0+(?___awmod)),w
  6025  0AD2  01AA               	clrf	(?___awdiv)
  6026  0AD3  07AA               	addwf	(?___awdiv)
  6027                           
  6028  0AD4  3064               	movlw	low(064h)
  6029  0AD5  00AC               	movwf	0+(?___awdiv)+02h
  6030  0AD6  3000               	movlw	high(064h)
  6031  0AD7  00AD               	movwf	(0+(?___awdiv)+02h)+1
  6032  0AD8  120A  158A  2312   	fcall	___awdiv
              120A  158A         
  6033                           	line	168
  6034  0ADD  1283               	bcf	status, 5	;RP0=0, select bank0
  6035  0ADE  1303               	bcf	status, 6	;RP1=0, select bank0
  6036  0ADF  0837               	movf	(count@i+1),w
  6037  0AE0  01A3               	clrf	(?___awmod+1)
  6038  0AE1  07A3               	addwf	(?___awmod+1)
  6039  0AE2  0836               	movf	(count@i),w
  6040  0AE3  01A2               	clrf	(?___awmod)
  6041  0AE4  07A2               	addwf	(?___awmod)
  6042                           
  6043  0AE5  3064               	movlw	low(064h)
  6044  0AE6  00A4               	movwf	0+(?___awmod)+02h
  6045  0AE7  3000               	movlw	high(064h)
  6046  0AE8  00A5               	movwf	(0+(?___awmod)+02h)+1
  6047  0AE9  120A  158A  2247   	fcall	___awmod
              120A  158A         
  6048  0AEE  1383               	bcf	status, 7	;select IRP bank0
  6049  0AEF  1283               	bcf	status, 5	;RP0=0, select bank0
  6050  0AF0  1303               	bcf	status, 6	;RP1=0, select bank0
  6051  0AF1  0823               	movf	(1+(?___awmod)),w
  6052  0AF2  01AB               	clrf	(?___awdiv+1)
  6053  0AF3  07AB               	addwf	(?___awdiv+1)
  6054  0AF4  0822               	movf	(0+(?___awmod)),w
  6055  0AF5  01AA               	clrf	(?___awdiv)
  6056  0AF6  07AA               	addwf	(?___awdiv)
  6057                           
  6058  0AF7  300A               	movlw	low(0Ah)
  6059  0AF8  00AC               	movwf	0+(?___awdiv)+02h
  6060  0AF9  3000               	movlw	high(0Ah)
  6061  0AFA  00AD               	movwf	(0+(?___awdiv)+02h)+1
  6062  0AFB  120A  158A  2312   	fcall	___awdiv
              120A  158A         
  6063                           	line	169
  6064  0B00  1283               	bcf	status, 5	;RP0=0, select bank0
  6065  0B01  1303               	bcf	status, 6	;RP1=0, select bank0
  6066  0B02  0837               	movf	(count@i+1),w
  6067  0B03  01A3               	clrf	(?___awmod+1)
  6068  0B04  07A3               	addwf	(?___awmod+1)
  6069  0B05  0836               	movf	(count@i),w
  6070  0B06  01A2               	clrf	(?___awmod)
  6071  0B07  07A2               	addwf	(?___awmod)
  6072                           
  6073  0B08  300A               	movlw	low(0Ah)
  6074  0B09  00A4               	movwf	0+(?___awmod)+02h
  6075  0B0A  3000               	movlw	high(0Ah)
  6076  0B0B  00A5               	movwf	(0+(?___awmod)+02h)+1
  6077  0B0C  120A  158A  2247   	fcall	___awmod
              120A  158A         
  6078                           	
  6079  0B11                     l24:	
  6080  0B11  0008               	return
  6081                           	opt stack 0
  6082                           GLOBAL	__end_of_count
  6083  0B12                     	__end_of_count:
  6084                           ; =============== function _count ends ============
  6085                           
  6086                           psect	text161,local,class=CODE,delta=2
  6087                           global __ptext161
  6088  0D48                     __ptext161:
  6089                           	line	176
  6090                           	signat	_count,4216
  6091                           	global	___fttol
  6092                           
  6093                           ; *************** function ___fttol *****************
  6094                           ; Defined at:
  6095                           ;		line 45 in file "C:\Program Files (x86)\HI-TECH Software\PICC\9.70\sources\fttol.c"
  6096                           ; Parameters:    Size  Location     Type
  6097                           ;  f1              3   34[BANK0 ] float 
  6098                           ; Auto vars:     Size  Location     Type
  6099                           ;  lval            4   29[BANK0 ] unsigned long 
  6100                           ;  exp1            1   33[BANK0 ] unsigned char 
  6101                           ;  sign1           1   28[BANK0 ] unsigned char 
  6102                           ; Return value:  Size  Location     Type
  6103                           ;                  4   34[BANK0 ] long 
  6104                           ; Registers used:
  6105                           ;		wreg, status,2, status,0
  6106                           ; Tracked objects:
  6107                           ;		On entry : 0/0
  6108                           ;		On exit  : 0/0
  6109                           ;		Unchanged: 0/0
  6110                           ; Data sizes:     COMMON   BANK0   BANK1   BANK3   BANK2
  6111                           ;      Locals:         0      13       0       0       0
  6112                           ;      Temp:     3
  6113                           ;      Total:   13
  6114                           ; This function calls:
  6115                           ; This function is called by:
  6116                           ;		_temperature
  6117                           ; This function uses a non-reentrant model
  6118                           ; 
  6119                           psect	text161
  6120                           	file	"C:\Program Files (x86)\HI-TECH Software\PICC\9.70\sources\fttol.c"
  6121                           	line	45
  6122                           	global	__size_of___fttol
  6123  0087                     	__size_of___fttol	equ	__end_of___fttol-___fttol
  6124                           	
  6125  0D48                     ___fttol:	
  6126                           	opt stack 5
  6127                           ; Regs used in ___fttol: [wreg+status,2+status,0]
  6128                           	line	49
  6129                           	
  6130  0D48                     l30001295:	
  6131  0D48  1283               	bcf	status, 5	;RP0=0, select bank0
  6132  0D49  1303               	bcf	status, 6	;RP1=0, select bank0
  6133  0D4A  0842               	movf	(___fttol@f1),w
  6134  0D4B  00B9               	movwf	(??___fttol+0+0)
  6135  0D4C  0843               	movf	(___fttol@f1+1),w
  6136  0D4D  00BA               	movwf	(??___fttol+0+0+1)
  6137  0D4E  0844               	movf	(___fttol@f1+2),w
  6138  0D4F  00BB               	movwf	(??___fttol+0+0+2)
  6139  0D50  1003               	clrc
  6140  0D51  0D3A               	rlf	(??___fttol+0+1),w
  6141  0D52  0D3B               	rlf	(??___fttol+0+2),w
  6142  0D53  00C1               	movwf	(___fttol@exp1)
  6143  0D54  08C1               	movf	((___fttol@exp1))&07fh,f
  6144  0D55  1D03               	skipz
  6145  0D56  2D58               	goto	u1611
  6146  0D57  2D59               	goto	u1610
  6147  0D58                     u1611:
  6148  0D58  2D62               	goto	l30001298
  6149  0D59                     u1610:
  6150                           	
  6151  0D59                     l30001296:	
  6152                           	line	50
  6153  0D59  3000               	movlw	0
  6154  0D5A  00C5               	movwf	(?___fttol+3)
  6155  0D5B  3000               	movlw	0
  6156  0D5C  00C4               	movwf	(?___fttol+2)
  6157  0D5D  3000               	movlw	0
  6158  0D5E  00C3               	movwf	(?___fttol+1)
  6159  0D5F  3000               	movlw	0
  6160  0D60  00C2               	movwf	(?___fttol)
  6161                           
  6162  0D61  2DCE               	goto	l209
  6163                           	
  6164  0D62                     l30001298:	
  6165                           	line	51
  6166  0D62  0842               	movf	(___fttol@f1),w
  6167  0D63  00B9               	movwf	(??___fttol+0+0)
  6168  0D64  0843               	movf	(___fttol@f1+1),w
  6169  0D65  00BA               	movwf	(??___fttol+0+0+1)
  6170  0D66  0844               	movf	(___fttol@f1+2),w
  6171  0D67  00BB               	movwf	(??___fttol+0+0+2)
  6172  0D68  3017               	movlw	017h
  6173  0D69                     u1625:
  6174  0D69  1003               	clrc
  6175  0D6A  0CBB               	rrf	(??___fttol+0+2),f
  6176  0D6B  0CBA               	rrf	(??___fttol+0+1),f
  6177  0D6C  0CB9               	rrf	(??___fttol+0+0),f
  6178  0D6D                     u1620:
  6179  0D6D  3EFF               	addlw	-1
  6180  0D6E  1D03               	skipz
  6181  0D6F  2D69               	goto	u1625
  6182  0D70  0839               	movf	0+(??___fttol+0+0),w
  6183  0D71  00BC               	movwf	(___fttol@sign1)
  6184                           	
  6185  0D72                     l30001299:	
  6186                           	line	52
  6187  0D72  17C3               	bsf	(___fttol@f1)+(15/8),(15)&7
  6188                           	
  6189  0D73                     l30001300:	
  6190                           	line	53
  6191  0D73  30FF               	movlw	0FFh
  6192  0D74  05C2               	andwf	(___fttol@f1),f
  6193  0D75  30FF               	movlw	0FFh
  6194  0D76  05C3               	andwf	(___fttol@f1+1),f
  6195  0D77  3000               	movlw	0
  6196  0D78  05C4               	andwf	(___fttol@f1+2),f
  6197                           	
  6198  0D79                     l30001301:	
  6199                           	line	54
  6200  0D79  0842               	movf	(___fttol@f1),w
  6201  0D7A  00BD               	movwf	(___fttol@lval)
  6202  0D7B  0843               	movf	(___fttol@f1+1),w
  6203  0D7C  00BE               	movwf	((___fttol@lval))+1
  6204                           	
  6205  0D7D  0844               	movf	(___fttol@f1+2),w
  6206  0D7E  00BF               	movwf	((___fttol@lval))+2
  6207                           	
  6208  0D7F  01C0               	clrf	3+(___fttol@lval)
  6209                           	
  6210  0D80                     l30001302:	
  6211                           	line	55
  6212  0D80  308E               	movlw	low(08Eh)
  6213  0D81  02C1               	subwf	(___fttol@exp1),f
  6214                           	
  6215  0D82                     l30001303:	
  6216                           	line	56
  6217  0D82  1FC1               	btfss	(___fttol@exp1),7
  6218  0D83  2D85               	goto	u1631
  6219  0D84  2D86               	goto	u1630
  6220  0D85                     u1631:
  6221  0D85  2DA0               	goto	l30001308
  6222  0D86                     u1630:
  6223                           	
  6224  0D86                     l30001304:	
  6225                           	line	57
  6226  0D86  0841               	movf	(___fttol@exp1),w
  6227  0D87  3A80               	xorlw	80h
  6228  0D88  3E8F               	addlw	-((-15)^80h)
  6229  0D89  1803               	skipnc
  6230  0D8A  2D8C               	goto	u1641
  6231  0D8B  2D8D               	goto	u1640
  6232  0D8C                     u1641:
  6233  0D8C  2D8E               	goto	l30001307
  6234  0D8D                     u1640:
  6235  0D8D  2D59               	goto	l30001296
  6236                           	
  6237  0D8E                     l30001307:	
  6238                           	line	60
  6239  0D8E  3001               	movlw	01h
  6240  0D8F                     u1655:
  6241  0D8F  1003               	clrc
  6242  0D90  0CC0               	rrf	(___fttol@lval+3),f
  6243  0D91  0CBF               	rrf	(___fttol@lval+2),f
  6244  0D92  0CBE               	rrf	(___fttol@lval+1),f
  6245  0D93  0CBD               	rrf	(___fttol@lval),f
  6246  0D94  3EFF               	addlw	-1
  6247  0D95  1D03               	skipz
  6248  0D96  2D8F               	goto	u1655
  6249                           
  6250                           	line	61
  6251  0D97  3001               	movlw	(01h)
  6252  0D98  00B9               	movwf	(??___fttol+0+0)
  6253  0D99  0839               	movf	(??___fttol+0+0),w
  6254  0D9A  07C1               	addwf	(___fttol@exp1),f
  6255  0D9B  1D03               	btfss	status,2
  6256  0D9C  2D9E               	goto	u1661
  6257  0D9D  2D9F               	goto	u1660
  6258  0D9E                     u1661:
  6259  0D9E  2D8E               	goto	l30001307
  6260  0D9F                     u1660:
  6261  0D9F  2DB7               	goto	l30001313
  6262                           	
  6263  0DA0                     l30001308:	
  6264                           	line	63
  6265  0DA0  3018               	movlw	(018h)
  6266  0DA1  0241               	subwf	(___fttol@exp1),w
  6267  0DA2  1C03               	skipc
  6268  0DA3  2DA5               	goto	u1671
  6269  0DA4  2DA6               	goto	u1670
  6270  0DA5                     u1671:
  6271  0DA5  2DB2               	goto	l30001312
  6272  0DA6                     u1670:
  6273  0DA6  2D59               	goto	l30001296
  6274                           	
  6275  0DA7                     l30001311:	
  6276                           	line	66
  6277  0DA7  3001               	movlw	01h
  6278  0DA8  00B9               	movwf	(??___fttol+0+0)
  6279  0DA9                     u1685:
  6280  0DA9  1003               	clrc
  6281  0DAA  0DBD               	rlf	(___fttol@lval),f
  6282  0DAB  0DBE               	rlf	(___fttol@lval+1),f
  6283  0DAC  0DBF               	rlf	(___fttol@lval+2),f
  6284  0DAD  0DC0               	rlf	(___fttol@lval+3),f
  6285  0DAE  0BB9               	decfsz	(??___fttol+0+0)
  6286  0DAF  2DA9               	goto	u1685
  6287                           	line	67
  6288  0DB0  3001               	movlw	low(01h)
  6289  0DB1  02C1               	subwf	(___fttol@exp1),f
  6290                           	
  6291  0DB2                     l30001312:	
  6292                           	line	65
  6293  0DB2  08C1               	movf	(___fttol@exp1),f
  6294  0DB3  1D03               	skipz
  6295  0DB4  2DB6               	goto	u1691
  6296  0DB5  2DB7               	goto	u1690
  6297  0DB6                     u1691:
  6298  0DB6  2DA7               	goto	l30001311
  6299  0DB7                     u1690:
  6300                           	
  6301  0DB7                     l30001313:	
  6302                           	line	70
  6303  0DB7  083C               	movf	(___fttol@sign1),w
  6304  0DB8  1D03               	skipz
  6305  0DB9  2DBB               	goto	u1700
  6306  0DBA  2DC6               	goto	l30001315
  6307  0DBB                     u1700:
  6308                           	
  6309  0DBB                     l30001314:	
  6310                           	line	71
  6311  0DBB  09BD               	comf	(___fttol@lval),f
  6312  0DBC  09BE               	comf	(___fttol@lval+1),f
  6313  0DBD  09BF               	comf	(___fttol@lval+2),f
  6314  0DBE  09C0               	comf	(___fttol@lval+3),f
  6315  0DBF  0ABD               	incf	(___fttol@lval),f
  6316  0DC0  1903               	skipnz
  6317  0DC1  0ABE               	incf	(___fttol@lval+1),f
  6318  0DC2  1903               	skipnz
  6319  0DC3  0ABF               	incf	(___fttol@lval+2),f
  6320  0DC4  1903               	skipnz
  6321  0DC5  0AC0               	incf	(___fttol@lval+3),f
  6322                           	
  6323  0DC6                     l30001315:	
  6324                           	line	72
  6325  0DC6  0840               	movf	(___fttol@lval+3),w
  6326  0DC7  00C5               	movwf	(?___fttol+3)
  6327  0DC8  083F               	movf	(___fttol@lval+2),w
  6328  0DC9  00C4               	movwf	(?___fttol+2)
  6329  0DCA  083E               	movf	(___fttol@lval+1),w
  6330  0DCB  00C3               	movwf	(?___fttol+1)
  6331  0DCC  083D               	movf	(___fttol@lval),w
  6332  0DCD  00C2               	movwf	(?___fttol)
  6333                           
  6334                           	
  6335  0DCE                     l209:	
  6336  0DCE  0008               	return
  6337                           	opt stack 0
  6338                           GLOBAL	__end_of___fttol
  6339  0DCF                     	__end_of___fttol:
  6340                           ; =============== function ___fttol ends ============
  6341                           
  6342                           psect	text162,local,class=CODE,delta=2
  6343                           global __ptext162
  6344  0B12                     __ptext162:
  6345                           	line	73
  6346                           	signat	___fttol,4220
  6347                           	global	___awdiv
  6348                           
  6349                           ; *************** function ___awdiv *****************
  6350                           ; Defined at:
  6351                           ;		line 5 in file "C:\Program Files (x86)\HI-TECH Software\PICC\9.70\sources\awdiv.c"
  6352                           ; Parameters:    Size  Location     Type
  6353                           ;  dividend        2   10[BANK0 ] int 
  6354                           ;  divisor         2   12[BANK0 ] int 
  6355                           ; Auto vars:     Size  Location     Type
  6356                           ;  quotient        2    8[BANK0 ] int 
  6357                           ;  sign            1    7[BANK0 ] unsigned char 
  6358                           ;  counter         1    6[BANK0 ] unsigned char 
  6359                           ; Return value:  Size  Location     Type
  6360                           ;                  2   10[BANK0 ] int 
  6361                           ; Registers used:
  6362                           ;		wreg, status,2, status,0
  6363                           ; Tracked objects:
  6364                           ;		On entry : 0/0
  6365                           ;		On exit  : 0/0
  6366                           ;		Unchanged: 0/0
  6367                           ; Data sizes:     COMMON   BANK0   BANK1   BANK3   BANK2
  6368                           ;      Locals:         1       8       0       0       0
  6369                           ;      Temp:     1
  6370                           ;      Total:    9
  6371                           ; This function calls:
  6372                           ; This function is called by:
  6373                           ;		_count
  6374                           ;		_temperature
  6375                           ; This function uses a non-reentrant model
  6376                           ; 
  6377                           psect	text162
  6378                           	file	"C:\Program Files (x86)\HI-TECH Software\PICC\9.70\sources\awdiv.c"
  6379                           	line	5
  6380                           	global	__size_of___awdiv
  6381  0072                     	__size_of___awdiv	equ	__end_of___awdiv-___awdiv
  6382                           	
  6383  0B12                     ___awdiv:	
  6384                           	opt stack 4
  6385                           ; Regs used in ___awdiv: [wreg+status,2+status,0]
  6386                           	line	9
  6387                           	
  6388  0B12                     l30001414:	
  6389  0B12  1003               	clrc
  6390  0B13  3000               	movlw	0
  6391  0B14  1803               	btfsc	status,0
  6392  0B15  3001               	movlw	1
  6393  0B16  1283               	bcf	status, 5	;RP0=0, select bank0
  6394  0B17  1303               	bcf	status, 6	;RP1=0, select bank0
  6395  0B18  00A7               	movwf	(___awdiv@sign)
  6396                           	
  6397  0B19                     l30001415:	
  6398                           	line	10
  6399  0B19  1FAD               	btfss	(___awdiv@divisor+1),7
  6400  0B1A  2B1C               	goto	u2281
  6401  0B1B  2B1D               	goto	u2280
  6402  0B1C                     u2281:
  6403  0B1C  2B25               	goto	l30001417
  6404  0B1D                     u2280:
  6405                           	
  6406  0B1D                     l30001416:	
  6407                           	line	11
  6408  0B1D  09AC               	comf	(___awdiv@divisor),f
  6409  0B1E  09AD               	comf	(___awdiv@divisor+1),f
  6410  0B1F  0AAC               	incf	(___awdiv@divisor),f
  6411  0B20  1903               	skipnz
  6412  0B21  0AAD               	incf	(___awdiv@divisor+1),f
  6413                           	line	12
  6414  0B22  01A7               	clrf	(___awdiv@sign)
  6415  0B23  1403               	bsf	status,0
  6416  0B24  0DA7               	rlf	(___awdiv@sign),f
  6417                           	
  6418  0B25                     l30001417:	
  6419                           	line	14
  6420  0B25  1FAB               	btfss	(___awdiv@dividend+1),7
  6421  0B26  2B28               	goto	u2291
  6422  0B27  2B29               	goto	u2290
  6423  0B28                     u2291:
  6424  0B28  2B32               	goto	l229
  6425  0B29                     u2290:
  6426                           	
  6427  0B29                     l30001418:	
  6428                           	line	15
  6429  0B29  09AA               	comf	(___awdiv@dividend),f
  6430  0B2A  09AB               	comf	(___awdiv@dividend+1),f
  6431  0B2B  0AAA               	incf	(___awdiv@dividend),f
  6432  0B2C  1903               	skipnz
  6433  0B2D  0AAB               	incf	(___awdiv@dividend+1),f
  6434                           	
  6435  0B2E                     l30001419:	
  6436                           	line	16
  6437  0B2E  3001               	movlw	(01h)
  6438  0B2F  00F7               	movwf	(??___awdiv+0+0)
  6439  0B30  0877               	movf	(??___awdiv+0+0),w
  6440  0B31  06A7               	xorwf	(___awdiv@sign),f
  6441                           	
  6442  0B32                     l229:	
  6443                           	line	18
  6444  0B32  3000               	movlw	low(0)
  6445  0B33  00A8               	movwf	(___awdiv@quotient)
  6446  0B34  3000               	movlw	high(0)
  6447  0B35  00A9               	movwf	((___awdiv@quotient))+1
  6448                           	line	19
  6449  0B36  082D               	movf	(___awdiv@divisor+1),w
  6450  0B37  042C               	iorwf	(___awdiv@divisor),w
  6451  0B38  1903               	skipnz
  6452  0B39  2B3B               	goto	u2301
  6453  0B3A  2B3C               	goto	u2300
  6454  0B3B                     u2301:
  6455  0B3B  2B74               	goto	l30001429
  6456  0B3C                     u2300:
  6457                           	
  6458  0B3C                     l30001420:	
  6459                           	line	20
  6460  0B3C  01A6               	clrf	(___awdiv@counter)
  6461  0B3D  1403               	bsf	status,0
  6462  0B3E  0DA6               	rlf	(___awdiv@counter),f
  6463  0B3F  2B4B               	goto	l30001423
  6464                           	
  6465  0B40                     l30001421:	
  6466                           	line	22
  6467  0B40  3001               	movlw	01h
  6468  0B41                     u2315:
  6469  0B41  1003               	clrc
  6470  0B42  0DAC               	rlf	(___awdiv@divisor),f
  6471  0B43  0DAD               	rlf	(___awdiv@divisor+1),f
  6472  0B44  3EFF               	addlw	-1
  6473  0B45  1D03               	skipz
  6474  0B46  2B41               	goto	u2315
  6475                           	
  6476  0B47                     l30001422:	
  6477                           	line	23
  6478  0B47  3001               	movlw	(01h)
  6479  0B48  00F7               	movwf	(??___awdiv+0+0)
  6480  0B49  0877               	movf	(??___awdiv+0+0),w
  6481  0B4A  07A6               	addwf	(___awdiv@counter),f
  6482                           	
  6483  0B4B                     l30001423:	
  6484                           	line	21
  6485  0B4B  1FAD               	btfss	(___awdiv@divisor+1),(15)&7
  6486  0B4C  2B4E               	goto	u2321
  6487  0B4D  2B4F               	goto	u2320
  6488  0B4E                     u2321:
  6489  0B4E  2B40               	goto	l30001421
  6490  0B4F                     u2320:
  6491                           	
  6492  0B4F                     l30001424:	
  6493                           	line	26
  6494  0B4F  3001               	movlw	01h
  6495  0B50                     u2335:
  6496  0B50  1003               	clrc
  6497  0B51  0DA8               	rlf	(___awdiv@quotient),f
  6498  0B52  0DA9               	rlf	(___awdiv@quotient+1),f
  6499  0B53  3EFF               	addlw	-1
  6500  0B54  1D03               	skipz
  6501  0B55  2B50               	goto	u2335
  6502                           	line	27
  6503  0B56  082D               	movf	(___awdiv@divisor+1),w
  6504  0B57  022B               	subwf	(___awdiv@dividend+1),w
  6505  0B58  1D03               	skipz
  6506  0B59  2B5C               	goto	u2345
  6507  0B5A  082C               	movf	(___awdiv@divisor),w
  6508  0B5B  022A               	subwf	(___awdiv@dividend),w
  6509  0B5C                     u2345:
  6510  0B5C  1C03               	skipc
  6511  0B5D  2B5F               	goto	u2341
  6512  0B5E  2B60               	goto	u2340
  6513  0B5F                     u2341:
  6514  0B5F  2B67               	goto	l30001427
  6515  0B60                     u2340:
  6516                           	
  6517  0B60                     l30001425:	
  6518                           	line	28
  6519  0B60  082C               	movf	(___awdiv@divisor),w
  6520  0B61  02AA               	subwf	(___awdiv@dividend),f
  6521  0B62  082D               	movf	(___awdiv@divisor+1),w
  6522  0B63  1C03               	skipc
  6523  0B64  03AB               	decf	(___awdiv@dividend+1),f
  6524  0B65  02AB               	subwf	(___awdiv@dividend+1),f
  6525                           	
  6526  0B66                     l30001426:	
  6527                           	line	29
  6528  0B66  1428               	bsf	(___awdiv@quotient)+(0/8),(0)&7
  6529                           	
  6530  0B67                     l30001427:	
  6531                           	line	31
  6532  0B67  3001               	movlw	01h
  6533  0B68                     u2355:
  6534  0B68  1003               	clrc
  6535  0B69  0CAD               	rrf	(___awdiv@divisor+1),f
  6536  0B6A  0CAC               	rrf	(___awdiv@divisor),f
  6537  0B6B  3EFF               	addlw	-1
  6538  0B6C  1D03               	skipz
  6539  0B6D  2B68               	goto	u2355
  6540                           	
  6541  0B6E                     l30001428:	
  6542                           	line	32
  6543  0B6E  3001               	movlw	low(01h)
  6544  0B6F  02A6               	subwf	(___awdiv@counter),f
  6545  0B70  1D03               	btfss	status,2
  6546  0B71  2B73               	goto	u2361
  6547  0B72  2B74               	goto	u2360
  6548  0B73                     u2361:
  6549  0B73  2B4F               	goto	l30001424
  6550  0B74                     u2360:
  6551                           	
  6552  0B74                     l30001429:	
  6553                           	line	34
  6554  0B74  0827               	movf	(___awdiv@sign),w
  6555  0B75  1D03               	skipz
  6556  0B76  2B78               	goto	u2370
  6557  0B77  2B7D               	goto	l30001431
  6558  0B78                     u2370:
  6559                           	
  6560  0B78                     l30001430:	
  6561                           	line	35
  6562  0B78  09A8               	comf	(___awdiv@quotient),f
  6563  0B79  09A9               	comf	(___awdiv@quotient+1),f
  6564  0B7A  0AA8               	incf	(___awdiv@quotient),f
  6565  0B7B  1903               	skipnz
  6566  0B7C  0AA9               	incf	(___awdiv@quotient+1),f
  6567                           	
  6568  0B7D                     l30001431:	
  6569                           	line	36
  6570  0B7D  0829               	movf	(___awdiv@quotient+1),w
  6571  0B7E  01AB               	clrf	(?___awdiv+1)
  6572  0B7F  07AB               	addwf	(?___awdiv+1)
  6573  0B80  0828               	movf	(___awdiv@quotient),w
  6574  0B81  01AA               	clrf	(?___awdiv)
  6575  0B82  07AA               	addwf	(?___awdiv)
  6576                           
  6577                           	
  6578  0B83                     l227:	
  6579  0B83  0008               	return
  6580                           	opt stack 0
  6581                           GLOBAL	__end_of___awdiv
  6582  0B84                     	__end_of___awdiv:
  6583                           ; =============== function ___awdiv ends ============
  6584                           
  6585                           psect	text163,local,class=CODE,delta=2
  6586                           global __ptext163
  6587  0A2F                     __ptext163:
  6588                           	line	37
  6589                           	signat	___awdiv,8314
  6590                           	global	_data
  6591                           
  6592                           ; *************** function _data *****************
  6593                           ; Defined at:
  6594                           ;		line 52 in file "C:\Users\gowth\Documents\PIC Programs\LIFT\LIFT.c"
  6595                           ; Parameters:    Size  Location     Type
  6596                           ;  data            1    wreg     unsigned char 
  6597                           ; Auto vars:     Size  Location     Type
  6598                           ;  data            1    0[COMMON] unsigned char 
  6599                           ; Return value:  Size  Location     Type
  6600                           ;		None               void
  6601                           ; Registers used:
  6602                           ;		wreg, status,2, status,0, pclath, cstack
  6603                           ; Tracked objects:
  6604                           ;		On entry : 0/0
  6605                           ;		On exit  : 0/0
  6606                           ;		Unchanged: 0/0
  6607                           ; Data sizes:     COMMON   BANK0   BANK1   BANK3   BANK2
  6608                           ;      Locals:         1       0       0       0       0
  6609                           ;      Temp:     0
  6610                           ;      Total:    1
  6611                           ; This function calls:
  6612                           ;		_pulse
  6613                           ; This function is called by:
  6614                           ;		_string
  6615                           ;		_temperature
  6616                           ; This function uses a non-reentrant model
  6617                           ; 
  6618                           psect	text163
  6619                           	file	"C:\Users\gowth\Documents\PIC Programs\LIFT\LIFT.c"
  6620                           	line	52
  6621                           	global	__size_of_data
  6622  000C                     	__size_of_data	equ	__end_of_data-_data
  6623                           ;LIFT.c: 51: void data(char data)
  6624                           ;LIFT.c: 52: {
  6625                           	
  6626  0A2F                     _data:	
  6627                           	opt stack 4
  6628                           ; Regs used in _data: [wreg+status,2+status,0+pclath+cstack]
  6629                           ;data@data stored from wreg
  6630  0A2F  00F6               	movwf	(data@data)
  6631                           	
  6632  0A30                     l30001710:	
  6633                           	line	53
  6634                           ;LIFT.c: 53: RE0=1;
  6635  0A30  1283               	bcf	status, 5	;RP0=0, select bank0
  6636  0A31  1303               	bcf	status, 6	;RP1=0, select bank0
  6637  0A32  1409               	bsf	(72/8),(72)&7
  6638                           	
  6639  0A33                     l30001711:	
  6640                           	line	54
  6641                           ;LIFT.c: 54: PORTD=data;
  6642  0A33  0876               	movf	(data@data),w
  6643  0A34  0088               	movwf	(8)	;volatile
  6644                           	
  6645  0A35                     l30001712:	
  6646                           	line	55
  6647                           ;LIFT.c: 55: pulse();
  6648  0A35  120A  158A  24FF   	fcall	_pulse
              120A  158A         
  6649                           	
  6650  0A3A                     l7:	
  6651  0A3A  0008               	return
  6652                           	opt stack 0
  6653                           GLOBAL	__end_of_data
  6654  0A3B                     	__end_of_data:
  6655                           ; =============== function _data ends ============
  6656                           
  6657                           psect	text164,local,class=CODE,delta=2
  6658                           global __ptext164
  6659  0B84                     __ptext164:
  6660                           	line	56
  6661                           	signat	_data,4216
  6662                           	global	___ftpack
  6663                           
  6664                           ; *************** function ___ftpack *****************
  6665                           ; Defined at:
  6666                           ;		line 63 in file "C:\Program Files (x86)\HI-TECH Software\PICC\9.70\sources\float.c"
  6667                           ; Parameters:    Size  Location     Type
  6668                           ;  arg             3    0[BANK0 ] unsigned um
  6669                           ;  exp             1    3[BANK0 ] unsigned char 
  6670                           ;  sign            1    4[BANK0 ] unsigned char 
  6671                           ; Auto vars:     Size  Location     Type
  6672                           ;		None
  6673                           ; Return value:  Size  Location     Type
  6674                           ;                  3    0[BANK0 ] float 
  6675                           ; Registers used:
  6676                           ;		wreg, status,2, status,0
  6677                           ; Tracked objects:
  6678                           ;		On entry : 0/0
  6679                           ;		On exit  : 0/0
  6680                           ;		Unchanged: 0/0
  6681                           ; Data sizes:     COMMON   BANK0   BANK1   BANK3   BANK2
  6682                           ;      Locals:         3       5       0       0       0
  6683                           ;      Temp:     3
  6684                           ;      Total:    8
  6685                           ; This function calls:
  6686                           ;		Nothing
  6687                           ; This function is called by:
  6688                           ;		___ftadd
  6689                           ;		___ftdiv
  6690                           ;		___ftmul
  6691                           ;		___awtoft
  6692                           ; This function uses a non-reentrant model
  6693                           ; 
  6694                           psect	text164
  6695                           	file	"C:\Program Files (x86)\HI-TECH Software\PICC\9.70\sources\float.c"
  6696                           	line	63
  6697                           	global	__size_of___ftpack
  6698  007C                     	__size_of___ftpack	equ	__end_of___ftpack-___ftpack
  6699                           	
  6700  0B84                     ___ftpack:	
  6701                           	opt stack 4
  6702                           ; Regs used in ___ftpack: [wreg+status,2+status,0]
  6703                           	line	64
  6704                           	
  6705  0B84                     l30001722:	
  6706  0B84  1283               	bcf	status, 5	;RP0=0, select bank0
  6707  0B85  1303               	bcf	status, 6	;RP1=0, select bank0
  6708  0B86  0823               	movf	(___ftpack@exp),w
  6709  0B87  1D03               	skipz
  6710  0B88  2B8A               	goto	u3390
  6711  0B89  2B91               	goto	l30001724
  6712  0B8A                     u3390:
  6713                           	
  6714  0B8A                     l30001723:	
  6715  0B8A  0822               	movf	(___ftpack@arg+2),w
  6716  0B8B  0421               	iorwf	(___ftpack@arg+1),w
  6717  0B8C  0420               	iorwf	(___ftpack@arg),w
  6718  0B8D  1D03               	skipz
  6719  0B8E  2B90               	goto	u3401
  6720  0B8F  2B91               	goto	u3400
  6721  0B90                     u3401:
  6722  0B90  2BA4               	goto	l30001727
  6723  0B91                     u3400:
  6724                           	
  6725  0B91                     l30001724:	
  6726                           	line	65
  6727  0B91  3000               	movlw	0x0
  6728  0B92  00A0               	movwf	(?___ftpack)
  6729  0B93  3000               	movlw	0x0
  6730  0B94  00A1               	movwf	(?___ftpack+1)
  6731  0B95  3000               	movlw	0x0
  6732  0B96  00A2               	movwf	(?___ftpack+2)
  6733  0B97  2BFF               	goto	l412
  6734                           	
  6735  0B98                     l30001726:	
  6736                           	line	67
  6737  0B98  3001               	movlw	(01h)
  6738  0B99  00F6               	movwf	(??___ftpack+0+0)
  6739  0B9A  0876               	movf	(??___ftpack+0+0),w
  6740  0B9B  07A3               	addwf	(___ftpack@exp),f
  6741                           	line	68
  6742  0B9C  3001               	movlw	01h
  6743  0B9D                     u3415:
  6744  0B9D  1003               	clrc
  6745  0B9E  0CA2               	rrf	(___ftpack@arg+2),f
  6746  0B9F  0CA1               	rrf	(___ftpack@arg+1),f
  6747  0BA0  0CA0               	rrf	(___ftpack@arg),f
  6748  0BA1  3EFF               	addlw	-1
  6749  0BA2  1D03               	skipz
  6750  0BA3  2B9D               	goto	u3415
  6751                           
  6752                           	
  6753  0BA4                     l30001727:	
  6754                           	line	66
  6755  0BA4  30FE               	movlw	low highword(0FE0000h)
  6756  0BA5  0522               	andwf	(___ftpack@arg+2),w
  6757  0BA6  1D03               	btfss	status,2
  6758  0BA7  2BA9               	goto	u3421
  6759  0BA8  2BAA               	goto	u3420
  6760  0BA9                     u3421:
  6761  0BA9  2B98               	goto	l30001726
  6762  0BAA                     u3420:
  6763  0BAA  2BC7               	goto	l417
  6764                           	
  6765  0BAB                     l30001728:	
  6766                           	line	71
  6767  0BAB  3001               	movlw	(01h)
  6768  0BAC  00F6               	movwf	(??___ftpack+0+0)
  6769  0BAD  0876               	movf	(??___ftpack+0+0),w
  6770  0BAE  07A3               	addwf	(___ftpack@exp),f
  6771                           	
  6772  0BAF                     l30001729:	
  6773                           	line	72
  6774  0BAF  3001               	movlw	01h
  6775  0BB0  07A0               	addwf	(___ftpack@arg),f
  6776  0BB1  3000               	movlw	0
  6777  0BB2  1103               	clrz
  6778  0BB3  1803               	skipnc
  6779  0BB4  3E01               	addlw	1
  6780  0BB5  1903               	skipnz
  6781  0BB6  2BB8               	goto	u3431
  6782  0BB7  07A1               	addwf	(___ftpack@arg+1),f
  6783  0BB8                     u3431:
  6784  0BB8  3000               	movlw	0
  6785  0BB9  1103               	clrz
  6786  0BBA  1803               	skipnc
  6787  0BBB  3E01               	addlw	1
  6788  0BBC  1903               	skipnz
  6789  0BBD  2BBF               	goto	u3432
  6790  0BBE  07A2               	addwf	(___ftpack@arg+2),f
  6791  0BBF                     u3432:
  6792                           
  6793                           	
  6794  0BBF                     l30001730:	
  6795                           	line	73
  6796  0BBF  3001               	movlw	01h
  6797  0BC0                     u3445:
  6798  0BC0  1003               	clrc
  6799  0BC1  0CA2               	rrf	(___ftpack@arg+2),f
  6800  0BC2  0CA1               	rrf	(___ftpack@arg+1),f
  6801  0BC3  0CA0               	rrf	(___ftpack@arg),f
  6802  0BC4  3EFF               	addlw	-1
  6803  0BC5  1D03               	skipz
  6804  0BC6  2BC0               	goto	u3445
  6805                           
  6806                           	
  6807  0BC7                     l417:	
  6808                           	line	70
  6809  0BC7  30FF               	movlw	low highword(0FF0000h)
  6810  0BC8  0522               	andwf	(___ftpack@arg+2),w
  6811  0BC9  1D03               	btfss	status,2
  6812  0BCA  2BCC               	goto	u3451
  6813  0BCB  2BCD               	goto	u3450
  6814  0BCC                     u3451:
  6815  0BCC  2BAB               	goto	l30001728
  6816  0BCD                     u3450:
  6817  0BCD  2BD8               	goto	l30001732
  6818                           	
  6819  0BCE                     l30001731:	
  6820                           	line	76
  6821  0BCE  3001               	movlw	low(01h)
  6822  0BCF  02A3               	subwf	(___ftpack@exp),f
  6823                           	line	77
  6824  0BD0  3001               	movlw	01h
  6825  0BD1                     u3465:
  6826  0BD1  1003               	clrc
  6827  0BD2  0DA0               	rlf	(___ftpack@arg),f
  6828  0BD3  0DA1               	rlf	(___ftpack@arg+1),f
  6829  0BD4  0DA2               	rlf	(___ftpack@arg+2),f
  6830  0BD5  3EFF               	addlw	-1
  6831  0BD6  1D03               	skipz
  6832  0BD7  2BD1               	goto	u3465
  6833                           	
  6834  0BD8                     l30001732:	
  6835                           	line	75
  6836  0BD8  1FA1               	btfss	(___ftpack@arg+1),(15)&7
  6837  0BD9  2BDB               	goto	u3471
  6838  0BDA  2BDC               	goto	u3470
  6839  0BDB                     u3471:
  6840  0BDB  2BCE               	goto	l30001731
  6841  0BDC                     u3470:
  6842                           	
  6843  0BDC                     l422:	
  6844                           	line	79
  6845  0BDC  1823               	btfsc	(___ftpack@exp),(0)&7
  6846  0BDD  2BDF               	goto	u3481
  6847  0BDE  2BE0               	goto	u3480
  6848  0BDF                     u3481:
  6849  0BDF  2BE6               	goto	l423
  6850  0BE0                     u3480:
  6851                           	
  6852  0BE0                     l30001733:	
  6853                           	line	80
  6854  0BE0  30FF               	movlw	0FFh
  6855  0BE1  05A0               	andwf	(___ftpack@arg),f
  6856  0BE2  307F               	movlw	07Fh
  6857  0BE3  05A1               	andwf	(___ftpack@arg+1),f
  6858  0BE4  30FF               	movlw	0FFh
  6859  0BE5  05A2               	andwf	(___ftpack@arg+2),f
  6860                           	
  6861  0BE6                     l423:	
  6862                           	line	81
  6863  0BE6  1003               	clrc
  6864  0BE7  0CA3               	rrf	(___ftpack@exp),f
  6865                           
  6866                           	
  6867  0BE8                     l30001734:	
  6868                           	line	82
  6869  0BE8  0823               	movf	(___ftpack@exp),w
  6870  0BE9  00F6               	movwf	(??___ftpack+0+0)
  6871  0BEA  01F7               	clrf	(??___ftpack+0+0+1)
  6872  0BEB  01F8               	clrf	(??___ftpack+0+0+2)
  6873  0BEC  3010               	movlw	010h
  6874  0BED                     u3495:
  6875  0BED  1003               	clrc
  6876  0BEE  0DF6               	rlf	(??___ftpack+0+0),f
  6877  0BEF  0DF7               	rlf	(??___ftpack+0+1),f
  6878  0BF0  0DF8               	rlf	(??___ftpack+0+2),f
  6879  0BF1                     u3490:
  6880  0BF1  3EFF               	addlw	-1
  6881  0BF2  1D03               	skipz
  6882  0BF3  2BED               	goto	u3495
  6883  0BF4  0876               	movf	0+(??___ftpack+0+0),w
  6884  0BF5  04A0               	iorwf	(___ftpack@arg),f
  6885  0BF6  0877               	movf	1+(??___ftpack+0+0),w
  6886  0BF7  04A1               	iorwf	(___ftpack@arg+1),f
  6887  0BF8  0878               	movf	2+(??___ftpack+0+0),w
  6888  0BF9  04A2               	iorwf	(___ftpack@arg+2),f
  6889                           	
  6890  0BFA                     l30001735:	
  6891                           	line	83
  6892  0BFA  0824               	movf	(___ftpack@sign),w
  6893  0BFB  1D03               	skipz
  6894  0BFC  2BFE               	goto	u3500
  6895  0BFD  2BFF               	goto	l424
  6896  0BFE                     u3500:
  6897                           	
  6898  0BFE                     l30001736:	
  6899                           	line	84
  6900  0BFE  17A2               	bsf	(___ftpack@arg)+(23/8),(23)&7
  6901                           	
  6902  0BFF                     l424:	
  6903                           	line	85
  6904                           	
  6905  0BFF                     l412:	
  6906  0BFF  0008               	return
  6907                           	opt stack 0
  6908                           GLOBAL	__end_of___ftpack
  6909  0C00                     	__end_of___ftpack:
  6910                           ; =============== function ___ftpack ends ============
  6911                           
  6912                           psect	text165,local,class=CODE,delta=2
  6913                           global __ptext165
  6914  0A47                     __ptext165:
  6915                           	line	86
  6916                           	signat	___ftpack,12411
  6917                           	global	___awmod
  6918                           
  6919                           ; *************** function ___awmod *****************
  6920                           ; Defined at:
  6921                           ;		line 5 in file "C:\Program Files (x86)\HI-TECH Software\PICC\9.70\sources\awmod.c"
  6922                           ; Parameters:    Size  Location     Type
  6923                           ;  dividend        2    2[BANK0 ] int 
  6924                           ;  divisor         2    4[BANK0 ] int 
  6925                           ; Auto vars:     Size  Location     Type
  6926                           ;  sign            1    0[BANK0 ] unsigned char 
  6927                           ;  counter         1    1[BANK0 ] unsigned char 
  6928                           ; Return value:  Size  Location     Type
  6929                           ;                  2    2[BANK0 ] int 
  6930                           ; Registers used:
  6931                           ;		wreg, status,2, status,0
  6932                           ; Tracked objects:
  6933                           ;		On entry : 0/0
  6934                           ;		On exit  : 0/0
  6935                           ;		Unchanged: 0/0
  6936                           ; Data sizes:     COMMON   BANK0   BANK1   BANK3   BANK2
  6937                           ;      Locals:         1       6       0       0       0
  6938                           ;      Temp:     1
  6939                           ;      Total:    7
  6940                           ; This function calls:
  6941                           ;		Nothing
  6942                           ; This function is called by:
  6943                           ;		_count
  6944                           ;		_temperature
  6945                           ; This function uses a non-reentrant model
  6946                           ; 
  6947                           psect	text165
  6948                           	file	"C:\Program Files (x86)\HI-TECH Software\PICC\9.70\sources\awmod.c"
  6949                           	line	5
  6950                           	global	__size_of___awmod
  6951  0062                     	__size_of___awmod	equ	__end_of___awmod-___awmod
  6952                           	
  6953  0A47                     ___awmod:	
  6954                           	opt stack 4
  6955                           ; Regs used in ___awmod: [wreg+status,2+status,0]
  6956                           	line	8
  6957                           	
  6958  0A47                     l30001783:	
  6959  0A47  1003               	clrc
  6960  0A48  3000               	movlw	0
  6961  0A49  1803               	btfsc	status,0
  6962  0A4A  3001               	movlw	1
  6963  0A4B  1283               	bcf	status, 5	;RP0=0, select bank0
  6964  0A4C  1303               	bcf	status, 6	;RP1=0, select bank0
  6965  0A4D  00A0               	movwf	(___awmod@sign)
  6966                           	
  6967  0A4E                     l30001784:	
  6968                           	line	9
  6969  0A4E  1FA3               	btfss	(___awmod@dividend+1),7
  6970  0A4F  2A51               	goto	u3731
  6971  0A50  2A52               	goto	u3730
  6972  0A51                     u3731:
  6973  0A51  2A5A               	goto	l30001786
  6974  0A52                     u3730:
  6975                           	
  6976  0A52                     l30001785:	
  6977                           	line	10
  6978  0A52  09A2               	comf	(___awmod@dividend),f
  6979  0A53  09A3               	comf	(___awmod@dividend+1),f
  6980  0A54  0AA2               	incf	(___awmod@dividend),f
  6981  0A55  1903               	skipnz
  6982  0A56  0AA3               	incf	(___awmod@dividend+1),f
  6983                           	line	11
  6984  0A57  01A0               	clrf	(___awmod@sign)
  6985  0A58  1403               	bsf	status,0
  6986  0A59  0DA0               	rlf	(___awmod@sign),f
  6987                           	
  6988  0A5A                     l30001786:	
  6989                           	line	13
  6990  0A5A  1FA5               	btfss	(___awmod@divisor+1),7
  6991  0A5B  2A5D               	goto	u3741
  6992  0A5C  2A5E               	goto	u3740
  6993  0A5D                     u3741:
  6994  0A5D  2A63               	goto	l30001788
  6995  0A5E                     u3740:
  6996                           	
  6997  0A5E                     l30001787:	
  6998                           	line	14
  6999  0A5E  09A4               	comf	(___awmod@divisor),f
  7000  0A5F  09A5               	comf	(___awmod@divisor+1),f
  7001  0A60  0AA4               	incf	(___awmod@divisor),f
  7002  0A61  1903               	skipnz
  7003  0A62  0AA5               	incf	(___awmod@divisor+1),f
  7004                           	
  7005  0A63                     l30001788:	
  7006                           	line	15
  7007  0A63  0825               	movf	(___awmod@divisor+1),w
  7008  0A64  0424               	iorwf	(___awmod@divisor),w
  7009  0A65  1903               	skipnz
  7010  0A66  2A68               	goto	u3751
  7011  0A67  2A69               	goto	u3750
  7012  0A68                     u3751:
  7013  0A68  2A99               	goto	l30001797
  7014  0A69                     u3750:
  7015                           	
  7016  0A69                     l30001789:	
  7017                           	line	16
  7018  0A69  01A1               	clrf	(___awmod@counter)
  7019  0A6A  1403               	bsf	status,0
  7020  0A6B  0DA1               	rlf	(___awmod@counter),f
  7021  0A6C  2A78               	goto	l30001792
  7022                           	
  7023  0A6D                     l30001790:	
  7024                           	line	18
  7025  0A6D  3001               	movlw	01h
  7026  0A6E                     u3765:
  7027  0A6E  1003               	clrc
  7028  0A6F  0DA4               	rlf	(___awmod@divisor),f
  7029  0A70  0DA5               	rlf	(___awmod@divisor+1),f
  7030  0A71  3EFF               	addlw	-1
  7031  0A72  1D03               	skipz
  7032  0A73  2A6E               	goto	u3765
  7033                           	
  7034  0A74                     l30001791:	
  7035                           	line	19
  7036  0A74  3001               	movlw	(01h)
  7037  0A75  00F6               	movwf	(??___awmod+0+0)
  7038  0A76  0876               	movf	(??___awmod+0+0),w
  7039  0A77  07A1               	addwf	(___awmod@counter),f
  7040                           	
  7041  0A78                     l30001792:	
  7042                           	line	17
  7043  0A78  1FA5               	btfss	(___awmod@divisor+1),(15)&7
  7044  0A79  2A7B               	goto	u3771
  7045  0A7A  2A7C               	goto	u3770
  7046  0A7B                     u3771:
  7047  0A7B  2A6D               	goto	l30001790
  7048  0A7C                     u3770:
  7049                           	
  7050  0A7C                     l30001793:	
  7051                           	line	22
  7052  0A7C  0825               	movf	(___awmod@divisor+1),w
  7053  0A7D  0223               	subwf	(___awmod@dividend+1),w
  7054  0A7E  1D03               	skipz
  7055  0A7F  2A82               	goto	u3785
  7056  0A80  0824               	movf	(___awmod@divisor),w
  7057  0A81  0222               	subwf	(___awmod@dividend),w
  7058  0A82                     u3785:
  7059  0A82  1C03               	skipc
  7060  0A83  2A85               	goto	u3781
  7061  0A84  2A86               	goto	u3780
  7062  0A85                     u3781:
  7063  0A85  2A8C               	goto	l30001795
  7064  0A86                     u3780:
  7065                           	
  7066  0A86                     l30001794:	
  7067                           	line	23
  7068  0A86  0824               	movf	(___awmod@divisor),w
  7069  0A87  02A2               	subwf	(___awmod@dividend),f
  7070  0A88  0825               	movf	(___awmod@divisor+1),w
  7071  0A89  1C03               	skipc
  7072  0A8A  03A3               	decf	(___awmod@dividend+1),f
  7073  0A8B  02A3               	subwf	(___awmod@dividend+1),f
  7074                           	
  7075  0A8C                     l30001795:	
  7076                           	line	24
  7077  0A8C  3001               	movlw	01h
  7078  0A8D                     u3795:
  7079  0A8D  1003               	clrc
  7080  0A8E  0CA5               	rrf	(___awmod@divisor+1),f
  7081  0A8F  0CA4               	rrf	(___awmod@divisor),f
  7082  0A90  3EFF               	addlw	-1
  7083  0A91  1D03               	skipz
  7084  0A92  2A8D               	goto	u3795
  7085                           	
  7086  0A93                     l30001796:	
  7087                           	line	25
  7088  0A93  3001               	movlw	low(01h)
  7089  0A94  02A1               	subwf	(___awmod@counter),f
  7090  0A95  1D03               	btfss	status,2
  7091  0A96  2A98               	goto	u3801
  7092  0A97  2A99               	goto	u3800
  7093  0A98                     u3801:
  7094  0A98  2A7C               	goto	l30001793
  7095  0A99                     u3800:
  7096                           	
  7097  0A99                     l30001797:	
  7098                           	line	27
  7099  0A99  0820               	movf	(___awmod@sign),w
  7100  0A9A  1D03               	skipz
  7101  0A9B  2A9D               	goto	u3810
  7102  0A9C  2AA2               	goto	l30001799
  7103  0A9D                     u3810:
  7104                           	
  7105  0A9D                     l30001798:	
  7106                           	line	28
  7107  0A9D  09A2               	comf	(___awmod@dividend),f
  7108  0A9E  09A3               	comf	(___awmod@dividend+1),f
  7109  0A9F  0AA2               	incf	(___awmod@dividend),f
  7110  0AA0  1903               	skipnz
  7111  0AA1  0AA3               	incf	(___awmod@dividend+1),f
  7112                           	
  7113  0AA2                     l30001799:	
  7114                           	line	29
  7115  0AA2  0823               	movf	(___awmod@dividend+1),w
  7116  0AA3  01A3               	clrf	(?___awmod+1)
  7117  0AA4  07A3               	addwf	(?___awmod+1)
  7118  0AA5  0822               	movf	(___awmod@dividend),w
  7119  0AA6  01A2               	clrf	(?___awmod)
  7120  0AA7  07A2               	addwf	(?___awmod)
  7121                           
  7122                           	
  7123  0AA8                     l307:	
  7124  0AA8  0008               	return
  7125                           	opt stack 0
  7126                           GLOBAL	__end_of___awmod
  7127  0AA9                     	__end_of___awmod:
  7128                           ; =============== function ___awmod ends ============
  7129                           
  7130                           psect	text166,local,class=CODE,delta=2
  7131                           global __ptext166
  7132  0CFF                     __ptext166:
  7133                           	line	30
  7134                           	signat	___awmod,8314
  7135                           	global	_pulse
  7136                           
  7137                           ; *************** function _pulse *****************
  7138                           ; Defined at:
  7139                           ;		line 37 in file "C:\Users\gowth\Documents\PIC Programs\LIFT\LIFT.c"
  7140                           ; Parameters:    Size  Location     Type
  7141                           ;		None
  7142                           ; Auto vars:     Size  Location     Type
  7143                           ;		None
  7144                           ; Return value:  Size  Location     Type
  7145                           ;		None               void
  7146                           ; Registers used:
  7147                           ;		wreg, status,2, status,0, pclath, cstack
  7148                           ; Tracked objects:
  7149                           ;		On entry : 0/0
  7150                           ;		On exit  : 0/0
  7151                           ;		Unchanged: 0/0
  7152                           ; Data sizes:     COMMON   BANK0   BANK1   BANK3   BANK2
  7153                           ;      Locals:         0       0       0       0       0
  7154                           ;      Temp:     0
  7155                           ;      Total:    0
  7156                           ; This function calls:
  7157                           ;		_delay
  7158                           ; This function is called by:
  7159                           ;		_command
  7160                           ;		_data
  7161                           ; This function uses a non-reentrant model
  7162                           ; 
  7163                           psect	text166
  7164                           	file	"C:\Users\gowth\Documents\PIC Programs\LIFT\LIFT.c"
  7165                           	line	37
  7166                           	global	__size_of_pulse
  7167  0019                     	__size_of_pulse	equ	__end_of_pulse-_pulse
  7168                           ;LIFT.c: 36: void pulse()
  7169                           ;LIFT.c: 37: {
  7170                           	
  7171  0CFF                     _pulse:	
  7172                           	opt stack 3
  7173                           ; Regs used in _pulse: [wreg+status,2+status,0+pclath+cstack]
  7174                           	line	38
  7175                           	
  7176  0CFF                     l30001632:	
  7177                           ;LIFT.c: 38: RE1=1;
  7178  0CFF  1283               	bcf	status, 5	;RP0=0, select bank0
  7179  0D00  1303               	bcf	status, 6	;RP1=0, select bank0
  7180  0D01  1489               	bsf	(73/8),(73)&7
  7181                           	
  7182  0D02                     l30001633:	
  7183                           	line	39
  7184                           ;LIFT.c: 39: delay(1000);
  7185  0D02  30E8               	movlw	low(03E8h)
  7186  0D03  00A0               	movwf	(?_delay)
  7187  0D04  3003               	movlw	high(03E8h)
  7188  0D05  00A1               	movwf	((?_delay))+1
  7189  0D06  120A  158A  252C   	fcall	_delay
              120A  158A         
  7190                           	
  7191  0D0B                     l30001634:	
  7192                           	line	40
  7193                           ;LIFT.c: 40: RE1=0;
  7194  0D0B  1283               	bcf	status, 5	;RP0=0, select bank0
  7195  0D0C  1303               	bcf	status, 6	;RP1=0, select bank0
  7196  0D0D  1089               	bcf	(73/8),(73)&7
  7197                           	line	41
  7198                           ;LIFT.c: 41: delay(1000);
  7199  0D0E  30E8               	movlw	low(03E8h)
  7200  0D0F  00A0               	movwf	(?_delay)
  7201  0D10  3003               	movlw	high(03E8h)
  7202  0D11  00A1               	movwf	((?_delay))+1
  7203  0D12  120A  158A  252C   	fcall	_delay
              120A  158A         
  7204                           	
  7205  0D17                     l5:	
  7206  0D17  0008               	return
  7207                           	opt stack 0
  7208                           GLOBAL	__end_of_pulse
  7209  0D18                     	__end_of_pulse:
  7210                           ; =============== function _pulse ends ============
  7211                           
  7212                           psect	text167,local,class=CODE,delta=2
  7213                           global __ptext167
  7214  0D2C                     __ptext167:
  7215                           	line	42
  7216                           	signat	_pulse,88
  7217                           	global	_delay
  7218                           
  7219                           ; *************** function _delay *****************
  7220                           ; Defined at:
  7221                           ;		line 32 in file "C:\Users\gowth\Documents\PIC Programs\LIFT\LIFT.c"
  7222                           ; Parameters:    Size  Location     Type
  7223                           ;  x               2    0[BANK0 ] int 
  7224                           ; Auto vars:     Size  Location     Type
  7225                           ;		None
  7226                           ; Return value:  Size  Location     Type
  7227                           ;		None               void
  7228                           ; Registers used:
  7229                           ;		wreg
  7230                           ; Tracked objects:
  7231                           ;		On entry : 0/0
  7232                           ;		On exit  : 0/0
  7233                           ;		Unchanged: 0/0
  7234                           ; Data sizes:     COMMON   BANK0   BANK1   BANK3   BANK2
  7235                           ;      Locals:         0       2       0       0       0
  7236                           ;      Temp:     0
  7237                           ;      Total:    2
  7238                           ; This function calls:
  7239                           ;		Nothing
  7240                           ; This function is called by:
  7241                           ;		_pulse
  7242                           ; This function uses a non-reentrant model
  7243                           ; 
  7244                           psect	text167
  7245                           	file	"C:\Users\gowth\Documents\PIC Programs\LIFT\LIFT.c"
  7246                           	line	32
  7247                           	global	__size_of_delay
  7248  0013                     	__size_of_delay	equ	__end_of_delay-_delay
  7249                           ;pic16f887.h: 19: volatile unsigned char INDF @ 0x000;
  7250                           ;pic16f887.h: 20: volatile unsigned char TMR0 @ 0x001;
  7251                           ;pic16f887.h: 21: volatile unsigned char PCL @ 0x002;
  7252                           ;pic16f887.h: 22: volatile unsigned char STATUS @ 0x003;
  7253                           ;pic16f887.h: 23: unsigned char FSR @ 0x004;
  7254                           ;pic16f887.h: 24: volatile unsigned char PORTA @ 0x005;
  7255                           ;pic16f887.h: 25: volatile unsigned char PORTB @ 0x006;
  7256                           ;pic16f887.h: 26: volatile unsigned char PORTC @ 0x007;
  7257                           ;pic16f887.h: 28: volatile unsigned char PORTD @ 0x008;
  7258                           ;pic16f887.h: 30: volatile unsigned char PORTE @ 0x009;
  7259                           	
  7260  0D2C                     _delay:	
  7261                           	opt stack 2
  7262                           ; Regs used in _delay: [wreg]
  7263                           	
  7264  0D2C                     l30001630:	
  7265                           	
  7266  0D2C                     l30001631:	
  7267                           	line	33
  7268  0D2C  30FF               	movlw	low(-1)
  7269  0D2D  1283               	bcf	status, 5	;RP0=0, select bank0
  7270  0D2E  1303               	bcf	status, 6	;RP1=0, select bank0
  7271  0D2F  07A0               	addwf	(delay@x),f
  7272  0D30  1803               	skipnc
  7273  0D31  0AA1               	incf	(delay@x+1),f
  7274  0D32  30FF               	movlw	high(-1)
  7275  0D33  07A1               	addwf	(delay@x+1),f
  7276  0D34  30FF               	movlw	high(-1)
  7277  0D35  0621               	xorwf	((delay@x+1))&07fh,w
  7278  0D36  1D03               	skipz
  7279  0D37  2D3A               	goto	u3085
  7280  0D38  30FF               	movlw	low(-1)
  7281  0D39  0620               	xorwf	((delay@x))&07fh,w
  7282  0D3A                     u3085:
  7283                           
  7284  0D3A  1D03               	skipz
  7285  0D3B  2D3D               	goto	u3081
  7286  0D3C  2D3E               	goto	u3080
  7287  0D3D                     u3081:
  7288  0D3D  2D2C               	goto	l30001631
  7289  0D3E                     u3080:
  7290                           	
  7291  0D3E                     l1:	
  7292  0D3E  0008               	return
  7293                           	opt stack 0
  7294                           GLOBAL	__end_of_delay
  7295  0D3F                     	__end_of_delay:
  7296                           ; =============== function _delay ends ============
  7297                           
  7298                           psect	text168,local,class=CODE,delta=2
  7299                           global __ptext168
  7300  0003                     __ptext168:
  7301                           	line	34
  7302                           	signat	_delay,4216
  7303                           	global	btemp
  7304  007E                     	btemp set 07Eh


HI-TECH Software PICC Macro Assembler V9.70 build 5239 
Symbol Table                                                                                   Wed Apr 19 15:48:45 2023

     ___awdiv@dividend 002A                      l1 0D3E                      l5 0D17                      l6 0A46  
                    l7 0A3A                      l8 0023                      pc 0002         __size_of_delay 0013  
                   l12 0E83                     l20 0E49                     _DA 04A5                     _BF 04A0  
                   _DC 0019                     l24 0B11                     l25 0FFF                     l26 0F47  
                   l36 07FF                     l54 03EF                     _DV 0070                     _PD 001B  
       __size_of_count 0069                     _RD 0C60                     _UA 04A1                     _TO 001C  
                   _RW 04A2                     _WR 0C61                     _k1 004E                     _k2 0050  
                   fsr 0004         __size_of_pulse 0019            __pbssCOMMON 0070                    l120 027A  
                  _C1R 083A                    _C2R 0842                    l123 0182                    l132 01F8  
                  l124 0187                    l209 0DCE                    l225 0052                    l307 0AA8  
                  l227 0B83                    l412 0BFF                    l156 012E                    l229 0B32  
                  l149 0F3E                    l422 0BDC                    l423 0BE6                    l424 0BFF  
                  l248 0A2E                    l417 0BC7                    _CKE 04A6               ___awtoft 0024  
                  _CKP 00A4                    _GIE 005F                    _BOR 0470                    _RA0 0028  
             ___ftpack 0B84                    _RA1 0029                    _RB0 0030                    _RA2 002A  
                  _RB1 0031                    _RA3 002B                    _RC0 0038                    _RB2 0032  
                  _RA4 002C                    _RC1 0039                    _RB3 0033                    _RA5 002D  
                  _RD0 0040                    _RC2 003A                    _RB4 0034                    _RA6 002E  
                  _RD1 0041                    _RC3 003B                    _RB5 0035                    _RA7 002F  
                  _RE0 0048                    _RD2 0042                    _RC4 003C                    _RB6 0036  
                  _RE1 0049                    _RD3 0043                    _RC5 003D                    _RB7 0037  
                  _RE2 004A                    _RD4 0044                    _RC6 003E                    _RE3 004B  
                  _RD5 0045                    _RC7 003F                    _RD6 0046                    _RD7 0047  
                  _FSR 0004                    _PCL 0002                    _PS0 0408                    _PR2 0092  
                  _PS1 0409                    _PS2 040A                    _PEN 048A                    _RP0 001D  
                  _IRP 001F                    _RP1 001E                    _HTS 047A                    _SR0 0C2E  
                  _SR1 0C2F                    _SEN 0488                    _SCS 0478                    _PSA 040B  
                  _LTS 0479                    _VR0 04B8                    _VR1 04B9                    _VR2 04BA  
                  _VR3 04BB                    _POR 0471                    _RX9 00C6                    _SMP 04A7  
                  _TX9 04C6                    _WUE 0C39                    _VRR 04BD          temperature@a1 00A2  
        temperature@b1 00BB          temperature@c1 00A0          temperature@d1 00BF          temperature@e1 00AA  
        temperature@f1 00B7          temperature@g1 00A8          temperature@h1 00A6          temperature@w1 00C3  
                  _adc 0F3F              ?___awtoft 0026              ?___ftpack 0020                    _low 0074  
                  _tmr 027B                    indf 0000       __size_of___awdiv 0072       __size_of___ftadd 014C  
     __size_of___awmod 0062       __size_of___ftdiv 00BB       __size_of___ftneg 000A       __size_of___ftmul 00DC  
     __size_of___fttol 0087        __size_of_string 0021             ??___awtoft 0079             ??___ftpack 0076  
              ??_delay 0076                ??_count 0078                   ?_adc 0078                   _C1IE 046D  
                 _C1IF 006D                   _C2IE 046E                   _C2IF 006E                   _C1OE 083D  
                 _C2OE 0845                   _C1ON 083F                   _C2ON 0847                   _ADIE 0466  
                 _ADIF 0066                   _ADFM 04FF       __size_of_command 000C                   _ADON 00F8  
                 _P1M0 00BE                   _CHS0 00FA                   _P1M1 00BF                   _CHS1 00FB  
                 _CHS2 00FC                   _CHS3 00FD                   _EEIE 046C                   ?_tmr 0078  
                 _EEIF 006C                   _ANS0 0C40                   _BRG0 04C8                   STR_1 0C50  
                 _ANS1 0C41                   _BRG1 04C9                   STR_2 0C29                   _ANS2 0C42  
                 _BRG2 04CA                   STR_3 0C36                   _ANS3 0C43                   _BRG3 04CB  
                 STR_4 0C0F                   _ANS4 0C44                   _BRG4 04CC                   STR_5 0C43  
                 _ANS5 0C45                   _BRG5 04CD                   STR_6 0C76                   _ANS6 0C46  
                 _GCEN 048F                   _BRG6 04CE                   STR_7 0C1C                   _ANS7 0C47  
                 _BRG7 04CF                   STR_8 0C6A                   _ANS8 0C48                   _BRG8 04D0  
                 STR_9 0C5D                   _ANS9 0C49                   _BRG9 04D1                   _BRGH 04C2  
                 _T0IE 005D                   _T0IF 005A                   _CREN 00C4                   _T0CS 040D  
                 _FERR 00C2                   _PDC0 04D8                   _PDC1 04D9                   u3000 0F4C  
                 _PDC2 04DA                   u3001 0F4B                   _PDC3 04DB                   u3010 0F64  
                 _PDC4 04DC                   u3011 0F63                   _T0SE 040C                   _PDC5 04DD  
                 _CSRC 04C7                   u2300 0B3C                   u3020 0F7E                   u3100 0DEB  
                 _PDC6 04DE                   _IOCB 0096                   u2301 0B3B                   u3021 0F7D  
                 u3101 0DEA                   u3030 0F9A                   u3110 0E01                   _INDF 0000  
                 u3031 0F99                   u3111 0E00                   u2320 0B4F                   u3200 0281  
                 u3040 0FB6                   u3120 0E17                   u2321 0B4E                   u3201 0280  
                 u3041 0FB5                   u3121 0E16                   u1610 0D59                   u3210 0290  
                 u3050 0FD8                   u3130 0E2D                ??_pulse 0076                   u2315 0B41  
                 u1611 0D58                   u3211 028F                   u3051 0FD7                   u3131 0E2C  
                 u2340 0B60                   u1700 0DBB                   u1620 0D6D                   u3300 035E  
                 u3220 02A6                   u3060 0FEA                   u3140 0E35                   u2341 0B5F  
                 u3301 035D                   u3221 02A5                   u3061 0FE9                   u3141 0E34  
                 u1630 0D86                   u3310 036F                   u3230 02B7                   u3070 0FFC  
                 u3150 0E3D                   u2335 0B50                   u1631 0D85                   u3311 036E  
                 u3231 02B6                   u3071 0FFB                   u3055 0FD4                   u3151 0E3C  
                 u3080 0D3E                   u3400 0B91                   u2360 0B74                   u2280 0B1D  
                 u1640 0D8D                   u3320 038C                   u3240 02D4                   u3160 0E45  
                 u3081 0D3D                   u3401 0B90                   u2361 0B73                   u2345 0B5C  
                 u2281 0B1C                   u1641 0D8C                   u1625 0D69                   u3321 038B  
                 u3305 035A                   u3241 02D3                   u3225 02A2                   u3065 0FE6  
                 u3161 0E44                   u2370 0B78                   u2290 0B29                   u3330 039D  
                 u3250 02E5                   u3170 0E57                   u3090 0DD5                   u2355 0B68  
                 u2291 0B28                   u3331 039C                   u3315 036B                   u3251 02E4  
                 u3235 02B3                   u3075 0FF8                   u3171 0E56                   u3091 0DD4  
                 u3500 0BFE                   u3420 0BAA                   u1660 0D9F                   u2700 014F  
                 u3340 03BA                   u3260 0302                   u3180 0E6D                   u3085 0D3A  
                 u3421 0BA9                   u1661 0D9E                   u2701 014E                   u3341 03B9  
                 u3325 0388                   u3261 0301                   u3245 02D0                   u3181 0E6C  
                 u1670 0DA6                   u3510 0E95                   u2710 0159                   u3350 03CB  
                 u3270 0313                   u3190 0E7F                   u3431 0BB8                   u3415 0B9D  
                 u1671 0DA5                   u1655 0D8F                   u3511 0E94                   u2711 0158  
                 u3351 03CA                   u3335 0399                   u3271 0312                   u3255 02E1  
                 u3191 0E7E                   u3175 0E53                   _PIE1 008C                   u3432 0BBF  
                 u3520 0EAB                   u2800 01B3                   u2720 0164                   u3600 007A  
                 u3360 03E8                   u3280 0330                   _PIE2 008D                   u3521 0EAA  
                 u2801 01B2                   u3601 0079                   u3361 03E7                   u3345 03B6  
                 u3281 032F                   u3265 02FE                   u3185 0E69                   u3450 0BCD  
                 u1690 0DB7                   u3370 0023                   u3530 0EC8                   u2730 016A  
                 u3610 0091                   u3290 0341                   u3451 0BCC                   u1691 0DB6  
                 u3371 0022                   u2731 0169                   u3355 03C7                   u3291 0340  
                 u3275 030F                   u3195 0E7B                   u2660 0A2C                   u3540 0ED8  
                 u3380 002F                   u2820 01C6                   u2740 0174                   u3620 00A1  
                 u3445 0BC0                   u1685 0DA9                   u2661 0A2B                   u3381 002E  
                 u2901 020B                   u2821 01C5                   u2741 0173                   u3365 03E4  
                 u3285 032C                   u3470 0BDC                   u3390 0B8A                   u2910 0216  
                 u2902 0212                   u2830 01CD                   u2750 0181                   u3630 00C0  
                 u3471 0BDB                   u3535 0EC4                   u2911 0215                   u2831 01CC  
                 u2815 01B5                   u2751 0180                   u3631 00BF                   u3615 008D  
                 u3295 033D                   u3800 0A99                   u3480 0BE0                   u3560 0F09  
                 u2760 0186                   u3720 0112                   u3801 0A98                   u3481 0BDF  
                 u3465 0BD1                   u3561 0F08                   u3545 0ED4                   u2921 0225  
                 u2761 0185                   u3721 0111                   u3705 00FD                   u3641 00C9  
                 u3625 009D                   u3810 0A9D                   u3730 0A52                   u3490 0BF1  
                 u2922 022C                   u2850 01DD                   u2770 019B                   u2690 0149  
                 u3642 00D0                   u3731 0A51                   u3555 0EF4                   u2931 023A  
                 u2851 01DC                   u2771 019A                   u3715 0105                   _PEIE 005E  
                 u3740 0A5E                   u3580 0F22                   u2940 0245                   u2932 0241  
                 u2860 01E5                   u3741 0A5D                   u3581 0F21                   u3565 0F05  
                 u2941 0244                   u2861 01E4                   u2845 01CE                   _INTE 005C  
                 u3750 0A69                   u2790 01AB                   u3670 00E6                   u3590 0064  
                 _INTF 0059                   u3751 0A68                   u3495 0BED                   u3575 0F15  
                 u2951 0254                   u2791 01AA                   u3671 00E5                   u3655 00D1  
                 u3591 0063                   _RBIE 005B                   u2952 025B                   u2880 01F8  
                 u3680 00EC                   u2960 0447                   _RBIF 0058                   u2881 01F7  
                 u2785 019C                   u3681 00EB                   u3665 00D9                   u2961 0446  
                 u3770 0A7C                   u2890 01FC                   u2970 0629                   u3771 0A7B  
                 u2891 01FB                   u2875 01E7                   u3691 00F5                   u2971 0628  
                 _RCIE 0465                   u3780 0A86                   u3692 00FC                   u2980 0CE1  
                 _RCEN 048B                   _RCIF 0065                   u3781 0A85                   u3765 0A6E  
                 u2965 0443                   u2981 0CE0                   u2990 0CF6                   u2975 0625  
                 u2991 0CF5                   _PCON 008E                   u3785 0A82                   _PIR1 000C  
                 _PIR2 000D                   u3795 0A8D                   _OERR 00C1       ___awdiv@quotient 0028  
                 _SCKP 0C3C                   _RBPU 040F                   _RX9D 00C0                   _TMR0 0001  
                 _TMR2 0011                   _WCOL 00A7                   _SPEN 00C7                   _RSEN 0489  
                 _TX9D 04C0                   _SREN 00C5                   _OSTS 047B                   _TUN0 0480  
                 _TUN1 0481                   _TUN2 0482                   _TUN3 0483                   _TUN4 0484  
                 _STRA 04E8                   _STRB 04E9                   _STRC 04EA                   _VREN 04BF  
                 _STRD 04EB                   _TRMT 04C1                   _STOP 04A4                   _TXIE 0464  
                 _ZERO 001A                   _WREN 0C62                   _TXEN 04C5                   _TXIF 0064  
                 _VROE 04BE                   _SYNC 04C4                   _WPUB 0095                   _VRSS 04BC  
         ___awdiv@sign 0027                   _data 0A2F               data@data 0076                   _high 004A  
                 _main 0C82                   _lift 0DCF                   btemp 007E               _counttmr 0072  
         ___ftadd@exp1 002A           ___ftadd@exp2 0029                   start 0000           ___ftadd@sign 0028  
    __size_of___awtoft 002F      __size_of___ftpack 007C    start_initialization 0D18           ___awmod@sign 0020  
            string@ptr 0022                  ??_adc 0038        __end_of___awdiv 0B84        __end_of___ftadd 027B  
      __end_of___awmod 0AA9                  ??_tmr 0077              stringcode 0C08        __end_of___ftdiv 0F3F  
      __end_of___ftneg 0A2F        __end_of___ftmul 012F        __end_of___fttol 0DCF            _temperature 03F0  
           ___ftadd@f1 002B             ___ftadd@f2 002E           ___ftdiv@cntr 003D                _CM1CON0 0107  
              _CM2CON0 0108                _CCP1CON 0017                _CM2CON1 0109                _CCP2CON 001D  
         ___ftdiv@sign 0042                _ACKSTAT 048E                _BAUDCTL 0187                _ECCPAS0 04E4  
              _ECCPAS1 04E5                _ECCPAS2 04E6                _ECCPASE 04E7                  _C1CH0 0838  
                _C1CH1 0839                  _C2CH0 0840                  _C2CH1 0841    __end_of_temperature 0800  
                _DC1B0 00BC             ___ftdiv@f1 0043                  _DC1B1 00BD             ___ftdiv@f2 0046  
           ___ftdiv@f3 003E                  _C1SEN 0C2D                  ?_data 0077                  _C2REN 0C2C  
                _C1POL 083C                  _C2POL 0844                  _C1OUT 083E                  _C2OUT 0846  
                _ABDEN 0C38                  _ADCS0 00FE                  _ADCS1 00FF                  _ADDEN 00C3  
                ?_main 004A                  _ACKEN 048C                  _ACKDT 048D                  ?_lift 0079  
            __ptext150 03F0              __ptext151 0F3F              __ptext160 0AA9              __ptext152 027B  
            __ptext161 0D48              __ptext153 0053              __ptext162 0B12              __ptext154 012F  
            __ptext163 0A2F              __ptext155 0024              __ptext164 0B84              __ptext156 0E84  
            __ptext148 0003              __ptext165 0A47              __ptext157 0A25              __ptext149 0DCF  
                _BCLIE 046B              __ptext166 0CFF              __ptext158 0A3B                  _BCLIF 006B  
            __ptext167 0D2C              __ptext159 0003              __ptext168 0003                  _CCP2X 00ED  
                _CCP2Y 00EC                  _EEADR 010D             ___ftneg@f1 0076                  STR_10 0C6A  
                _ANS10 0C4A                  _EEDAT 010C                  _BRG10 04D2                  STR_11 0C1C  
                _ANS11 0C4B                  _BRG11 04D3                  STR_12 0C76                  _ANS12 0C4C  
                _BRG12 04D4                  _ANS13 0C4D                  _BRG13 04D5                  _BRG14 04D6  
                _BRG15 04D7                  _BRG16 0C3B          __end_of_delay 0D3F                  _CARRY 0018  
                _EEPGD 0C67                  _ANSEL 0188             ___awtoft@c 0026  ___ftmul@f3_as_product 002E  
                _T1CON 0010                  _IOCB0 04B0                  _T2CON 0012                  _IOCB1 04B1  
                _IOCB2 04B2                  _IOCB3 04B3                  _IOCB4 04B4                  _IOCB5 04B5  
                _IOCB6 04B6                  _IOCB7 04B7                  _T1GSS 0849                _T1CKPS0 0084  
              _T1CKPS1 0085                  _IRCF0 047C          __end_of_count 0B12                  _IRCF1 047D  
                _IRCF2 047E                ?_string 0078                _T2CKPS0 0090                _T2CKPS1 0091  
                _RABIE 005B                  _RABIF 0058                  _RABPU 040F        __end_of_command 0A47  
                _RCIDL 0C3E                  _FVREN 0C28                  _VCFG0 04FC                  _VCFG1 04FD  
                _RCREG 001A                  _SENDB 04C3             ___ftmul@f1 0033             ___ftmul@f2 0036  
                _RCSTA 0018               ??_string 0077                  _OSFIE 046F                  _OSFIF 006F  
         ___ftpack@arg 0020                  _TMR1H 000F                  _TMR1L 000E                  _SPBRG 0099  
                _PORTA 0005                  _PORTB 0006                _T1OSCEN 0083                  _PORTC 0007  
                _PORTD 0008                  _PORTE 0009           ___ftpack@exp 0023                  _PRSEN 04DF  
                _SRCON 0185          __end_of_pulse 0D18                  _START 04A3                  _PULSR 0C2A  
                _PULSS 0C2B                  _SSPM0 00A0                  _SSPM1 00A1                  _SSPM2 00A2  
                _SSPM3 00A3                  _TRISA 0085                  _TRISB 0086                  _TRISC 0087  
                _TRISD 0088                  _SSPIE 0463                  _TRISE 0089                  _SSPIF 0063  
                _SSPEN 00A5             ___fttol@f1 0042                  _VRCON 0097                  _WPUB0 04A8  
                _WPUB1 04A9                  _WPUB2 04AA                  _WPUB3 04AB                  _WPUB4 04AC  
                _SSPOV 00A6                  _WPUB5 04AD                  _WPUB6 04AE                  _WPUB7 04AF  
                _WRERR 0C63                  _TXREG 0019                  _TXSTA 0098              __pstrings 0C00  
       __pcstackCOMMON 0076                _OSCTUNE 0090                _PWM1CON 009B                  _delay 0D2C  
                _count 0AA9           ___ftmul@cntr 0031                  _input 004C           ___ftmul@sign 0032  
              _PSTRCON 009D                _SSPCON2 0091                  _pulse 0CFF                _ULPWUIE 046A  
              _ULPWUIF 006A                _SSPSTAT 0094                _TOUTPS0 0093                _TOUTPS1 0094  
              _TOUTPS2 0095                _TOUTPS3 0096           ?_temperature 004A                _STRSYNC 04EC  
                pclath 000A           ___fttol@exp1 0041           ___fttol@lval 003D                  status 0003  
 __size_of_temperature 0410        ___awdiv@divisor 002C          __size_of_data 000C          __size_of_main 007D  
           __pbssBANK0 004A          __size_of_lift 00B5               l30001300 0D73               l30001301 0D79  
      ___awdiv@counter 0026               l30001302 0D80               l30001311 0DA7               l30001303 0D82  
             l30001312 0DB2               l30001304 0D86               l30001313 0DB7               l30001314 0DBB  
             l30001315 0DC6               l30001307 0D8E               l30001420 0B3C               l30001308 0DA0  
             l30001421 0B40               l30001430 0B78               l30001422 0B47               l30001414 0B12  
             l30001510 0A2E               l30001431 0B7D               l30001423 0B4B               l30001415 0B19  
             l30001424 0B4F               l30001416 0B1D               l30001600 0C86               l30001425 0B60  
             l30001417 0B25               l30001601 0C8D               l30001426 0B66               l30001418 0B29  
             l30001610 0F3F               l30001602 0CC2               l30001427 0B67               l30001419 0B2E  
             l30001611 0F4C               l30001603 0CC6               l30001428 0B6E               l30001508 0A25  
             l30001700 039D               l30001620 0FA2               l30001612 0F5E               l30001604 0CCB  
             l30001429 0B74               l30001509 0A2C               l30001701 03A4               l30001621 0FAD  
             l30001613 0F64               l30001605 0CD1               l30001630 0D2C               l30001710 0A30  
             l30001702 03B0               l30001622 0FB6               l30001614 0F6A               l30001606 0CDB  
             l30001631 0D2C               l30001711 0A33               l30001295 0D48               l30001703 03BA  
             l30001623 0FBE               l30001615 0F75               l30001607 0CE1               l30001632 0CFF  
             l30001712 0A35               l30001296 0D59               l30001720 0037               l30001560 0159  
             l30001704 03C1               l30001624 0FC9               l30001616 0F7E               l30001640 0DD9  
             l30001608 0CF0               l30001633 0D02               l30001801 0AA9               l30001713 0006  
             l30001705 03CB               l30001625 0FD8               l30001617 0F86               l30001641 0DDF  
             l30001609 0CF6               l30001634 0D0B               l30001730 0BBF               l30001722 0B84  
             l30001298 0D62               l30001714 0007               l30001570 0186               l30001562 0160  
             l30001706 03D2               l30001626 0FDB               l30001618 0F91               l30001650 0E11  
             l30001642 0DE5               l30001731 0BCE               l30001723 0B8A               l30001299 0D72  
             l30001715 0012               l30001635 0A3C               l30001571 0188               l30001563 0164  
             l30001707 03DE               l30001627 0FEA               l30001619 0F9A               l30001651 0E17  
             l30001643 0DEB               l30001732 0BD8               l30001724 0B91               l30001716 0018  
             l30001636 0A3F               l30001740 0E9C               l30001580 01D7               l30001572 018E  
             l30001564 016A               l30001556 012F               l30001708 03E8               l30001628 0FED  
             l30001660 0E41               l30001652 0E1B               l30001644 0DEF               l30001733 0BE0  
             l30001637 0A41               l30001741 0EAB               l30001717 0024               l30001581 01DD  
             l30001573 019B               l30001565 0174               l30001557 0145               l30001709 03EB  
             l30001629 0FFC               l30001661 0E45               l30001653 0E21               l30001645 0DF5  
             l30001734 0BE8               l30001726 0B98               l30001750 0EF3               l30001718 002B  
             l30001590 0245               l30001582 01E6               l30001574 01A5               l30001558 0149  
             l30001670 028A               l30001662 0E57               l30001654 0E27               l30001646 0DFB  
             l30001638 0DCF               l30001735 0BFA               l30001727 0BA4               l30001751 0EFB  
             l30001743 0EB2               l30001719 002F               l30001591 025B               l30001583 01F2  
             l30001575 01AB               l30001567 017B               l30001559 014F               l30001671 0290  
             l30001663 0E5D               l30001655 0E2D               l30001647 0E01               l30001639 0DD5  
             l30001736 0BFE               l30001728 0BAB               l30001752 0F09               l30001744 0EB8  
             l30001592 025E               l30001584 01FC               l30001576 01B4               l30001568 017D  
             l30001680 02E5               l30001672 029C               l30001664 0E6D               l30001656 0E31  
             l30001648 0E05               l30001729 0BAF               l30001753 0F13               l30001745 0EBD  
             l30001737 0E84               l30001585 0212               l30001577 01C0               l30001569 0181  
             l30001761 006B               l30001681 02EC               l30001673 02A6               l30001665 0E73  
             l30001657 0E35               l30001649 0E0B               l30001754 0F14               l30001746 0ECD  
             l30001738 0E95               l30001586 0216               l30001578 01C7               l30001770 00BC  
             l30001762 007A               l30001690 0341               l30001682 02F8               l30001674 02AD  
             l30001594 03F0               l30001666 0E7F               l30001658 0E39               l30001755 0F1C  
             l30001747 0EDF               l30001587 022C               l30001579 01CD               l30001771 00C0  
             l30001691 0348               l30001683 0302               l30001675 02B7               l30001667 027B  
             l30001595 0438               l30001659 0E3D               l30001756 0F22               l30001748 0EE3  
             l30001588 0231               l30001780 010C               l30001772 00D0               l30001764 0081  
             l30001692 0354               l30001684 0309               l30001676 02BE               l30001668 0281  
             l30001596 0447               l30001749 0EEA               l30001589 0241               l30001781 0112  
             l30001773 00D8               l30001765 00AC               l30001693 035E               l30001685 0313  
             l30001677 02CA               l30001669 0287               l30001597 061A               l30001790 0A6D  
             l30001774 00E0               l30001766 00AD               l30001758 0053               l30001694 0365  
             l30001686 031A               l30001678 02D4               l30001598 0629               l30001791 0A74  
             l30001783 0A47               l30001775 00E6               l30001767 00AE               l30001759 0064  
             l30001695 036F               l30001687 0326               l30001679 02DB               l30001599 0C82  
             l30001792 0A78               l30001784 0A4E               l30001776 00E8               l30001768 00B4  
             l30001696 0376               l30001688 0330               l30001793 0A7C               l30001785 0A52  
             l30001777 00EC               l30001769 00BA               l30001697 0382               l30001689 0337  
             l30001794 0A86               l30001786 0A5A               l30001778 00FC               l30001698 038C  
             l30001795 0A8C               l30001787 0A5E               l30001779 0104               l30001699 0393  
             l30001796 0A93               l30001788 0A63               l30001789 0A69               l30001797 0A99  
             l30001798 0A9D               l30001799 0AA2            __stringbase 0C0E                ___awdiv 0B12  
              ___ftadd 012F                ___awmod 0A47                ___ftdiv 0E84                ___ftneg 0A25  
              ___ftmul 0053                ___fttol 0D48               ?___awdiv 002A               ?___ftadd 002B  
             ?___awmod 0022           temperature@a 00B2           temperature@b 00B9           temperature@c 00B0  
         temperature@d 00C1           temperature@e 00AE           temperature@f 00BD           temperature@g 00AC  
         temperature@h 00A4           temperature@w 00C6               ?___ftdiv 0043           temperature@z 00B4  
             ?___ftneg 0076               ?___ftmul 0033               ?___fttol 0042              ??___awdiv 0077  
            ??___ftadd 0025              ??___awmod 0076              ??___ftdiv 0039              ??___ftneg 0076  
            ??___ftmul 0029              ??___fttol 0039                 ??_data 0076                 ??_main 0029  
               ??_lift 0078       __end_of___awtoft 0053            command@data 0076       __end_of___ftpack 0C00  
              _command 0A3B               ?_command 0077             __pmaintext 0C82              ??_command 0076  
               _C1RSEL 084D                 _C2RSEL 084C                 ?_delay 0020               stringdir 0C09  
               _C2SYNC 0848               stringjmp 0C0D               stringtab 0C00                 _ADCON0 001F  
               _ADCON1 009F                 _ABDOVF 0C3F            ___ftdiv@exp 0041                 _CCP1M0 00B8  
               _CCP1M1 00B9                 _CCP1M2 00BA                 _CCP1M3 00BB                 _CCP2M0 00E8  
               _CCP2M1 00E9                 _CCP2M2 00EA                 _CCP2M3 00EB                 _CCP1IE 0462  
               ?_count 0036                 _CCP1IF 0062                 _CCP2IE 0468                 _CCP2IF 0068  
               _ADRESH 001E                 _EEADRH 010F                 _ADRESL 009E                 _EEADRL 010D  
               _EEDATA 010C                 _ECCPAS 009C                 _CCPR1H 0016                 _EEDATH 010E  
               _CCPR2H 001C                 _CCPR1L 0015                 _CCPR2L 001B                 _EECON1 018C  
               _EECON2 018D           __end_of_data 0A3B                 ?_pulse 0076                 _ANSELH 0189  
               _MC1OUT 084F                 _MC2OUT 084E           __end_of_main 0CFF           __end_of_lift 0E84  
               _T1GINV 0087                 _GODONE 00F9   end_of_initialization 0D28          ??_temperature 0049  
               _T1SYNC 0082                 _INTEDG 040E                 _PCLATH 000A                 _INTCON 000B  
        __pcstackBANK0 0020          __pcstackBANK1 00A0          ___awtoft@sign 0025                 _SBOREN 0474  
               _OSCCON 008F                 _TMR1GE 0086                 _TMR1IE 0460                 _TMR1IF 0060  
               _TMR1CS 0081                 _TMR2IE 0461                 _TMR2IF 0061                 _PSSAC0 04E2  
               _PSSAC1 04E3                 _PSSBD0 04E0                 _PSSBD1 04E1                 _SPBRGH 009A  
               _OPTION 0081                 _TMR1ON 0080                 _TMR2ON 0092                 _WDTCON 0105  
          ___ftmul@exp 002D                 _WDTPS0 0829                 _WDTPS1 082A                 _WDTPS2 082B  
               _WDTPS3 082C                 _SSPADD 0093                 _TRISA0 0428                 _TRISA1 0429  
               _TRISB0 0430                 _TRISA2 042A                 _TRISB1 0431                 _TRISA3 042B  
               _TRISC0 0438                 _TRISB2 0432                 _TRISA4 042C                 _TRISC1 0439  
               _TRISB3 0433                 _TRISA5 042D                 _TRISD0 0440                 _TRISC2 043A  
               _TRISB4 0434                 _TRISA6 042E                 _TRISD1 0441                 _TRISC3 043B  
               _TRISB5 0435                 _TRISA7 042F                 _TRISE0 0448                 _TRISD2 0442  
               _TRISC4 043C                 _TRISB6 0436                 _TRISE1 0449                 _TRISD3 0443  
               _TRISC5 043D                 _TRISB7 0437                 _TRISE2 044A                 _TRISD4 0444  
               _TRISC6 043E                 _TRISE3 044B                 _TRISD5 0445                 _TRISC7 043F  
               _TRISD6 0446                 _TRISD7 0447                 _STATUS 0003          ___ftpack@sign 0024  
               _SSPCON 0014                 _SSPBUF 0013                 _SWDTEN 0828                 _ULPWUE 0475  
               _SSPMSK 0093         __end_of_string 0024           __size_of_adc 00C1           __size_of_tmr 0175  
               delay@x 0020            __end_of_adc 1000                 _output 0052                 _string 0003  
          __end_of_tmr 03F0                 count@i 0036          ___fttol@sign1 003C       ___awmod@dividend 0022  
      ___awmod@divisor 0024        ___awmod@counter 0021  
